
game/game:     file format elf32-i386


Disassembly of section .text:

08049000 <cli>:
 8049000:	55                   	push   %ebp
 8049001:	89 e5                	mov    %esp,%ebp
 8049003:	e8 d2 00 00 00       	call   80490da <__x86.get_pc_thunk.ax>
 8049008:	05 f8 0f 01 00       	add    $0x10ff8,%eax
 804900d:	fa                   	cli    
 804900e:	90                   	nop
 804900f:	5d                   	pop    %ebp
 8049010:	c3                   	ret    

08049011 <add_irq_handle>:
 8049011:	55                   	push   %ebp
 8049012:	89 e5                	mov    %esp,%ebp
 8049014:	53                   	push   %ebx
 8049015:	83 ec 04             	sub    $0x4,%esp
 8049018:	e8 bd 00 00 00       	call   80490da <__x86.get_pc_thunk.ax>
 804901d:	05 e3 0f 01 00       	add    $0x10fe3,%eax
 8049022:	83 ec 04             	sub    $0x4,%esp
 8049025:	ff 75 0c             	pushl  0xc(%ebp)
 8049028:	ff 75 08             	pushl  0x8(%ebp)
 804902b:	6a 00                	push   $0x0
 804902d:	89 c3                	mov    %eax,%ebx
 804902f:	e8 ae 00 00 00       	call   80490e2 <syscall>
 8049034:	83 c4 10             	add    $0x10,%esp
 8049037:	90                   	nop
 8049038:	8b 5d fc             	mov    -0x4(%ebp),%ebx
 804903b:	c9                   	leave  
 804903c:	c3                   	ret    

0804903d <game_init>:
 804903d:	55                   	push   %ebp
 804903e:	89 e5                	mov    %esp,%ebp
 8049040:	53                   	push   %ebx
 8049041:	83 ec 04             	sub    $0x4,%esp
 8049044:	e8 95 00 00 00       	call   80490de <__x86.get_pc_thunk.bx>
 8049049:	81 c3 b7 0f 01 00    	add    $0x10fb7,%ebx
 804904f:	e8 f0 02 00 00       	call   8049344 <init_timer>
 8049054:	83 ec 08             	sub    $0x8,%esp
 8049057:	c7 c0 9c 99 04 08    	mov    $0x804999c,%eax
 804905d:	50                   	push   %eax
 804905e:	6a 00                	push   $0x0
 8049060:	e8 ac ff ff ff       	call   8049011 <add_irq_handle>
 8049065:	83 c4 10             	add    $0x10,%esp
 8049068:	83 ec 08             	sub    $0x8,%esp
 804906b:	c7 c0 b3 9c 04 08    	mov    $0x8049cb3,%eax
 8049071:	50                   	push   %eax
 8049072:	6a 01                	push   $0x1
 8049074:	e8 98 ff ff ff       	call   8049011 <add_irq_handle>
 8049079:	83 c4 10             	add    $0x10,%esp
 804907c:	8d 83 88 c0 ff ff    	lea    -0x3f78(%ebx),%eax
 8049082:	50                   	push   %eax
 8049083:	6a 13                	push   $0x13
 8049085:	8d 83 00 c0 ff ff    	lea    -0x4000(%ebx),%eax
 804908b:	50                   	push   %eax
 804908c:	8d 83 14 c0 ff ff    	lea    -0x3fec(%ebx),%eax
 8049092:	50                   	push   %eax
 8049093:	e8 38 13 00 00       	call   804a3d0 <printf>
 8049098:	83 c4 10             	add    $0x10,%esp
 804909b:	e8 49 09 00 00       	call   80499e9 <main_loop>
 80490a0:	e8 5b ff ff ff       	call   8049000 <cli>
 80490a5:	83 ec 0c             	sub    $0xc,%esp
 80490a8:	8d 83 3e c0 ff ff    	lea    -0x3fc2(%ebx),%eax
 80490ae:	50                   	push   %eax
 80490af:	8d 83 88 c0 ff ff    	lea    -0x3f78(%ebx),%eax
 80490b5:	50                   	push   %eax
 80490b6:	6a 17                	push   $0x17
 80490b8:	8d 83 00 c0 ff ff    	lea    -0x4000(%ebx),%eax
 80490be:	50                   	push   %eax
 80490bf:	8d 83 40 c0 ff ff    	lea    -0x3fc0(%ebx),%eax
 80490c5:	50                   	push   %eax
 80490c6:	e8 05 13 00 00       	call   804a3d0 <printf>
 80490cb:	83 c4 20             	add    $0x20,%esp
 80490ce:	b8 01 00 00 00       	mov    $0x1,%eax
 80490d3:	82 90 8b 5d fc c9 c3 	adcb   $0xc3,-0x3603a275(%eax)

080490da <__x86.get_pc_thunk.ax>:
 80490da:	8b 04 24             	mov    (%esp),%eax
 80490dd:	c3                   	ret    

080490de <__x86.get_pc_thunk.bx>:
 80490de:	8b 1c 24             	mov    (%esp),%ebx
 80490e1:	c3                   	ret    

080490e2 <syscall>:
 80490e2:	55                   	push   %ebp
 80490e3:	89 e5                	mov    %esp,%ebp
 80490e5:	53                   	push   %ebx
 80490e6:	83 ec 10             	sub    $0x10,%esp
 80490e9:	e8 ec ff ff ff       	call   80490da <__x86.get_pc_thunk.ax>
 80490ee:	05 12 0f 01 00       	add    $0x10f12,%eax
 80490f3:	8d 45 08             	lea    0x8(%ebp),%eax
 80490f6:	89 45 f8             	mov    %eax,-0x8(%ebp)
 80490f9:	8b 45 f8             	mov    -0x8(%ebp),%eax
 80490fc:	8b 00                	mov    (%eax),%eax
 80490fe:	8b 55 f8             	mov    -0x8(%ebp),%edx
 8049101:	83 c2 04             	add    $0x4,%edx
 8049104:	8b 1a                	mov    (%edx),%ebx
 8049106:	8b 55 f8             	mov    -0x8(%ebp),%edx
 8049109:	83 c2 08             	add    $0x8,%edx
 804910c:	8b 0a                	mov    (%edx),%ecx
 804910e:	8b 55 f8             	mov    -0x8(%ebp),%edx
 8049111:	83 c2 0c             	add    $0xc,%edx
 8049114:	8b 12                	mov    (%edx),%edx
 8049116:	cd 80                	int    $0x80
 8049118:	89 45 f4             	mov    %eax,-0xc(%ebp)
 804911b:	8b 45 f4             	mov    -0xc(%ebp),%eax
 804911e:	83 c4 10             	add    $0x10,%esp
 8049121:	5b                   	pop    %ebx
 8049122:	5d                   	pop    %ebp
 8049123:	c3                   	ret    

08049124 <_exit>:
 8049124:	55                   	push   %ebp
 8049125:	89 e5                	mov    %esp,%ebp
 8049127:	53                   	push   %ebx
 8049128:	83 ec 04             	sub    $0x4,%esp
 804912b:	e8 aa ff ff ff       	call   80490da <__x86.get_pc_thunk.ax>
 8049130:	05 d0 0e 01 00       	add    $0x10ed0,%eax
 8049135:	8d 90 d8 c0 ff ff    	lea    -0x3f28(%eax),%edx
 804913b:	52                   	push   %edx
 804913c:	6a 12                	push   $0x12
 804913e:	8d 90 94 c0 ff ff    	lea    -0x3f6c(%eax),%edx
 8049144:	52                   	push   %edx
 8049145:	8d 90 b0 c0 ff ff    	lea    -0x3f50(%eax),%edx
 804914b:	52                   	push   %edx
 804914c:	89 c3                	mov    %eax,%ebx
 804914e:	e8 7d 12 00 00       	call   804a3d0 <printf>
 8049153:	83 c4 10             	add    $0x10,%esp
 8049156:	83 7d 08 00          	cmpl   $0x0,0x8(%ebp)
 804915a:	74 06                	je     8049162 <_exit+0x3e>
 804915c:	b8 01 00 00 00       	mov    $0x1,%eax
 8049161:	82 90 8b 5d fc c9 c3 	adcb   $0xc3,-0x3603a275(%eax)

08049168 <open>:
 8049168:	55                   	push   %ebp
 8049169:	89 e5                	mov    %esp,%ebp
 804916b:	e8 6a ff ff ff       	call   80490da <__x86.get_pc_thunk.ax>
 8049170:	05 90 0e 01 00       	add    $0x10e90,%eax
 8049175:	ff 75 0c             	pushl  0xc(%ebp)
 8049178:	ff 75 08             	pushl  0x8(%ebp)
 804917b:	6a 05                	push   $0x5
 804917d:	e8 60 ff ff ff       	call   80490e2 <syscall>
 8049182:	83 c4 0c             	add    $0xc,%esp
 8049185:	c9                   	leave  
 8049186:	c3                   	ret    

08049187 <read>:
 8049187:	55                   	push   %ebp
 8049188:	89 e5                	mov    %esp,%ebp
 804918a:	e8 4b ff ff ff       	call   80490da <__x86.get_pc_thunk.ax>
 804918f:	05 71 0e 01 00       	add    $0x10e71,%eax
 8049194:	ff 75 10             	pushl  0x10(%ebp)
 8049197:	ff 75 0c             	pushl  0xc(%ebp)
 804919a:	ff 75 08             	pushl  0x8(%ebp)
 804919d:	6a 03                	push   $0x3
 804919f:	e8 3e ff ff ff       	call   80490e2 <syscall>
 80491a4:	83 c4 10             	add    $0x10,%esp
 80491a7:	c9                   	leave  
 80491a8:	c3                   	ret    

080491a9 <write>:
 80491a9:	55                   	push   %ebp
 80491aa:	89 e5                	mov    %esp,%ebp
 80491ac:	e8 29 ff ff ff       	call   80490da <__x86.get_pc_thunk.ax>
 80491b1:	05 4f 0e 01 00       	add    $0x10e4f,%eax
 80491b6:	ff 75 10             	pushl  0x10(%ebp)
 80491b9:	ff 75 0c             	pushl  0xc(%ebp)
 80491bc:	ff 75 08             	pushl  0x8(%ebp)
 80491bf:	6a 04                	push   $0x4
 80491c1:	e8 1c ff ff ff       	call   80490e2 <syscall>
 80491c6:	83 c4 10             	add    $0x10,%esp
 80491c9:	c9                   	leave  
 80491ca:	c3                   	ret    

080491cb <lseek>:
 80491cb:	55                   	push   %ebp
 80491cc:	89 e5                	mov    %esp,%ebp
 80491ce:	e8 07 ff ff ff       	call   80490da <__x86.get_pc_thunk.ax>
 80491d3:	05 2d 0e 01 00       	add    $0x10e2d,%eax
 80491d8:	ff 75 10             	pushl  0x10(%ebp)
 80491db:	ff 75 0c             	pushl  0xc(%ebp)
 80491de:	ff 75 08             	pushl  0x8(%ebp)
 80491e1:	6a 13                	push   $0x13
 80491e3:	e8 fa fe ff ff       	call   80490e2 <syscall>
 80491e8:	83 c4 10             	add    $0x10,%esp
 80491eb:	c9                   	leave  
 80491ec:	c3                   	ret    

080491ed <sbrk>:
 80491ed:	55                   	push   %ebp
 80491ee:	89 e5                	mov    %esp,%ebp
 80491f0:	53                   	push   %ebx
 80491f1:	83 ec 10             	sub    $0x10,%esp
 80491f4:	e8 e5 fe ff ff       	call   80490de <__x86.get_pc_thunk.bx>
 80491f9:	81 c3 07 0e 01 00    	add    $0x10e07,%ebx
 80491ff:	8b 83 e0 0d 00 00    	mov    0xde0(%ebx),%eax
 8049205:	85 c0                	test   %eax,%eax
 8049207:	75 0c                	jne    8049215 <sbrk+0x28>
 8049209:	c7 c0 98 06 07 08    	mov    $0x8070698,%eax
 804920f:	89 83 e0 0d 00 00    	mov    %eax,0xde0(%ebx)
 8049215:	8b 93 e0 0d 00 00    	mov    0xde0(%ebx),%edx
 804921b:	8b 45 08             	mov    0x8(%ebp),%eax
 804921e:	01 d0                	add    %edx,%eax
 8049220:	50                   	push   %eax
 8049221:	6a 2d                	push   $0x2d
 8049223:	e8 ba fe ff ff       	call   80490e2 <syscall>
 8049228:	83 c4 08             	add    $0x8,%esp
 804922b:	85 c0                	test   %eax,%eax
 804922d:	74 06                	je     8049235 <sbrk+0x48>
 804922f:	b8 01 00 00 00       	mov    $0x1,%eax
 8049234:	82 8b 83 e0 0d 00 00 	orb    $0x0,0xde083(%ebx)
 804923b:	89 45 f8             	mov    %eax,-0x8(%ebp)
 804923e:	8b 93 e0 0d 00 00    	mov    0xde0(%ebx),%edx
 8049244:	8b 45 08             	mov    0x8(%ebp),%eax
 8049247:	01 d0                	add    %edx,%eax
 8049249:	89 83 e0 0d 00 00    	mov    %eax,0xde0(%ebx)
 804924f:	8b 45 f8             	mov    -0x8(%ebp),%eax
 8049252:	8b 5d fc             	mov    -0x4(%ebp),%ebx
 8049255:	c9                   	leave  
 8049256:	c3                   	ret    

08049257 <close>:
 8049257:	55                   	push   %ebp
 8049258:	89 e5                	mov    %esp,%ebp
 804925a:	e8 7b fe ff ff       	call   80490da <__x86.get_pc_thunk.ax>
 804925f:	05 a1 0d 01 00       	add    $0x10da1,%eax
 8049264:	ff 75 08             	pushl  0x8(%ebp)
 8049267:	6a 06                	push   $0x6
 8049269:	e8 74 fe ff ff       	call   80490e2 <syscall>
 804926e:	83 c4 08             	add    $0x8,%esp
 8049271:	c9                   	leave  
 8049272:	c3                   	ret    

08049273 <fstat>:
 8049273:	55                   	push   %ebp
 8049274:	89 e5                	mov    %esp,%ebp
 8049276:	e8 5f fe ff ff       	call   80490da <__x86.get_pc_thunk.ax>
 804927b:	05 85 0d 01 00       	add    $0x10d85,%eax
 8049280:	8b 45 0c             	mov    0xc(%ebp),%eax
 8049283:	c7 40 04 00 20 00 00 	movl   $0x2000,0x4(%eax)
 804928a:	b8 00 00 00 00       	mov    $0x0,%eax
 804928f:	5d                   	pop    %ebp
 8049290:	c3                   	ret    

08049291 <isatty>:
 8049291:	55                   	push   %ebp
 8049292:	89 e5                	mov    %esp,%ebp
 8049294:	e8 41 fe ff ff       	call   80490da <__x86.get_pc_thunk.ax>
 8049299:	05 67 0d 01 00       	add    $0x10d67,%eax
 804929e:	b8 00 00 00 00       	mov    $0x0,%eax
 80492a3:	5d                   	pop    %ebp
 80492a4:	c3                   	ret    

080492a5 <out_longbyte>:
 80492a5:	55                   	push   %ebp
 80492a6:	89 e5                	mov    %esp,%ebp
 80492a8:	83 ec 04             	sub    $0x4,%esp
 80492ab:	e8 2a fe ff ff       	call   80490da <__x86.get_pc_thunk.ax>
 80492b0:	05 50 0d 01 00       	add    $0x10d50,%eax
 80492b5:	8b 45 08             	mov    0x8(%ebp),%eax
 80492b8:	66 89 45 fc          	mov    %ax,-0x4(%ebp)
 80492bc:	8b 45 0c             	mov    0xc(%ebp),%eax
 80492bf:	0f b7 55 fc          	movzwl -0x4(%ebp),%edx
 80492c3:	ef                   	out    %eax,(%dx)
 80492c4:	90                   	nop
 80492c5:	c9                   	leave  
 80492c6:	c3                   	ret    

080492c7 <audio_pause>:
 80492c7:	55                   	push   %ebp
 80492c8:	89 e5                	mov    %esp,%ebp
 80492ca:	e8 0b fe ff ff       	call   80490da <__x86.get_pc_thunk.ax>
 80492cf:	05 31 0d 01 00       	add    $0x10d31,%eax
 80492d4:	ff 75 08             	pushl  0x8(%ebp)
 80492d7:	68 c1 00 00 00       	push   $0xc1
 80492dc:	e8 c4 ff ff ff       	call   80492a5 <out_longbyte>
 80492e1:	83 c4 08             	add    $0x8,%esp
 80492e4:	90                   	nop
 80492e5:	c9                   	leave  
 80492e6:	c3                   	ret    

080492e7 <audio_write>:
 80492e7:	55                   	push   %ebp
 80492e8:	89 e5                	mov    %esp,%ebp
 80492ea:	e8 eb fd ff ff       	call   80490da <__x86.get_pc_thunk.ax>
 80492ef:	05 11 0d 01 00       	add    $0x10d11,%eax
 80492f4:	8b 45 08             	mov    0x8(%ebp),%eax
 80492f7:	50                   	push   %eax
 80492f8:	68 c0 00 00 00       	push   $0xc0
 80492fd:	e8 a3 ff ff ff       	call   80492a5 <out_longbyte>
 8049302:	83 c4 08             	add    $0x8,%esp
 8049305:	90                   	nop
 8049306:	c9                   	leave  
 8049307:	c3                   	ret    

08049308 <out_byte>:
 8049308:	55                   	push   %ebp
 8049309:	89 e5                	mov    %esp,%ebp
 804930b:	83 ec 08             	sub    $0x8,%esp
 804930e:	e8 c7 fd ff ff       	call   80490da <__x86.get_pc_thunk.ax>
 8049313:	05 ed 0c 01 00       	add    $0x10ced,%eax
 8049318:	8b 45 08             	mov    0x8(%ebp),%eax
 804931b:	8b 55 0c             	mov    0xc(%ebp),%edx
 804931e:	66 89 45 fc          	mov    %ax,-0x4(%ebp)
 8049322:	89 d0                	mov    %edx,%eax
 8049324:	88 45 f8             	mov    %al,-0x8(%ebp)
 8049327:	0f b6 45 f8          	movzbl -0x8(%ebp),%eax
 804932b:	0f b7 55 fc          	movzwl -0x4(%ebp),%edx
 804932f:	ee                   	out    %al,(%dx)
 8049330:	90                   	nop
 8049331:	c9                   	leave  
 8049332:	c3                   	ret    

08049333 <cli>:
 8049333:	55                   	push   %ebp
 8049334:	89 e5                	mov    %esp,%ebp
 8049336:	e8 9f fd ff ff       	call   80490da <__x86.get_pc_thunk.ax>
 804933b:	05 c5 0c 01 00       	add    $0x10cc5,%eax
 8049340:	fa                   	cli    
 8049341:	90                   	nop
 8049342:	5d                   	pop    %ebp
 8049343:	c3                   	ret    

08049344 <init_timer>:
 8049344:	55                   	push   %ebp
 8049345:	89 e5                	mov    %esp,%ebp
 8049347:	53                   	push   %ebx
 8049348:	83 ec 14             	sub    $0x14,%esp
 804934b:	e8 8e fd ff ff       	call   80490de <__x86.get_pc_thunk.bx>
 8049350:	81 c3 b0 0c 01 00    	add    $0x10cb0,%ebx
 8049356:	c7 45 f4 9b 2e 00 00 	movl   $0x2e9b,-0xc(%ebp)
 804935d:	81 7d f4 ff ff 00 00 	cmpl   $0xffff,-0xc(%ebp)
 8049364:	7e 34                	jle    804939a <init_timer+0x56>
 8049366:	e8 c8 ff ff ff       	call   8049333 <cli>
 804936b:	83 ec 0c             	sub    $0xc,%esp
 804936e:	8d 83 e0 c0 ff ff    	lea    -0x3f20(%ebx),%eax
 8049374:	50                   	push   %eax
 8049375:	8d 83 54 c1 ff ff    	lea    -0x3eac(%ebx),%eax
 804937b:	50                   	push   %eax
 804937c:	6a 09                	push   $0x9
 804937e:	8d 83 f0 c0 ff ff    	lea    -0x3f10(%ebx),%eax
 8049384:	50                   	push   %eax
 8049385:	8d 83 0c c1 ff ff    	lea    -0x3ef4(%ebx),%eax
 804938b:	50                   	push   %eax
 804938c:	e8 3f 10 00 00       	call   804a3d0 <printf>
 8049391:	83 c4 20             	add    $0x20,%esp
 8049394:	b8 01 00 00 00       	mov    $0x1,%eax
 8049399:	82 83 ec 08 6a 34 6a 	addb   $0x6a,0x346a08ec(%ebx)
 80493a0:	43                   	inc    %ebx
 80493a1:	e8 62 ff ff ff       	call   8049308 <out_byte>
 80493a6:	83 c4 10             	add    $0x10,%esp
 80493a9:	8b 45 f4             	mov    -0xc(%ebp),%eax
 80493ac:	99                   	cltd   
 80493ad:	c1 ea 18             	shr    $0x18,%edx
 80493b0:	01 d0                	add    %edx,%eax
 80493b2:	0f b6 c0             	movzbl %al,%eax
 80493b5:	29 d0                	sub    %edx,%eax
 80493b7:	0f be c0             	movsbl %al,%eax
 80493ba:	83 ec 08             	sub    $0x8,%esp
 80493bd:	50                   	push   %eax
 80493be:	6a 40                	push   $0x40
 80493c0:	e8 43 ff ff ff       	call   8049308 <out_byte>
 80493c5:	83 c4 10             	add    $0x10,%esp
 80493c8:	8b 45 f4             	mov    -0xc(%ebp),%eax
 80493cb:	8d 90 ff 00 00 00    	lea    0xff(%eax),%edx
 80493d1:	85 c0                	test   %eax,%eax
 80493d3:	0f 48 c2             	cmovs  %edx,%eax
 80493d6:	c1 f8 08             	sar    $0x8,%eax
 80493d9:	0f be c0             	movsbl %al,%eax
 80493dc:	83 ec 08             	sub    $0x8,%esp
 80493df:	50                   	push   %eax
 80493e0:	6a 40                	push   $0x40
 80493e2:	e8 21 ff ff ff       	call   8049308 <out_byte>
 80493e7:	83 c4 10             	add    $0x10,%esp
 80493ea:	90                   	nop
 80493eb:	8b 5d fc             	mov    -0x4(%ebp),%ebx
 80493ee:	c9                   	leave  
 80493ef:	c3                   	ret    

080493f0 <cli>:
 80493f0:	55                   	push   %ebp
 80493f1:	89 e5                	mov    %esp,%ebp
 80493f3:	e8 e2 fc ff ff       	call   80490da <__x86.get_pc_thunk.ax>
 80493f8:	05 08 0c 01 00       	add    $0x10c08,%eax
 80493fd:	fa                   	cli    
 80493fe:	90                   	nop
 80493ff:	5d                   	pop    %ebp
 8049400:	c3                   	ret    

08049401 <draw_pixel>:
 8049401:	55                   	push   %ebp
 8049402:	89 e5                	mov    %esp,%ebp
 8049404:	53                   	push   %ebx
 8049405:	83 ec 04             	sub    $0x4,%esp
 8049408:	e8 d1 fc ff ff       	call   80490de <__x86.get_pc_thunk.bx>
 804940d:	81 c3 f3 0b 01 00    	add    $0x10bf3,%ebx
 8049413:	83 7d 08 00          	cmpl   $0x0,0x8(%ebp)
 8049417:	78 18                	js     8049431 <draw_pixel+0x30>
 8049419:	83 7d 0c 00          	cmpl   $0x0,0xc(%ebp)
 804941d:	78 12                	js     8049431 <draw_pixel+0x30>
 804941f:	81 7d 08 c7 00 00 00 	cmpl   $0xc7,0x8(%ebp)
 8049426:	7f 09                	jg     8049431 <draw_pixel+0x30>
 8049428:	81 7d 0c 3f 01 00 00 	cmpl   $0x13f,0xc(%ebp)
 804942f:	7e 34                	jle    8049465 <draw_pixel+0x64>
 8049431:	e8 ba ff ff ff       	call   80493f0 <cli>
 8049436:	83 ec 0c             	sub    $0xc,%esp
 8049439:	8d 83 60 c1 ff ff    	lea    -0x3ea0(%ebx),%eax
 804943f:	50                   	push   %eax
 8049440:	8d 83 34 c2 ff ff    	lea    -0x3dcc(%ebx),%eax
 8049446:	50                   	push   %eax
 8049447:	6a 10                	push   $0x10
 8049449:	8d 83 94 c1 ff ff    	lea    -0x3e6c(%ebx),%eax
 804944f:	50                   	push   %eax
 8049450:	8d 83 b0 c1 ff ff    	lea    -0x3e50(%ebx),%eax
 8049456:	50                   	push   %eax
 8049457:	e8 74 0f 00 00       	call   804a3d0 <printf>
 804945c:	83 c4 20             	add    $0x20,%esp
 804945f:	b8 01 00 00 00       	mov    $0x1,%eax
 8049464:	82 8b 83 20 04 00 00 	orb    $0x0,0x42083(%ebx)
 804946b:	8b 55 08             	mov    0x8(%ebp),%edx
 804946e:	89 d1                	mov    %edx,%ecx
 8049470:	c1 e1 08             	shl    $0x8,%ecx
 8049473:	8b 55 08             	mov    0x8(%ebp),%edx
 8049476:	c1 e2 06             	shl    $0x6,%edx
 8049479:	01 d1                	add    %edx,%ecx
 804947b:	8b 55 0c             	mov    0xc(%ebp),%edx
 804947e:	01 ca                	add    %ecx,%edx
 8049480:	01 d0                	add    %edx,%eax
 8049482:	8b 55 10             	mov    0x10(%ebp),%edx
 8049485:	88 10                	mov    %dl,(%eax)
 8049487:	90                   	nop
 8049488:	8b 5d fc             	mov    -0x4(%ebp),%ebx
 804948b:	c9                   	leave  
 804948c:	c3                   	ret    

0804948d <prepare_buffer>:
 804948d:	55                   	push   %ebp
 804948e:	89 e5                	mov    %esp,%ebp
 8049490:	53                   	push   %ebx
 8049491:	83 ec 04             	sub    $0x4,%esp
 8049494:	e8 41 fc ff ff       	call   80490da <__x86.get_pc_thunk.ax>
 8049499:	05 67 0b 01 00       	add    $0x10b67,%eax
 804949e:	8b 90 20 04 00 00    	mov    0x420(%eax),%edx
 80494a4:	83 ec 04             	sub    $0x4,%esp
 80494a7:	68 00 fa 00 00       	push   $0xfa00
 80494ac:	6a 00                	push   $0x0
 80494ae:	52                   	push   %edx
 80494af:	89 c3                	mov    %eax,%ebx
 80494b1:	e8 60 0e 00 00       	call   804a316 <memset>
 80494b6:	83 c4 10             	add    $0x10,%esp
 80494b9:	90                   	nop
 80494ba:	8b 5d fc             	mov    -0x4(%ebp),%ebx
 80494bd:	c9                   	leave  
 80494be:	c3                   	ret    

080494bf <display_buffer>:
 80494bf:	55                   	push   %ebp
 80494c0:	89 e5                	mov    %esp,%ebp
 80494c2:	57                   	push   %edi
 80494c3:	56                   	push   %esi
 80494c4:	53                   	push   %ebx
 80494c5:	e8 10 fc ff ff       	call   80490da <__x86.get_pc_thunk.ax>
 80494ca:	05 36 0b 01 00       	add    $0x10b36,%eax
 80494cf:	8b 80 20 04 00 00    	mov    0x420(%eax),%eax
 80494d5:	ba 80 3e 00 00       	mov    $0x3e80,%edx
 80494da:	bb 00 00 0a 00       	mov    $0xa0000,%ebx
 80494df:	89 d1                	mov    %edx,%ecx
 80494e1:	89 c6                	mov    %eax,%esi
 80494e3:	89 df                	mov    %ebx,%edi
 80494e5:	fc                   	cld    
 80494e6:	f3 a5                	rep movsl %ds:(%esi),%es:(%edi)
 80494e8:	90                   	nop
 80494e9:	5b                   	pop    %ebx
 80494ea:	5e                   	pop    %esi
 80494eb:	5f                   	pop    %edi
 80494ec:	5d                   	pop    %ebp
 80494ed:	c3                   	ret    

080494ee <draw_character>:
 80494ee:	55                   	push   %ebp
 80494ef:	89 e5                	mov    %esp,%ebp
 80494f1:	53                   	push   %ebx
 80494f2:	83 ec 24             	sub    $0x24,%esp
 80494f5:	e8 e4 fb ff ff       	call   80490de <__x86.get_pc_thunk.bx>
 80494fa:	81 c3 06 0b 01 00    	add    $0x10b06,%ebx
 8049500:	8b 45 08             	mov    0x8(%ebp),%eax
 8049503:	88 45 e4             	mov    %al,-0x1c(%ebp)
 8049506:	80 7d e4 00          	cmpb   $0x0,-0x1c(%ebp)
 804950a:	79 34                	jns    8049540 <draw_character+0x52>
 804950c:	e8 df fe ff ff       	call   80493f0 <cli>
 8049511:	83 ec 0c             	sub    $0xc,%esp
 8049514:	8d 83 f8 c1 ff ff    	lea    -0x3e08(%ebx),%eax
 804951a:	50                   	push   %eax
 804951b:	8d 83 24 c2 ff ff    	lea    -0x3ddc(%ebx),%eax
 8049521:	50                   	push   %eax
 8049522:	6a 1a                	push   $0x1a
 8049524:	8d 83 09 c2 ff ff    	lea    -0x3df7(%ebx),%eax
 804952a:	50                   	push   %eax
 804952b:	8d 83 b0 c1 ff ff    	lea    -0x3e50(%ebx),%eax
 8049531:	50                   	push   %eax
 8049532:	e8 99 0e 00 00       	call   804a3d0 <printf>
 8049537:	83 c4 20             	add    $0x20,%esp
 804953a:	b8 01 00 00 00       	mov    $0x1,%eax
 804953f:	82 0f be             	orb    $0xbe,(%edi)
 8049542:	45                   	inc    %ebp
 8049543:	e4 8d                	in     $0x8d,%al
 8049545:	14 c5                	adc    $0xc5,%al
 8049547:	00 00                	add    %al,(%eax)
 8049549:	00 00                	add    %al,(%eax)
 804954b:	c7 c0 20 a0 05 08    	mov    $0x805a020,%eax
 8049551:	01 d0                	add    %edx,%eax
 8049553:	89 45 ec             	mov    %eax,-0x14(%ebp)
 8049556:	c7 45 f4 00 00 00 00 	movl   $0x0,-0xc(%ebp)
 804955d:	eb 55                	jmp    80495b4 <draw_character+0xc6>
 804955f:	c7 45 f0 00 00 00 00 	movl   $0x0,-0x10(%ebp)
 8049566:	eb 42                	jmp    80495aa <draw_character+0xbc>
 8049568:	8b 55 f4             	mov    -0xc(%ebp),%edx
 804956b:	8b 45 ec             	mov    -0x14(%ebp),%eax
 804956e:	01 d0                	add    %edx,%eax
 8049570:	0f b6 00             	movzbl (%eax),%eax
 8049573:	0f be d0             	movsbl %al,%edx
 8049576:	8b 45 f0             	mov    -0x10(%ebp),%eax
 8049579:	89 c1                	mov    %eax,%ecx
 804957b:	d3 fa                	sar    %cl,%edx
 804957d:	89 d0                	mov    %edx,%eax
 804957f:	83 e0 01             	and    $0x1,%eax
 8049582:	85 c0                	test   %eax,%eax
 8049584:	74 20                	je     80495a6 <draw_character+0xb8>
 8049586:	8b 55 10             	mov    0x10(%ebp),%edx
 8049589:	8b 45 f0             	mov    -0x10(%ebp),%eax
 804958c:	01 c2                	add    %eax,%edx
 804958e:	8b 4d 0c             	mov    0xc(%ebp),%ecx
 8049591:	8b 45 f4             	mov    -0xc(%ebp),%eax
 8049594:	01 c8                	add    %ecx,%eax
 8049596:	83 ec 04             	sub    $0x4,%esp
 8049599:	ff 75 14             	pushl  0x14(%ebp)
 804959c:	52                   	push   %edx
 804959d:	50                   	push   %eax
 804959e:	e8 5e fe ff ff       	call   8049401 <draw_pixel>
 80495a3:	83 c4 10             	add    $0x10,%esp
 80495a6:	83 45 f0 01          	addl   $0x1,-0x10(%ebp)
 80495aa:	83 7d f0 07          	cmpl   $0x7,-0x10(%ebp)
 80495ae:	7e b8                	jle    8049568 <draw_character+0x7a>
 80495b0:	83 45 f4 01          	addl   $0x1,-0xc(%ebp)
 80495b4:	83 7d f4 07          	cmpl   $0x7,-0xc(%ebp)
 80495b8:	7e a5                	jle    804955f <draw_character+0x71>
 80495ba:	90                   	nop
 80495bb:	8b 5d fc             	mov    -0x4(%ebp),%ebx
 80495be:	c9                   	leave  
 80495bf:	c3                   	ret    

080495c0 <draw_string>:
 80495c0:	55                   	push   %ebp
 80495c1:	89 e5                	mov    %esp,%ebp
 80495c3:	83 ec 08             	sub    $0x8,%esp
 80495c6:	e8 0f fb ff ff       	call   80490da <__x86.get_pc_thunk.ax>
 80495cb:	05 35 0a 01 00       	add    $0x10a35,%eax
 80495d0:	eb 3b                	jmp    804960d <draw_string+0x4d>
 80495d2:	8b 45 08             	mov    0x8(%ebp),%eax
 80495d5:	8d 50 01             	lea    0x1(%eax),%edx
 80495d8:	89 55 08             	mov    %edx,0x8(%ebp)
 80495db:	0f b6 00             	movzbl (%eax),%eax
 80495de:	0f be c0             	movsbl %al,%eax
 80495e1:	ff 75 14             	pushl  0x14(%ebp)
 80495e4:	ff 75 10             	pushl  0x10(%ebp)
 80495e7:	ff 75 0c             	pushl  0xc(%ebp)
 80495ea:	50                   	push   %eax
 80495eb:	e8 fe fe ff ff       	call   80494ee <draw_character>
 80495f0:	83 c4 10             	add    $0x10,%esp
 80495f3:	81 7d 10 37 01 00 00 	cmpl   $0x137,0x10(%ebp)
 80495fa:	7e 0d                	jle    8049609 <draw_string+0x49>
 80495fc:	83 45 0c 08          	addl   $0x8,0xc(%ebp)
 8049600:	c7 45 10 00 00 00 00 	movl   $0x0,0x10(%ebp)
 8049607:	eb 04                	jmp    804960d <draw_string+0x4d>
 8049609:	83 45 10 08          	addl   $0x8,0x10(%ebp)
 804960d:	8b 45 08             	mov    0x8(%ebp),%eax
 8049610:	0f b6 00             	movzbl (%eax),%eax
 8049613:	84 c0                	test   %al,%al
 8049615:	75 bb                	jne    80495d2 <draw_string+0x12>
 8049617:	90                   	nop
 8049618:	c9                   	leave  
 8049619:	c3                   	ret    

0804961a <in_byte>:
 804961a:	55                   	push   %ebp
 804961b:	89 e5                	mov    %esp,%ebp
 804961d:	83 ec 14             	sub    $0x14,%esp
 8049620:	e8 b5 fa ff ff       	call   80490da <__x86.get_pc_thunk.ax>
 8049625:	05 db 09 01 00       	add    $0x109db,%eax
 804962a:	8b 45 08             	mov    0x8(%ebp),%eax
 804962d:	66 89 45 ec          	mov    %ax,-0x14(%ebp)
 8049631:	0f b7 45 ec          	movzwl -0x14(%ebp),%eax
 8049635:	89 c2                	mov    %eax,%edx
 8049637:	ec                   	in     (%dx),%al
 8049638:	88 45 ff             	mov    %al,-0x1(%ebp)
 804963b:	0f b6 45 ff          	movzbl -0x1(%ebp),%eax
 804963f:	c9                   	leave  
 8049640:	c3                   	ret    

08049641 <out_byte>:
 8049641:	55                   	push   %ebp
 8049642:	89 e5                	mov    %esp,%ebp
 8049644:	83 ec 08             	sub    $0x8,%esp
 8049647:	e8 8e fa ff ff       	call   80490da <__x86.get_pc_thunk.ax>
 804964c:	05 b4 09 01 00       	add    $0x109b4,%eax
 8049651:	8b 45 08             	mov    0x8(%ebp),%eax
 8049654:	8b 55 0c             	mov    0xc(%ebp),%edx
 8049657:	66 89 45 fc          	mov    %ax,-0x4(%ebp)
 804965b:	89 d0                	mov    %edx,%eax
 804965d:	88 45 f8             	mov    %al,-0x8(%ebp)
 8049660:	0f b6 45 f8          	movzbl -0x8(%ebp),%eax
 8049664:	0f b7 55 fc          	movzwl -0x4(%ebp),%edx
 8049668:	ee                   	out    %al,(%dx)
 8049669:	90                   	nop
 804966a:	c9                   	leave  
 804966b:	c3                   	ret    

0804966c <write_palette>:
 804966c:	55                   	push   %ebp
 804966d:	89 e5                	mov    %esp,%ebp
 804966f:	83 ec 10             	sub    $0x10,%esp
 8049672:	e8 63 fa ff ff       	call   80490da <__x86.get_pc_thunk.ax>
 8049677:	05 89 09 01 00       	add    $0x10989,%eax
 804967c:	8b 45 08             	mov    0x8(%ebp),%eax
 804967f:	89 45 f8             	mov    %eax,-0x8(%ebp)
 8049682:	6a 00                	push   $0x0
 8049684:	68 c8 03 00 00       	push   $0x3c8
 8049689:	e8 b3 ff ff ff       	call   8049641 <out_byte>
 804968e:	83 c4 08             	add    $0x8,%esp
 8049691:	c7 45 fc 00 00 00 00 	movl   $0x0,-0x4(%ebp)
 8049698:	eb 78                	jmp    8049712 <write_palette+0xa6>
 804969a:	8b 45 fc             	mov    -0x4(%ebp),%eax
 804969d:	8d 14 85 00 00 00 00 	lea    0x0(,%eax,4),%edx
 80496a4:	8b 45 f8             	mov    -0x8(%ebp),%eax
 80496a7:	01 d0                	add    %edx,%eax
 80496a9:	0f b6 00             	movzbl (%eax),%eax
 80496ac:	c0 e8 02             	shr    $0x2,%al
 80496af:	0f be c0             	movsbl %al,%eax
 80496b2:	50                   	push   %eax
 80496b3:	68 c9 03 00 00       	push   $0x3c9
 80496b8:	e8 84 ff ff ff       	call   8049641 <out_byte>
 80496bd:	83 c4 08             	add    $0x8,%esp
 80496c0:	8b 45 fc             	mov    -0x4(%ebp),%eax
 80496c3:	8d 14 85 00 00 00 00 	lea    0x0(,%eax,4),%edx
 80496ca:	8b 45 f8             	mov    -0x8(%ebp),%eax
 80496cd:	01 d0                	add    %edx,%eax
 80496cf:	0f b6 40 01          	movzbl 0x1(%eax),%eax
 80496d3:	c0 e8 02             	shr    $0x2,%al
 80496d6:	0f be c0             	movsbl %al,%eax
 80496d9:	50                   	push   %eax
 80496da:	68 c9 03 00 00       	push   $0x3c9
 80496df:	e8 5d ff ff ff       	call   8049641 <out_byte>
 80496e4:	83 c4 08             	add    $0x8,%esp
 80496e7:	8b 45 fc             	mov    -0x4(%ebp),%eax
 80496ea:	8d 14 85 00 00 00 00 	lea    0x0(,%eax,4),%edx
 80496f1:	8b 45 f8             	mov    -0x8(%ebp),%eax
 80496f4:	01 d0                	add    %edx,%eax
 80496f6:	0f b6 40 02          	movzbl 0x2(%eax),%eax
 80496fa:	c0 e8 02             	shr    $0x2,%al
 80496fd:	0f be c0             	movsbl %al,%eax
 8049700:	50                   	push   %eax
 8049701:	68 c9 03 00 00       	push   $0x3c9
 8049706:	e8 36 ff ff ff       	call   8049641 <out_byte>
 804970b:	83 c4 08             	add    $0x8,%esp
 804970e:	83 45 fc 01          	addl   $0x1,-0x4(%ebp)
 8049712:	8b 45 fc             	mov    -0x4(%ebp),%eax
 8049715:	3b 45 0c             	cmp    0xc(%ebp),%eax
 8049718:	7c 80                	jl     804969a <write_palette+0x2e>
 804971a:	90                   	nop
 804971b:	c9                   	leave  
 804971c:	c3                   	ret    

0804971d <read_palette>:
 804971d:	55                   	push   %ebp
 804971e:	89 e5                	mov    %esp,%ebp
 8049720:	53                   	push   %ebx
 8049721:	83 ec 14             	sub    $0x14,%esp
 8049724:	e8 b5 f9 ff ff       	call   80490de <__x86.get_pc_thunk.bx>
 8049729:	81 c3 d7 08 01 00    	add    $0x108d7,%ebx
 804972f:	6a 00                	push   $0x0
 8049731:	68 c7 03 00 00       	push   $0x3c7
 8049736:	e8 06 ff ff ff       	call   8049641 <out_byte>
 804973b:	83 c4 08             	add    $0x8,%esp
 804973e:	c7 45 f4 00 00 00 00 	movl   $0x0,-0xc(%ebp)
 8049745:	eb 52                	jmp    8049799 <read_palette+0x7c>
 8049747:	68 c9 03 00 00       	push   $0x3c9
 804974c:	e8 c9 fe ff ff       	call   804961a <in_byte>
 8049751:	83 c4 04             	add    $0x4,%esp
 8049754:	88 45 f3             	mov    %al,-0xd(%ebp)
 8049757:	68 c9 03 00 00       	push   $0x3c9
 804975c:	e8 b9 fe ff ff       	call   804961a <in_byte>
 8049761:	83 c4 04             	add    $0x4,%esp
 8049764:	88 45 f2             	mov    %al,-0xe(%ebp)
 8049767:	68 c9 03 00 00       	push   $0x3c9
 804976c:	e8 a9 fe ff ff       	call   804961a <in_byte>
 8049771:	83 c4 04             	add    $0x4,%esp
 8049774:	88 45 f1             	mov    %al,-0xf(%ebp)
 8049777:	0f b6 4d f1          	movzbl -0xf(%ebp),%ecx
 804977b:	0f b6 55 f2          	movzbl -0xe(%ebp),%edx
 804977f:	0f b6 45 f3          	movzbl -0xd(%ebp),%eax
 8049783:	51                   	push   %ecx
 8049784:	52                   	push   %edx
 8049785:	50                   	push   %eax
 8049786:	8d 83 3f c2 ff ff    	lea    -0x3dc1(%ebx),%eax
 804978c:	50                   	push   %eax
 804978d:	e8 3e 0c 00 00       	call   804a3d0 <printf>
 8049792:	83 c4 10             	add    $0x10,%esp
 8049795:	83 45 f4 01          	addl   $0x1,-0xc(%ebp)
 8049799:	81 7d f4 ff 00 00 00 	cmpl   $0xff,-0xc(%ebp)
 80497a0:	7e a5                	jle    8049747 <read_palette+0x2a>
 80497a2:	90                   	nop
 80497a3:	8b 5d fc             	mov    -0x4(%ebp),%ebx
 80497a6:	c9                   	leave  
 80497a7:	c3                   	ret    

080497a8 <itoa>:
 80497a8:	55                   	push   %ebp
 80497a9:	89 e5                	mov    %esp,%ebp
 80497ab:	53                   	push   %ebx
 80497ac:	83 ec 04             	sub    $0x4,%esp
 80497af:	e8 2a f9 ff ff       	call   80490de <__x86.get_pc_thunk.bx>
 80497b4:	81 c3 4c 08 01 00    	add    $0x1084c,%ebx
 80497ba:	ff 75 08             	pushl  0x8(%ebp)
 80497bd:	8d 83 57 c2 ff ff    	lea    -0x3da9(%ebx),%eax
 80497c3:	50                   	push   %eax
 80497c4:	6a 1e                	push   $0x1e
 80497c6:	8d 83 00 08 01 00    	lea    0x10800(%ebx),%eax
 80497cc:	50                   	push   %eax
 80497cd:	e8 3e 0d 00 00       	call   804a510 <snprintf>
 80497d2:	83 c4 10             	add    $0x10,%esp
 80497d5:	8d 83 00 08 01 00    	lea    0x10800(%ebx),%eax
 80497db:	8b 5d fc             	mov    -0x4(%ebp),%ebx
 80497de:	c9                   	leave  
 80497df:	c3                   	ret    

080497e0 <redraw_screen>:
 80497e0:	55                   	push   %ebp
 80497e1:	89 e5                	mov    %esp,%ebp
 80497e3:	53                   	push   %ebx
 80497e4:	83 ec 24             	sub    $0x24,%esp
 80497e7:	e8 f2 f8 ff ff       	call   80490de <__x86.get_pc_thunk.bx>
 80497ec:	81 c3 14 08 01 00    	add    $0x10814,%ebx
 80497f2:	e8 96 fc ff ff       	call   804948d <prepare_buffer>
 80497f7:	e8 f5 07 00 00       	call   8049ff1 <characters>
 80497fc:	89 45 f4             	mov    %eax,-0xc(%ebp)
 80497ff:	eb 57                	jmp    8049858 <redraw_screen+0x78>
 8049801:	8b 45 f4             	mov    -0xc(%ebp),%eax
 8049804:	8b 40 08             	mov    0x8(%eax),%eax
 8049807:	83 c0 41             	add    $0x41,%eax
 804980a:	88 83 1e 08 01 00    	mov    %al,0x1081e(%ebx)
 8049810:	c6 83 1f 08 01 00 00 	movb   $0x0,0x1081f(%ebx)
 8049817:	8b 45 f4             	mov    -0xc(%ebp),%eax
 804981a:	8b 50 04             	mov    0x4(%eax),%edx
 804981d:	8b 45 f4             	mov    -0xc(%ebp),%eax
 8049820:	d9 00                	flds   (%eax)
 8049822:	d9 7d e6             	fnstcw -0x1a(%ebp)
 8049825:	0f b7 45 e6          	movzwl -0x1a(%ebp),%eax
 8049829:	80 cc 0c             	or     $0xc,%ah
 804982c:	66 89 45 e4          	mov    %ax,-0x1c(%ebp)
 8049830:	d9 6d e4             	fldcw  -0x1c(%ebp)
 8049833:	db 5d e0             	fistpl -0x20(%ebp)
 8049836:	d9 6d e6             	fldcw  -0x1a(%ebp)
 8049839:	8b 45 e0             	mov    -0x20(%ebp),%eax
 804983c:	6a 0f                	push   $0xf
 804983e:	52                   	push   %edx
 804983f:	50                   	push   %eax
 8049840:	8d 83 1e 08 01 00    	lea    0x1081e(%ebx),%eax
 8049846:	50                   	push   %eax
 8049847:	e8 74 fd ff ff       	call   80495c0 <draw_string>
 804984c:	83 c4 10             	add    $0x10,%esp
 804984f:	8b 45 f4             	mov    -0xc(%ebp),%eax
 8049852:	8b 40 14             	mov    0x14(%eax),%eax
 8049855:	89 45 f4             	mov    %eax,-0xc(%ebp)
 8049858:	83 7d f4 00          	cmpl   $0x0,-0xc(%ebp)
 804985c:	75 a3                	jne    8049801 <redraw_screen+0x21>
 804985e:	e8 3b 04 00 00       	call   8049c9e <last_key_code>
 8049863:	83 ec 0c             	sub    $0xc,%esp
 8049866:	50                   	push   %eax
 8049867:	e8 3c ff ff ff       	call   80497a8 <itoa>
 804986c:	83 c4 10             	add    $0x10,%esp
 804986f:	6a 30                	push   $0x30
 8049871:	6a 00                	push   $0x0
 8049873:	68 c0 00 00 00       	push   $0xc0
 8049878:	50                   	push   %eax
 8049879:	e8 42 fd ff ff       	call   80495c0 <draw_string>
 804987e:	83 c4 10             	add    $0x10,%esp
 8049881:	e8 41 07 00 00       	call   8049fc7 <get_hit>
 8049886:	83 ec 0c             	sub    $0xc,%esp
 8049889:	50                   	push   %eax
 804988a:	e8 19 ff ff ff       	call   80497a8 <itoa>
 804988f:	83 c4 10             	add    $0x10,%esp
 8049892:	89 45 f0             	mov    %eax,-0x10(%ebp)
 8049895:	83 ec 0c             	sub    $0xc,%esp
 8049898:	ff 75 f0             	pushl  -0x10(%ebp)
 804989b:	e8 10 0d 00 00       	call   804a5b0 <strlen>
 80498a0:	83 c4 10             	add    $0x10,%esp
 80498a3:	89 c2                	mov    %eax,%edx
 80498a5:	b8 00 00 00 00       	mov    $0x0,%eax
 80498aa:	29 d0                	sub    %edx,%eax
 80498ac:	c1 e0 03             	shl    $0x3,%eax
 80498af:	05 40 01 00 00       	add    $0x140,%eax
 80498b4:	6a 0a                	push   $0xa
 80498b6:	50                   	push   %eax
 80498b7:	6a 00                	push   $0x0
 80498b9:	ff 75 f0             	pushl  -0x10(%ebp)
 80498bc:	e8 ff fc ff ff       	call   80495c0 <draw_string>
 80498c1:	83 c4 10             	add    $0x10,%esp
 80498c4:	e8 13 07 00 00       	call   8049fdc <get_miss>
 80498c9:	83 ec 0c             	sub    $0xc,%esp
 80498cc:	50                   	push   %eax
 80498cd:	e8 d6 fe ff ff       	call   80497a8 <itoa>
 80498d2:	83 c4 10             	add    $0x10,%esp
 80498d5:	89 45 ec             	mov    %eax,-0x14(%ebp)
 80498d8:	83 ec 0c             	sub    $0xc,%esp
 80498db:	ff 75 ec             	pushl  -0x14(%ebp)
 80498de:	e8 cd 0c 00 00       	call   804a5b0 <strlen>
 80498e3:	83 c4 10             	add    $0x10,%esp
 80498e6:	89 c2                	mov    %eax,%edx
 80498e8:	b8 00 00 00 00       	mov    $0x0,%eax
 80498ed:	29 d0                	sub    %edx,%eax
 80498ef:	c1 e0 03             	shl    $0x3,%eax
 80498f2:	05 40 01 00 00       	add    $0x140,%eax
 80498f7:	6a 0c                	push   $0xc
 80498f9:	50                   	push   %eax
 80498fa:	68 c0 00 00 00       	push   $0xc0
 80498ff:	ff 75 ec             	pushl  -0x14(%ebp)
 8049902:	e8 b9 fc ff ff       	call   80495c0 <draw_string>
 8049907:	83 c4 10             	add    $0x10,%esp
 804990a:	e8 c5 00 00 00       	call   80499d4 <get_fps>
 804990f:	83 ec 0c             	sub    $0xc,%esp
 8049912:	50                   	push   %eax
 8049913:	e8 90 fe ff ff       	call   80497a8 <itoa>
 8049918:	83 c4 10             	add    $0x10,%esp
 804991b:	6a 0e                	push   $0xe
 804991d:	6a 00                	push   $0x0
 804991f:	6a 00                	push   $0x0
 8049921:	50                   	push   %eax
 8049922:	e8 99 fc ff ff       	call   80495c0 <draw_string>
 8049927:	83 c4 10             	add    $0x10,%esp
 804992a:	e8 a5 00 00 00       	call   80499d4 <get_fps>
 804992f:	83 ec 0c             	sub    $0xc,%esp
 8049932:	50                   	push   %eax
 8049933:	e8 70 fe ff ff       	call   80497a8 <itoa>
 8049938:	83 c4 10             	add    $0x10,%esp
 804993b:	83 ec 0c             	sub    $0xc,%esp
 804993e:	50                   	push   %eax
 804993f:	e8 6c 0c 00 00       	call   804a5b0 <strlen>
 8049944:	83 c4 10             	add    $0x10,%esp
 8049947:	c1 e0 03             	shl    $0x3,%eax
 804994a:	6a 0e                	push   $0xe
 804994c:	50                   	push   %eax
 804994d:	6a 00                	push   $0x0
 804994f:	8d 83 5a c2 ff ff    	lea    -0x3da6(%ebx),%eax
 8049955:	50                   	push   %eax
 8049956:	e8 65 fc ff ff       	call   80495c0 <draw_string>
 804995b:	83 c4 10             	add    $0x10,%esp
 804995e:	e8 5c fb ff ff       	call   80494bf <display_buffer>
 8049963:	90                   	nop
 8049964:	8b 5d fc             	mov    -0x4(%ebp),%ebx
 8049967:	c9                   	leave  
 8049968:	c3                   	ret    

08049969 <sti>:
 8049969:	55                   	push   %ebp
 804996a:	89 e5                	mov    %esp,%ebp
 804996c:	e8 69 f7 ff ff       	call   80490da <__x86.get_pc_thunk.ax>
 8049971:	05 8f 06 01 00       	add    $0x1068f,%eax
 8049976:	fb                   	sti    
 8049977:	90                   	nop
 8049978:	5d                   	pop    %ebp
 8049979:	c3                   	ret    

0804997a <cli>:
 804997a:	55                   	push   %ebp
 804997b:	89 e5                	mov    %esp,%ebp
 804997d:	e8 58 f7 ff ff       	call   80490da <__x86.get_pc_thunk.ax>
 8049982:	05 7e 06 01 00       	add    $0x1067e,%eax
 8049987:	fa                   	cli    
 8049988:	90                   	nop
 8049989:	5d                   	pop    %ebp
 804998a:	c3                   	ret    

0804998b <wait_intr>:
 804998b:	55                   	push   %ebp
 804998c:	89 e5                	mov    %esp,%ebp
 804998e:	e8 47 f7 ff ff       	call   80490da <__x86.get_pc_thunk.ax>
 8049993:	05 6d 06 01 00       	add    $0x1066d,%eax
 8049998:	f4                   	hlt    
 8049999:	90                   	nop
 804999a:	5d                   	pop    %ebp
 804999b:	c3                   	ret    

0804999c <timer_event>:
 804999c:	55                   	push   %ebp
 804999d:	89 e5                	mov    %esp,%ebp
 804999f:	e8 36 f7 ff ff       	call   80490da <__x86.get_pc_thunk.ax>
 80499a4:	05 5c 06 01 00       	add    $0x1065c,%eax
 80499a9:	8b 90 20 08 01 00    	mov    0x10820(%eax),%edx
 80499af:	83 c2 01             	add    $0x1,%edx
 80499b2:	89 90 20 08 01 00    	mov    %edx,0x10820(%eax)
 80499b8:	90                   	nop
 80499b9:	5d                   	pop    %ebp
 80499ba:	c3                   	ret    

080499bb <set_fps>:
 80499bb:	55                   	push   %ebp
 80499bc:	89 e5                	mov    %esp,%ebp
 80499be:	e8 17 f7 ff ff       	call   80490da <__x86.get_pc_thunk.ax>
 80499c3:	05 3d 06 01 00       	add    $0x1063d,%eax
 80499c8:	8b 55 08             	mov    0x8(%ebp),%edx
 80499cb:	89 90 24 08 01 00    	mov    %edx,0x10824(%eax)
 80499d1:	90                   	nop
 80499d2:	5d                   	pop    %ebp
 80499d3:	c3                   	ret    

080499d4 <get_fps>:
 80499d4:	55                   	push   %ebp
 80499d5:	89 e5                	mov    %esp,%ebp
 80499d7:	e8 fe f6 ff ff       	call   80490da <__x86.get_pc_thunk.ax>
 80499dc:	05 24 06 01 00       	add    $0x10624,%eax
 80499e1:	8b 80 24 08 01 00    	mov    0x10824(%eax),%eax
 80499e7:	5d                   	pop    %ebp
 80499e8:	c3                   	ret    

080499e9 <main_loop>:
 80499e9:	55                   	push   %ebp
 80499ea:	89 e5                	mov    %esp,%ebp
 80499ec:	53                   	push   %ebx
 80499ed:	83 ec 24             	sub    $0x24,%esp
 80499f0:	e8 e9 f6 ff ff       	call   80490de <__x86.get_pc_thunk.bx>
 80499f5:	81 c3 0b 06 01 00    	add    $0x1060b,%ebx
 80499fb:	c7 45 f4 00 00 00 00 	movl   $0x0,-0xc(%ebp)
 8049a02:	c7 45 f0 00 00 00 00 	movl   $0x0,-0x10(%ebp)
 8049a09:	e8 7d ff ff ff       	call   804998b <wait_intr>
 8049a0e:	e8 67 ff ff ff       	call   804997a <cli>
 8049a13:	8b 83 20 08 01 00    	mov    0x10820(%ebx),%eax
 8049a19:	39 45 f4             	cmp    %eax,-0xc(%ebp)
 8049a1c:	75 0a                	jne    8049a28 <main_loop+0x3f>
 8049a1e:	e8 46 ff ff ff       	call   8049969 <sti>
 8049a23:	e9 2b 01 00 00       	jmp    8049b53 <main_loop+0x16a>
 8049a28:	8b 83 20 08 01 00    	mov    0x10820(%ebx),%eax
 8049a2e:	39 45 f4             	cmp    %eax,-0xc(%ebp)
 8049a31:	7c 34                	jl     8049a67 <main_loop+0x7e>
 8049a33:	e8 42 ff ff ff       	call   804997a <cli>
 8049a38:	83 ec 0c             	sub    $0xc,%esp
 8049a3b:	8d 83 60 c2 ff ff    	lea    -0x3da0(%ebx),%eax
 8049a41:	50                   	push   %eax
 8049a42:	8d 83 c8 c2 ff ff    	lea    -0x3d38(%ebx),%eax
 8049a48:	50                   	push   %eax
 8049a49:	6a 33                	push   $0x33
 8049a4b:	8d 83 6b c2 ff ff    	lea    -0x3d95(%ebx),%eax
 8049a51:	50                   	push   %eax
 8049a52:	8d 83 80 c2 ff ff    	lea    -0x3d80(%ebx),%eax
 8049a58:	50                   	push   %eax
 8049a59:	e8 72 09 00 00       	call   804a3d0 <printf>
 8049a5e:	83 c4 20             	add    $0x20,%esp
 8049a61:	b8 01 00 00 00       	mov    $0x1,%eax
 8049a66:	82 8b 83 20 08 01 00 	orb    $0x0,0x1082083(%ebx)
 8049a6d:	89 45 e4             	mov    %eax,-0x1c(%ebp)
 8049a70:	e8 f4 fe ff ff       	call   8049969 <sti>
 8049a75:	c6 45 ef 00          	movb   $0x0,-0x11(%ebp)
 8049a79:	90                   	nop
 8049a7a:	e8 8c 07 00 00       	call   804a20b <update_keypress>
 8049a7f:	84 c0                	test   %al,%al
 8049a81:	75 f7                	jne    8049a7a <main_loop+0x91>
 8049a83:	e9 ac 00 00 00       	jmp    8049b34 <main_loop+0x14b>
 8049a88:	8b 4d f4             	mov    -0xc(%ebp),%ecx
 8049a8b:	ba e1 83 0f 3e       	mov    $0x3e0f83e1,%edx
 8049a90:	89 c8                	mov    %ecx,%eax
 8049a92:	f7 ea                	imul   %edx
 8049a94:	c1 fa 03             	sar    $0x3,%edx
 8049a97:	89 c8                	mov    %ecx,%eax
 8049a99:	c1 f8 1f             	sar    $0x1f,%eax
 8049a9c:	29 c2                	sub    %eax,%edx
 8049a9e:	89 d0                	mov    %edx,%eax
 8049aa0:	89 c2                	mov    %eax,%edx
 8049aa2:	c1 e2 05             	shl    $0x5,%edx
 8049aa5:	01 c2                	add    %eax,%edx
 8049aa7:	89 c8                	mov    %ecx,%eax
 8049aa9:	29 d0                	sub    %edx,%eax
 8049aab:	85 c0                	test   %eax,%eax
 8049aad:	75 05                	jne    8049ab4 <main_loop+0xcb>
 8049aaf:	e8 52 05 00 00       	call   804a006 <create_new_letter>
 8049ab4:	e8 7c 06 00 00       	call   804a135 <update_letter_pos>
 8049ab9:	8b 4d f4             	mov    -0xc(%ebp),%ecx
 8049abc:	ba 56 55 55 55       	mov    $0x55555556,%edx
 8049ac1:	89 c8                	mov    %ecx,%eax
 8049ac3:	f7 ea                	imul   %edx
 8049ac5:	89 c8                	mov    %ecx,%eax
 8049ac7:	c1 f8 1f             	sar    $0x1f,%eax
 8049aca:	29 c2                	sub    %eax,%edx
 8049acc:	89 d0                	mov    %edx,%eax
 8049ace:	89 c2                	mov    %eax,%edx
 8049ad0:	01 d2                	add    %edx,%edx
 8049ad2:	01 c2                	add    %eax,%edx
 8049ad4:	89 c8                	mov    %ecx,%eax
 8049ad6:	29 d0                	sub    %edx,%eax
 8049ad8:	85 c0                	test   %eax,%eax
 8049ada:	75 04                	jne    8049ae0 <main_loop+0xf7>
 8049adc:	c6 45 ef 01          	movb   $0x1,-0x11(%ebp)
 8049ae0:	8b 4d f4             	mov    -0xc(%ebp),%ecx
 8049ae3:	ba 1f 85 eb 51       	mov    $0x51eb851f,%edx
 8049ae8:	89 c8                	mov    %ecx,%eax
 8049aea:	f7 ea                	imul   %edx
 8049aec:	c1 fa 04             	sar    $0x4,%edx
 8049aef:	89 c8                	mov    %ecx,%eax
 8049af1:	c1 f8 1f             	sar    $0x1f,%eax
 8049af4:	29 c2                	sub    %eax,%edx
 8049af6:	89 d0                	mov    %edx,%eax
 8049af8:	6b c0 32             	imul   $0x32,%eax,%eax
 8049afb:	29 c1                	sub    %eax,%ecx
 8049afd:	89 c8                	mov    %ecx,%eax
 8049aff:	85 c0                	test   %eax,%eax
 8049b01:	75 2d                	jne    8049b30 <main_loop+0x147>
 8049b03:	8b 45 f0             	mov    -0x10(%ebp),%eax
 8049b06:	01 c0                	add    %eax,%eax
 8049b08:	83 c0 01             	add    $0x1,%eax
 8049b0b:	89 45 e8             	mov    %eax,-0x18(%ebp)
 8049b0e:	83 7d e8 1e          	cmpl   $0x1e,-0x18(%ebp)
 8049b12:	7e 07                	jle    8049b1b <main_loop+0x132>
 8049b14:	c7 45 e8 1e 00 00 00 	movl   $0x1e,-0x18(%ebp)
 8049b1b:	83 ec 0c             	sub    $0xc,%esp
 8049b1e:	ff 75 e8             	pushl  -0x18(%ebp)
 8049b21:	e8 95 fe ff ff       	call   80499bb <set_fps>
 8049b26:	83 c4 10             	add    $0x10,%esp
 8049b29:	c7 45 f0 00 00 00 00 	movl   $0x0,-0x10(%ebp)
 8049b30:	83 45 f4 01          	addl   $0x1,-0xc(%ebp)
 8049b34:	8b 45 f4             	mov    -0xc(%ebp),%eax
 8049b37:	3b 45 e4             	cmp    -0x1c(%ebp),%eax
 8049b3a:	0f 8c 48 ff ff ff    	jl     8049a88 <main_loop+0x9f>
 8049b40:	80 7d ef 00          	cmpb   $0x0,-0x11(%ebp)
 8049b44:	0f 84 bf fe ff ff    	je     8049a09 <main_loop+0x20>
 8049b4a:	83 45 f0 01          	addl   $0x1,-0x10(%ebp)
 8049b4e:	e8 8d fc ff ff       	call   80497e0 <redraw_screen>
 8049b53:	e9 b1 fe ff ff       	jmp    8049a09 <main_loop+0x20>

08049b58 <in_byte>:
 8049b58:	55                   	push   %ebp
 8049b59:	89 e5                	mov    %esp,%ebp
 8049b5b:	83 ec 14             	sub    $0x14,%esp
 8049b5e:	e8 77 f5 ff ff       	call   80490da <__x86.get_pc_thunk.ax>
 8049b63:	05 9d 04 01 00       	add    $0x1049d,%eax
 8049b68:	8b 45 08             	mov    0x8(%ebp),%eax
 8049b6b:	66 89 45 ec          	mov    %ax,-0x14(%ebp)
 8049b6f:	0f b7 45 ec          	movzwl -0x14(%ebp),%eax
 8049b73:	89 c2                	mov    %eax,%edx
 8049b75:	ec                   	in     (%dx),%al
 8049b76:	88 45 ff             	mov    %al,-0x1(%ebp)
 8049b79:	0f b6 45 ff          	movzbl -0x1(%ebp),%eax
 8049b7d:	c9                   	leave  
 8049b7e:	c3                   	ret    

08049b7f <cli>:
 8049b7f:	55                   	push   %ebp
 8049b80:	89 e5                	mov    %esp,%ebp
 8049b82:	e8 53 f5 ff ff       	call   80490da <__x86.get_pc_thunk.ax>
 8049b87:	05 79 04 01 00       	add    $0x10479,%eax
 8049b8c:	fa                   	cli    
 8049b8d:	90                   	nop
 8049b8e:	5d                   	pop    %ebp
 8049b8f:	c3                   	ret    

08049b90 <press_key>:
 8049b90:	55                   	push   %ebp
 8049b91:	89 e5                	mov    %esp,%ebp
 8049b93:	83 ec 10             	sub    $0x10,%esp
 8049b96:	e8 3f f5 ff ff       	call   80490da <__x86.get_pc_thunk.ax>
 8049b9b:	05 65 04 01 00       	add    $0x10465,%eax
 8049ba0:	c7 45 fc 00 00 00 00 	movl   $0x0,-0x4(%ebp)
 8049ba7:	eb 21                	jmp    8049bca <press_key+0x3a>
 8049ba9:	8b 55 fc             	mov    -0x4(%ebp),%edx
 8049bac:	8b 94 90 40 04 00 00 	mov    0x440(%eax,%edx,4),%edx
 8049bb3:	39 55 08             	cmp    %edx,0x8(%ebp)
 8049bb6:	75 0e                	jne    8049bc6 <press_key+0x36>
 8049bb8:	8d 88 28 08 01 00    	lea    0x10828(%eax),%ecx
 8049bbe:	8b 55 fc             	mov    -0x4(%ebp),%edx
 8049bc1:	01 ca                	add    %ecx,%edx
 8049bc3:	c6 02 01             	movb   $0x1,(%edx)
 8049bc6:	83 45 fc 01          	addl   $0x1,-0x4(%ebp)
 8049bca:	83 7d fc 19          	cmpl   $0x19,-0x4(%ebp)
 8049bce:	7e d9                	jle    8049ba9 <press_key+0x19>
 8049bd0:	90                   	nop
 8049bd1:	c9                   	leave  
 8049bd2:	c3                   	ret    

08049bd3 <release_key>:
 8049bd3:	55                   	push   %ebp
 8049bd4:	89 e5                	mov    %esp,%ebp
 8049bd6:	53                   	push   %ebx
 8049bd7:	83 ec 04             	sub    $0x4,%esp
 8049bda:	e8 ff f4 ff ff       	call   80490de <__x86.get_pc_thunk.bx>
 8049bdf:	81 c3 21 04 01 00    	add    $0x10421,%ebx
 8049be5:	83 7d 08 00          	cmpl   $0x0,0x8(%ebp)
 8049be9:	78 06                	js     8049bf1 <release_key+0x1e>
 8049beb:	83 7d 08 19          	cmpl   $0x19,0x8(%ebp)
 8049bef:	7e 34                	jle    8049c25 <release_key+0x52>
 8049bf1:	e8 89 ff ff ff       	call   8049b7f <cli>
 8049bf6:	83 ec 0c             	sub    $0xc,%esp
 8049bf9:	8d 83 d4 c2 ff ff    	lea    -0x3d2c(%ebx),%eax
 8049bff:	50                   	push   %eax
 8049c00:	8d 83 4c c3 ff ff    	lea    -0x3cb4(%ebx),%eax
 8049c06:	50                   	push   %eax
 8049c07:	6a 1a                	push   $0x1a
 8049c09:	8d 83 ed c2 ff ff    	lea    -0x3d13(%ebx),%eax
 8049c0f:	50                   	push   %eax
 8049c10:	8d 83 04 c3 ff ff    	lea    -0x3cfc(%ebx),%eax
 8049c16:	50                   	push   %eax
 8049c17:	e8 b4 07 00 00       	call   804a3d0 <printf>
 8049c1c:	83 c4 20             	add    $0x20,%esp
 8049c1f:	b8 01 00 00 00       	mov    $0x1,%eax
 8049c24:	82 8d 93 28 08 01 00 	orb    $0x0,0x1082893(%ebp)
 8049c2b:	8b 45 08             	mov    0x8(%ebp),%eax
 8049c2e:	01 d0                	add    %edx,%eax
 8049c30:	c6 00 00             	movb   $0x0,(%eax)
 8049c33:	90                   	nop
 8049c34:	8b 5d fc             	mov    -0x4(%ebp),%ebx
 8049c37:	c9                   	leave  
 8049c38:	c3                   	ret    

08049c39 <query_key>:
 8049c39:	55                   	push   %ebp
 8049c3a:	89 e5                	mov    %esp,%ebp
 8049c3c:	53                   	push   %ebx
 8049c3d:	83 ec 04             	sub    $0x4,%esp
 8049c40:	e8 99 f4 ff ff       	call   80490de <__x86.get_pc_thunk.bx>
 8049c45:	81 c3 bb 03 01 00    	add    $0x103bb,%ebx
 8049c4b:	83 7d 08 00          	cmpl   $0x0,0x8(%ebp)
 8049c4f:	78 06                	js     8049c57 <query_key+0x1e>
 8049c51:	83 7d 08 19          	cmpl   $0x19,0x8(%ebp)
 8049c55:	7e 34                	jle    8049c8b <query_key+0x52>
 8049c57:	e8 23 ff ff ff       	call   8049b7f <cli>
 8049c5c:	83 ec 0c             	sub    $0xc,%esp
 8049c5f:	8d 83 d4 c2 ff ff    	lea    -0x3d2c(%ebx),%eax
 8049c65:	50                   	push   %eax
 8049c66:	8d 83 58 c3 ff ff    	lea    -0x3ca8(%ebx),%eax
 8049c6c:	50                   	push   %eax
 8049c6d:	6a 20                	push   $0x20
 8049c6f:	8d 83 ed c2 ff ff    	lea    -0x3d13(%ebx),%eax
 8049c75:	50                   	push   %eax
 8049c76:	8d 83 04 c3 ff ff    	lea    -0x3cfc(%ebx),%eax
 8049c7c:	50                   	push   %eax
 8049c7d:	e8 4e 07 00 00       	call   804a3d0 <printf>
 8049c82:	83 c4 20             	add    $0x20,%esp
 8049c85:	b8 01 00 00 00       	mov    $0x1,%eax
 8049c8a:	82 8d 93 28 08 01 00 	orb    $0x0,0x1082893(%ebp)
 8049c91:	8b 45 08             	mov    0x8(%ebp),%eax
 8049c94:	01 d0                	add    %edx,%eax
 8049c96:	0f b6 00             	movzbl (%eax),%eax
 8049c99:	8b 5d fc             	mov    -0x4(%ebp),%ebx
 8049c9c:	c9                   	leave  
 8049c9d:	c3                   	ret    

08049c9e <last_key_code>:
 8049c9e:	55                   	push   %ebp
 8049c9f:	89 e5                	mov    %esp,%ebp
 8049ca1:	e8 34 f4 ff ff       	call   80490da <__x86.get_pc_thunk.ax>
 8049ca6:	05 5a 03 01 00       	add    $0x1035a,%eax
 8049cab:	8b 80 44 08 01 00    	mov    0x10844(%eax),%eax
 8049cb1:	5d                   	pop    %ebp
 8049cb2:	c3                   	ret    

08049cb3 <keyboard_event>:
 8049cb3:	55                   	push   %ebp
 8049cb4:	89 e5                	mov    %esp,%ebp
 8049cb6:	53                   	push   %ebx
 8049cb7:	e8 22 f4 ff ff       	call   80490de <__x86.get_pc_thunk.bx>
 8049cbc:	81 c3 44 03 01 00    	add    $0x10344,%ebx
 8049cc2:	6a 60                	push   $0x60
 8049cc4:	e8 8f fe ff ff       	call   8049b58 <in_byte>
 8049cc9:	83 c4 04             	add    $0x4,%esp
 8049ccc:	0f b6 c0             	movzbl %al,%eax
 8049ccf:	89 83 44 08 01 00    	mov    %eax,0x10844(%ebx)
 8049cd5:	8b 83 44 08 01 00    	mov    0x10844(%ebx),%eax
 8049cdb:	50                   	push   %eax
 8049cdc:	e8 af fe ff ff       	call   8049b90 <press_key>
 8049ce1:	83 c4 04             	add    $0x4,%esp
 8049ce4:	90                   	nop
 8049ce5:	8b 5d fc             	mov    -0x4(%ebp),%ebx
 8049ce8:	c9                   	leave  
 8049ce9:	c3                   	ret    

08049cea <sti>:
 8049cea:	55                   	push   %ebp
 8049ceb:	89 e5                	mov    %esp,%ebp
 8049ced:	e8 e8 f3 ff ff       	call   80490da <__x86.get_pc_thunk.ax>
 8049cf2:	05 0e 03 01 00       	add    $0x1030e,%eax
 8049cf7:	fb                   	sti    
 8049cf8:	90                   	nop
 8049cf9:	5d                   	pop    %ebp
 8049cfa:	c3                   	ret    

08049cfb <cli>:
 8049cfb:	55                   	push   %ebp
 8049cfc:	89 e5                	mov    %esp,%ebp
 8049cfe:	e8 d7 f3 ff ff       	call   80490da <__x86.get_pc_thunk.ax>
 8049d03:	05 fd 02 01 00       	add    $0x102fd,%eax
 8049d08:	fa                   	cli    
 8049d09:	90                   	nop
 8049d0a:	5d                   	pop    %ebp
 8049d0b:	c3                   	ret    

08049d0c <fly_new>:
 8049d0c:	55                   	push   %ebp
 8049d0d:	89 e5                	mov    %esp,%ebp
 8049d0f:	53                   	push   %ebx
 8049d10:	83 ec 14             	sub    $0x14,%esp
 8049d13:	e8 c6 f3 ff ff       	call   80490de <__x86.get_pc_thunk.bx>
 8049d18:	81 c3 e8 02 01 00    	add    $0x102e8,%ebx
 8049d1e:	8b 83 38 66 01 00    	mov    0x16638(%ebx),%eax
 8049d24:	89 45 f4             	mov    %eax,-0xc(%ebp)
 8049d27:	8d 83 60 08 01 00    	lea    0x10860(%ebx),%eax
 8049d2d:	89 45 ec             	mov    %eax,-0x14(%ebp)
 8049d30:	83 7d f4 00          	cmpl   $0x0,-0xc(%ebp)
 8049d34:	75 46                	jne    8049d7c <fly_new+0x70>
 8049d36:	c7 45 f0 01 00 00 00 	movl   $0x1,-0x10(%ebp)
 8049d3d:	eb 2e                	jmp    8049d6d <fly_new+0x61>
 8049d3f:	8b 55 f0             	mov    -0x10(%ebp),%edx
 8049d42:	89 d0                	mov    %edx,%eax
 8049d44:	01 c0                	add    %eax,%eax
 8049d46:	01 d0                	add    %edx,%eax
 8049d48:	c1 e0 03             	shl    $0x3,%eax
 8049d4b:	89 c1                	mov    %eax,%ecx
 8049d4d:	8b 55 f0             	mov    -0x10(%ebp),%edx
 8049d50:	89 d0                	mov    %edx,%eax
 8049d52:	01 c0                	add    %eax,%eax
 8049d54:	01 d0                	add    %edx,%eax
 8049d56:	c1 e0 03             	shl    $0x3,%eax
 8049d59:	8d 50 e8             	lea    -0x18(%eax),%edx
 8049d5c:	8b 45 ec             	mov    -0x14(%ebp),%eax
 8049d5f:	01 d0                	add    %edx,%eax
 8049d61:	8b 55 ec             	mov    -0x14(%ebp),%edx
 8049d64:	01 ca                	add    %ecx,%edx
 8049d66:	89 50 14             	mov    %edx,0x14(%eax)
 8049d69:	83 45 f0 01          	addl   $0x1,-0x10(%ebp)
 8049d6d:	81 7d f0 e8 03 00 00 	cmpl   $0x3e8,-0x10(%ebp)
 8049d74:	7e c9                	jle    8049d3f <fly_new+0x33>
 8049d76:	8b 45 ec             	mov    -0x14(%ebp),%eax
 8049d79:	89 45 f4             	mov    %eax,-0xc(%ebp)
 8049d7c:	8b 45 f4             	mov    -0xc(%ebp),%eax
 8049d7f:	8b 40 14             	mov    0x14(%eax),%eax
 8049d82:	85 c0                	test   %eax,%eax
 8049d84:	75 34                	jne    8049dba <fly_new+0xae>
 8049d86:	e8 70 ff ff ff       	call   8049cfb <cli>
 8049d8b:	83 ec 0c             	sub    $0xc,%esp
 8049d8e:	8d 83 68 c3 ff ff    	lea    -0x3c98(%ebx),%eax
 8049d94:	50                   	push   %eax
 8049d95:	8d 83 2c c4 ff ff    	lea    -0x3bd4(%ebx),%eax
 8049d9b:	50                   	push   %eax
 8049d9c:	6a 0b                	push   $0xb
 8049d9e:	8d 83 81 c3 ff ff    	lea    -0x3c7f(%ebx),%eax
 8049da4:	50                   	push   %eax
 8049da5:	8d 83 98 c3 ff ff    	lea    -0x3c68(%ebx),%eax
 8049dab:	50                   	push   %eax
 8049dac:	e8 1f 06 00 00       	call   804a3d0 <printf>
 8049db1:	83 c4 20             	add    $0x20,%esp
 8049db4:	b8 01 00 00 00       	mov    $0x1,%eax
 8049db9:	82 8b 45 f4 89 45 e8 	orb    $0xe8,0x4589f445(%ebx)
 8049dc0:	8b 45 f4             	mov    -0xc(%ebp),%eax
 8049dc3:	8b 40 14             	mov    0x14(%eax),%eax
 8049dc6:	89 83 38 66 01 00    	mov    %eax,0x16638(%ebx)
 8049dcc:	8b 45 e8             	mov    -0x18(%ebp),%eax
 8049dcf:	c7 40 14 00 00 00 00 	movl   $0x0,0x14(%eax)
 8049dd6:	8b 45 e8             	mov    -0x18(%ebp),%eax
 8049dd9:	8b 50 14             	mov    0x14(%eax),%edx
 8049ddc:	8b 45 e8             	mov    -0x18(%ebp),%eax
 8049ddf:	89 50 10             	mov    %edx,0x10(%eax)
 8049de2:	8b 45 e8             	mov    -0x18(%ebp),%eax
 8049de5:	8b 5d fc             	mov    -0x4(%ebp),%ebx
 8049de8:	c9                   	leave  
 8049de9:	c3                   	ret    

08049dea <fly_prev>:
 8049dea:	55                   	push   %ebp
 8049deb:	89 e5                	mov    %esp,%ebp
 8049ded:	53                   	push   %ebx
 8049dee:	83 ec 04             	sub    $0x4,%esp
 8049df1:	e8 e8 f2 ff ff       	call   80490de <__x86.get_pc_thunk.bx>
 8049df6:	81 c3 0a 02 01 00    	add    $0x1020a,%ebx
 8049dfc:	83 7d 08 00          	cmpl   $0x0,0x8(%ebp)
 8049e00:	75 34                	jne    8049e36 <fly_prev+0x4c>
 8049e02:	e8 f4 fe ff ff       	call   8049cfb <cli>
 8049e07:	83 ec 0c             	sub    $0xc,%esp
 8049e0a:	8d 83 e0 c3 ff ff    	lea    -0x3c20(%ebx),%eax
 8049e10:	50                   	push   %eax
 8049e11:	8d 83 34 c4 ff ff    	lea    -0x3bcc(%ebx),%eax
 8049e17:	50                   	push   %eax
 8049e18:	6a 0b                	push   $0xb
 8049e1a:	8d 83 81 c3 ff ff    	lea    -0x3c7f(%ebx),%eax
 8049e20:	50                   	push   %eax
 8049e21:	8d 83 98 c3 ff ff    	lea    -0x3c68(%ebx),%eax
 8049e27:	50                   	push   %eax
 8049e28:	e8 a3 05 00 00       	call   804a3d0 <printf>
 8049e2d:	83 c4 20             	add    $0x20,%esp
 8049e30:	b8 01 00 00 00       	mov    $0x1,%eax
 8049e35:	82 8b 45 08 8b 40 10 	orb    $0x10,0x408b0845(%ebx)
 8049e3c:	8b 5d fc             	mov    -0x4(%ebp),%ebx
 8049e3f:	c9                   	leave  
 8049e40:	c3                   	ret    

08049e41 <fly_next>:
 8049e41:	55                   	push   %ebp
 8049e42:	89 e5                	mov    %esp,%ebp
 8049e44:	53                   	push   %ebx
 8049e45:	83 ec 04             	sub    $0x4,%esp
 8049e48:	e8 91 f2 ff ff       	call   80490de <__x86.get_pc_thunk.bx>
 8049e4d:	81 c3 b3 01 01 00    	add    $0x101b3,%ebx
 8049e53:	83 7d 08 00          	cmpl   $0x0,0x8(%ebp)
 8049e57:	75 34                	jne    8049e8d <fly_next+0x4c>
 8049e59:	e8 9d fe ff ff       	call   8049cfb <cli>
 8049e5e:	83 ec 0c             	sub    $0xc,%esp
 8049e61:	8d 83 e0 c3 ff ff    	lea    -0x3c20(%ebx),%eax
 8049e67:	50                   	push   %eax
 8049e68:	8d 83 40 c4 ff ff    	lea    -0x3bc0(%ebx),%eax
 8049e6e:	50                   	push   %eax
 8049e6f:	6a 0b                	push   $0xb
 8049e71:	8d 83 81 c3 ff ff    	lea    -0x3c7f(%ebx),%eax
 8049e77:	50                   	push   %eax
 8049e78:	8d 83 98 c3 ff ff    	lea    -0x3c68(%ebx),%eax
 8049e7e:	50                   	push   %eax
 8049e7f:	e8 4c 05 00 00       	call   804a3d0 <printf>
 8049e84:	83 c4 20             	add    $0x20,%esp
 8049e87:	b8 01 00 00 00       	mov    $0x1,%eax
 8049e8c:	82 8b 45 08 8b 40 14 	orb    $0x14,0x408b0845(%ebx)
 8049e93:	8b 5d fc             	mov    -0x4(%ebp),%ebx
 8049e96:	c9                   	leave  
 8049e97:	c3                   	ret    

08049e98 <fly_insert>:
 8049e98:	55                   	push   %ebp
 8049e99:	89 e5                	mov    %esp,%ebp
 8049e9b:	53                   	push   %ebx
 8049e9c:	83 ec 04             	sub    $0x4,%esp
 8049e9f:	e8 3a f2 ff ff       	call   80490de <__x86.get_pc_thunk.bx>
 8049ea4:	81 c3 5c 01 01 00    	add    $0x1015c,%ebx
 8049eaa:	83 7d 08 00          	cmpl   $0x0,0x8(%ebp)
 8049eae:	75 3a                	jne    8049eea <fly_insert+0x52>
 8049eb0:	83 7d 0c 00          	cmpl   $0x0,0xc(%ebp)
 8049eb4:	75 34                	jne    8049eea <fly_insert+0x52>
 8049eb6:	e8 40 fe ff ff       	call   8049cfb <cli>
 8049ebb:	83 ec 0c             	sub    $0xc,%esp
 8049ebe:	8d 83 ed c3 ff ff    	lea    -0x3c13(%ebx),%eax
 8049ec4:	50                   	push   %eax
 8049ec5:	8d 83 4c c4 ff ff    	lea    -0x3bb4(%ebx),%eax
 8049ecb:	50                   	push   %eax
 8049ecc:	6a 0b                	push   $0xb
 8049ece:	8d 83 81 c3 ff ff    	lea    -0x3c7f(%ebx),%eax
 8049ed4:	50                   	push   %eax
 8049ed5:	8d 83 98 c3 ff ff    	lea    -0x3c68(%ebx),%eax
 8049edb:	50                   	push   %eax
 8049edc:	e8 ef 04 00 00       	call   804a3d0 <printf>
 8049ee1:	83 c4 20             	add    $0x20,%esp
 8049ee4:	b8 01 00 00 00       	mov    $0x1,%eax
 8049ee9:	82 8b 45 10 8b 55 08 	orb    $0x8,0x558b1045(%ebx)
 8049ef0:	89 50 10             	mov    %edx,0x10(%eax)
 8049ef3:	8b 45 10             	mov    0x10(%ebp),%eax
 8049ef6:	8b 55 0c             	mov    0xc(%ebp),%edx
 8049ef9:	89 50 14             	mov    %edx,0x14(%eax)
 8049efc:	83 7d 08 00          	cmpl   $0x0,0x8(%ebp)
 8049f00:	74 09                	je     8049f0b <fly_insert+0x73>
 8049f02:	8b 45 08             	mov    0x8(%ebp),%eax
 8049f05:	8b 55 10             	mov    0x10(%ebp),%edx
 8049f08:	89 50 14             	mov    %edx,0x14(%eax)
 8049f0b:	83 7d 0c 00          	cmpl   $0x0,0xc(%ebp)
 8049f0f:	74 09                	je     8049f1a <fly_insert+0x82>
 8049f11:	8b 45 0c             	mov    0xc(%ebp),%eax
 8049f14:	8b 55 10             	mov    0x10(%ebp),%edx
 8049f17:	89 50 10             	mov    %edx,0x10(%eax)
 8049f1a:	90                   	nop
 8049f1b:	8b 5d fc             	mov    -0x4(%ebp),%ebx
 8049f1e:	c9                   	leave  
 8049f1f:	c3                   	ret    

08049f20 <fly_remove>:
 8049f20:	55                   	push   %ebp
 8049f21:	89 e5                	mov    %esp,%ebp
 8049f23:	53                   	push   %ebx
 8049f24:	83 ec 14             	sub    $0x14,%esp
 8049f27:	e8 b2 f1 ff ff       	call   80490de <__x86.get_pc_thunk.bx>
 8049f2c:	81 c3 d4 00 01 00    	add    $0x100d4,%ebx
 8049f32:	8b 45 08             	mov    0x8(%ebp),%eax
 8049f35:	8b 40 10             	mov    0x10(%eax),%eax
 8049f38:	89 45 f4             	mov    %eax,-0xc(%ebp)
 8049f3b:	8b 45 08             	mov    0x8(%ebp),%eax
 8049f3e:	8b 40 14             	mov    0x14(%eax),%eax
 8049f41:	89 45 f0             	mov    %eax,-0x10(%ebp)
 8049f44:	83 7d 08 00          	cmpl   $0x0,0x8(%ebp)
 8049f48:	75 34                	jne    8049f7e <fly_remove+0x5e>
 8049f4a:	e8 ac fd ff ff       	call   8049cfb <cli>
 8049f4f:	83 ec 0c             	sub    $0xc,%esp
 8049f52:	8d 83 e0 c3 ff ff    	lea    -0x3c20(%ebx),%eax
 8049f58:	50                   	push   %eax
 8049f59:	8d 83 58 c4 ff ff    	lea    -0x3ba8(%ebx),%eax
 8049f5f:	50                   	push   %eax
 8049f60:	6a 0b                	push   $0xb
 8049f62:	8d 83 81 c3 ff ff    	lea    -0x3c7f(%ebx),%eax
 8049f68:	50                   	push   %eax
 8049f69:	8d 83 98 c3 ff ff    	lea    -0x3c68(%ebx),%eax
 8049f6f:	50                   	push   %eax
 8049f70:	e8 5b 04 00 00       	call   804a3d0 <printf>
 8049f75:	83 c4 20             	add    $0x20,%esp
 8049f78:	b8 01 00 00 00       	mov    $0x1,%eax
 8049f7d:	82 83 7d f4 00 74 09 	addb   $0x9,0x7400f47d(%ebx)
 8049f84:	8b 45 f4             	mov    -0xc(%ebp),%eax
 8049f87:	8b 55 f0             	mov    -0x10(%ebp),%edx
 8049f8a:	89 50 14             	mov    %edx,0x14(%eax)
 8049f8d:	83 7d f0 00          	cmpl   $0x0,-0x10(%ebp)
 8049f91:	74 09                	je     8049f9c <fly_remove+0x7c>
 8049f93:	8b 45 f0             	mov    -0x10(%ebp),%eax
 8049f96:	8b 55 f4             	mov    -0xc(%ebp),%edx
 8049f99:	89 50 10             	mov    %edx,0x10(%eax)
 8049f9c:	90                   	nop
 8049f9d:	8b 5d fc             	mov    -0x4(%ebp),%ebx
 8049fa0:	c9                   	leave  
 8049fa1:	c3                   	ret    

08049fa2 <fly_free>:
 8049fa2:	55                   	push   %ebp
 8049fa3:	89 e5                	mov    %esp,%ebp
 8049fa5:	e8 30 f1 ff ff       	call   80490da <__x86.get_pc_thunk.ax>
 8049faa:	05 56 00 01 00       	add    $0x10056,%eax
 8049faf:	8b 88 38 66 01 00    	mov    0x16638(%eax),%ecx
 8049fb5:	8b 55 08             	mov    0x8(%ebp),%edx
 8049fb8:	89 4a 14             	mov    %ecx,0x14(%edx)
 8049fbb:	8b 55 08             	mov    0x8(%ebp),%edx
 8049fbe:	89 90 38 66 01 00    	mov    %edx,0x16638(%eax)
 8049fc4:	90                   	nop
 8049fc5:	5d                   	pop    %ebp
 8049fc6:	c3                   	ret    

08049fc7 <get_hit>:
 8049fc7:	55                   	push   %ebp
 8049fc8:	89 e5                	mov    %esp,%ebp
 8049fca:	e8 0b f1 ff ff       	call   80490da <__x86.get_pc_thunk.ax>
 8049fcf:	05 31 00 01 00       	add    $0x10031,%eax
 8049fd4:	8b 80 40 66 01 00    	mov    0x16640(%eax),%eax
 8049fda:	5d                   	pop    %ebp
 8049fdb:	c3                   	ret    

08049fdc <get_miss>:
 8049fdc:	55                   	push   %ebp
 8049fdd:	89 e5                	mov    %esp,%ebp
 8049fdf:	e8 f6 f0 ff ff       	call   80490da <__x86.get_pc_thunk.ax>
 8049fe4:	05 1c 00 01 00       	add    $0x1001c,%eax
 8049fe9:	8b 80 44 66 01 00    	mov    0x16644(%eax),%eax
 8049fef:	5d                   	pop    %ebp
 8049ff0:	c3                   	ret    

08049ff1 <characters>:
 8049ff1:	55                   	push   %ebp
 8049ff2:	89 e5                	mov    %esp,%ebp
 8049ff4:	e8 e1 f0 ff ff       	call   80490da <__x86.get_pc_thunk.ax>
 8049ff9:	05 07 00 01 00       	add    $0x10007,%eax
 8049ffe:	8b 80 3c 66 01 00    	mov    0x1663c(%eax),%eax
 804a004:	5d                   	pop    %ebp
 804a005:	c3                   	ret    

0804a006 <create_new_letter>:
 804a006:	55                   	push   %ebp
 804a007:	89 e5                	mov    %esp,%ebp
 804a009:	56                   	push   %esi
 804a00a:	53                   	push   %ebx
 804a00b:	83 ec 20             	sub    $0x20,%esp
 804a00e:	e8 cb f0 ff ff       	call   80490de <__x86.get_pc_thunk.bx>
 804a013:	81 c3 ed ff 00 00    	add    $0xffed,%ebx
 804a019:	8b 83 3c 66 01 00    	mov    0x1663c(%ebx),%eax
 804a01f:	85 c0                	test   %eax,%eax
 804a021:	75 0d                	jne    804a030 <create_new_letter+0x2a>
 804a023:	e8 e4 fc ff ff       	call   8049d0c <fly_new>
 804a028:	89 83 3c 66 01 00    	mov    %eax,0x1663c(%ebx)
 804a02e:	eb 28                	jmp    804a058 <create_new_letter+0x52>
 804a030:	e8 d7 fc ff ff       	call   8049d0c <fly_new>
 804a035:	89 45 f4             	mov    %eax,-0xc(%ebp)
 804a038:	8b 83 3c 66 01 00    	mov    0x1663c(%ebx),%eax
 804a03e:	83 ec 04             	sub    $0x4,%esp
 804a041:	ff 75 f4             	pushl  -0xc(%ebp)
 804a044:	50                   	push   %eax
 804a045:	6a 00                	push   $0x0
 804a047:	e8 4c fe ff ff       	call   8049e98 <fly_insert>
 804a04c:	83 c4 10             	add    $0x10,%esp
 804a04f:	8b 45 f4             	mov    -0xc(%ebp),%eax
 804a052:	89 83 3c 66 01 00    	mov    %eax,0x1663c(%ebx)
 804a058:	8b 83 3c 66 01 00    	mov    0x1663c(%ebx),%eax
 804a05e:	d9 ee                	fldz   
 804a060:	d9 18                	fstps  (%eax)
 804a062:	e8 b9 03 00 00       	call   804a420 <rand>
 804a067:	89 c1                	mov    %eax,%ecx
 804a069:	ba f3 1a ca 6b       	mov    $0x6bca1af3,%edx
 804a06e:	89 c8                	mov    %ecx,%eax
 804a070:	f7 ea                	imul   %edx
 804a072:	c1 fa 04             	sar    $0x4,%edx
 804a075:	89 c8                	mov    %ecx,%eax
 804a077:	c1 f8 1f             	sar    $0x1f,%eax
 804a07a:	29 c2                	sub    %eax,%edx
 804a07c:	89 d0                	mov    %edx,%eax
 804a07e:	6b c0 26             	imul   $0x26,%eax,%eax
 804a081:	29 c1                	sub    %eax,%ecx
 804a083:	89 c8                	mov    %ecx,%eax
 804a085:	8d 50 01             	lea    0x1(%eax),%edx
 804a088:	8b 83 3c 66 01 00    	mov    0x1663c(%ebx),%eax
 804a08e:	c1 e2 03             	shl    $0x3,%edx
 804a091:	89 50 04             	mov    %edx,0x4(%eax)
 804a094:	e8 87 03 00 00       	call   804a420 <rand>
 804a099:	89 c6                	mov    %eax,%esi
 804a09b:	ba d3 4d 62 10       	mov    $0x10624dd3,%edx
 804a0a0:	89 f0                	mov    %esi,%eax
 804a0a2:	f7 ea                	imul   %edx
 804a0a4:	c1 fa 06             	sar    $0x6,%edx
 804a0a7:	89 f0                	mov    %esi,%eax
 804a0a9:	c1 f8 1f             	sar    $0x1f,%eax
 804a0ac:	89 d1                	mov    %edx,%ecx
 804a0ae:	29 c1                	sub    %eax,%ecx
 804a0b0:	69 c1 e8 03 00 00    	imul   $0x3e8,%ecx,%eax
 804a0b6:	29 c6                	sub    %eax,%esi
 804a0b8:	89 f1                	mov    %esi,%ecx
 804a0ba:	ba d3 4d 62 10       	mov    $0x10624dd3,%edx
 804a0bf:	89 c8                	mov    %ecx,%eax
 804a0c1:	f7 ea                	imul   %edx
 804a0c3:	c1 fa 07             	sar    $0x7,%edx
 804a0c6:	89 c8                	mov    %ecx,%eax
 804a0c8:	c1 f8 1f             	sar    $0x1f,%eax
 804a0cb:	29 c2                	sub    %eax,%edx
 804a0cd:	89 d0                	mov    %edx,%eax
 804a0cf:	89 45 e0             	mov    %eax,-0x20(%ebp)
 804a0d2:	db 45 e0             	fildl  -0x20(%ebp)
 804a0d5:	dd 83 78 c4 ff ff    	fldl   -0x3b88(%ebx)
 804a0db:	de c1                	faddp  %st,%st(1)
 804a0dd:	8b 83 3c 66 01 00    	mov    0x1663c(%ebx),%eax
 804a0e3:	d9 5d e4             	fstps  -0x1c(%ebp)
 804a0e6:	d9 45 e4             	flds   -0x1c(%ebp)
 804a0e9:	d9 58 0c             	fstps  0xc(%eax)
 804a0ec:	e8 2f 03 00 00       	call   804a420 <rand>
 804a0f1:	89 c1                	mov    %eax,%ecx
 804a0f3:	8b b3 3c 66 01 00    	mov    0x1663c(%ebx),%esi
 804a0f9:	ba 4f ec c4 4e       	mov    $0x4ec4ec4f,%edx
 804a0fe:	89 c8                	mov    %ecx,%eax
 804a100:	f7 ea                	imul   %edx
 804a102:	c1 fa 03             	sar    $0x3,%edx
 804a105:	89 c8                	mov    %ecx,%eax
 804a107:	c1 f8 1f             	sar    $0x1f,%eax
 804a10a:	29 c2                	sub    %eax,%edx
 804a10c:	89 d0                	mov    %edx,%eax
 804a10e:	6b c0 1a             	imul   $0x1a,%eax,%eax
 804a111:	29 c1                	sub    %eax,%ecx
 804a113:	89 c8                	mov    %ecx,%eax
 804a115:	89 46 08             	mov    %eax,0x8(%esi)
 804a118:	8b 83 3c 66 01 00    	mov    0x1663c(%ebx),%eax
 804a11e:	8b 40 08             	mov    0x8(%eax),%eax
 804a121:	83 ec 0c             	sub    $0xc,%esp
 804a124:	50                   	push   %eax
 804a125:	e8 a9 fa ff ff       	call   8049bd3 <release_key>
 804a12a:	83 c4 10             	add    $0x10,%esp
 804a12d:	90                   	nop
 804a12e:	8d 65 f8             	lea    -0x8(%ebp),%esp
 804a131:	5b                   	pop    %ebx
 804a132:	5e                   	pop    %esi
 804a133:	5d                   	pop    %ebp
 804a134:	c3                   	ret    

0804a135 <update_letter_pos>:
 804a135:	55                   	push   %ebp
 804a136:	89 e5                	mov    %esp,%ebp
 804a138:	53                   	push   %ebx
 804a139:	83 ec 14             	sub    $0x14,%esp
 804a13c:	e8 9d ef ff ff       	call   80490de <__x86.get_pc_thunk.bx>
 804a141:	81 c3 bf fe 00 00    	add    $0xfebf,%ebx
 804a147:	8b 83 3c 66 01 00    	mov    0x1663c(%ebx),%eax
 804a14d:	89 45 f4             	mov    %eax,-0xc(%ebp)
 804a150:	e9 a6 00 00 00       	jmp    804a1fb <update_letter_pos+0xc6>
 804a155:	8b 45 f4             	mov    -0xc(%ebp),%eax
 804a158:	8b 40 14             	mov    0x14(%eax),%eax
 804a15b:	89 45 f0             	mov    %eax,-0x10(%ebp)
 804a15e:	8b 45 f4             	mov    -0xc(%ebp),%eax
 804a161:	d9 00                	flds   (%eax)
 804a163:	8b 45 f4             	mov    -0xc(%ebp),%eax
 804a166:	d9 40 0c             	flds   0xc(%eax)
 804a169:	de c1                	faddp  %st,%st(1)
 804a16b:	8b 45 f4             	mov    -0xc(%ebp),%eax
 804a16e:	d9 18                	fstps  (%eax)
 804a170:	8b 45 f4             	mov    -0xc(%ebp),%eax
 804a173:	d9 00                	flds   (%eax)
 804a175:	d9 ee                	fldz   
 804a177:	df f1                	fcomip %st(1),%st
 804a179:	dd d8                	fstp   %st(0)
 804a17b:	77 1b                	ja     804a198 <update_letter_pos+0x63>
 804a17d:	8b 45 f4             	mov    -0xc(%ebp),%eax
 804a180:	d9 00                	flds   (%eax)
 804a182:	dd 83 80 c4 ff ff    	fldl   -0x3b80(%ebx)
 804a188:	de c1                	faddp  %st,%st(1)
 804a18a:	dd 83 88 c4 ff ff    	fldl   -0x3b78(%ebx)
 804a190:	d9 c9                	fxch   %st(1)
 804a192:	df f1                	fcomip %st(1),%st
 804a194:	dd d8                	fstp   %st(0)
 804a196:	76 5d                	jbe    804a1f5 <update_letter_pos+0xc0>
 804a198:	8b 45 f4             	mov    -0xc(%ebp),%eax
 804a19b:	d9 00                	flds   (%eax)
 804a19d:	d9 ee                	fldz   
 804a19f:	df f1                	fcomip %st(1),%st
 804a1a1:	dd d8                	fstp   %st(0)
 804a1a3:	76 11                	jbe    804a1b6 <update_letter_pos+0x81>
 804a1a5:	8b 83 40 66 01 00    	mov    0x16640(%ebx),%eax
 804a1ab:	83 c0 01             	add    $0x1,%eax
 804a1ae:	89 83 40 66 01 00    	mov    %eax,0x16640(%ebx)
 804a1b4:	eb 0f                	jmp    804a1c5 <update_letter_pos+0x90>
 804a1b6:	8b 83 44 66 01 00    	mov    0x16644(%ebx),%eax
 804a1bc:	83 c0 01             	add    $0x1,%eax
 804a1bf:	89 83 44 66 01 00    	mov    %eax,0x16644(%ebx)
 804a1c5:	83 ec 0c             	sub    $0xc,%esp
 804a1c8:	ff 75 f4             	pushl  -0xc(%ebp)
 804a1cb:	e8 50 fd ff ff       	call   8049f20 <fly_remove>
 804a1d0:	83 c4 10             	add    $0x10,%esp
 804a1d3:	83 ec 0c             	sub    $0xc,%esp
 804a1d6:	ff 75 f4             	pushl  -0xc(%ebp)
 804a1d9:	e8 c4 fd ff ff       	call   8049fa2 <fly_free>
 804a1de:	83 c4 10             	add    $0x10,%esp
 804a1e1:	8b 83 3c 66 01 00    	mov    0x1663c(%ebx),%eax
 804a1e7:	39 45 f4             	cmp    %eax,-0xc(%ebp)
 804a1ea:	75 09                	jne    804a1f5 <update_letter_pos+0xc0>
 804a1ec:	8b 45 f0             	mov    -0x10(%ebp),%eax
 804a1ef:	89 83 3c 66 01 00    	mov    %eax,0x1663c(%ebx)
 804a1f5:	8b 45 f0             	mov    -0x10(%ebp),%eax
 804a1f8:	89 45 f4             	mov    %eax,-0xc(%ebp)
 804a1fb:	83 7d f4 00          	cmpl   $0x0,-0xc(%ebp)
 804a1ff:	0f 85 50 ff ff ff    	jne    804a155 <update_letter_pos+0x20>
 804a205:	90                   	nop
 804a206:	8b 5d fc             	mov    -0x4(%ebp),%ebx
 804a209:	c9                   	leave  
 804a20a:	c3                   	ret    

0804a20b <update_keypress>:
 804a20b:	55                   	push   %ebp
 804a20c:	89 e5                	mov    %esp,%ebp
 804a20e:	53                   	push   %ebx
 804a20f:	83 ec 14             	sub    $0x14,%esp
 804a212:	e8 c7 ee ff ff       	call   80490de <__x86.get_pc_thunk.bx>
 804a217:	81 c3 e9 fd 00 00    	add    $0xfde9,%ebx
 804a21d:	c7 45 f0 00 00 00 00 	movl   $0x0,-0x10(%ebp)
 804a224:	d9 83 90 c4 ff ff    	flds   -0x3b70(%ebx)
 804a22a:	d9 5d ec             	fstps  -0x14(%ebp)
 804a22d:	e8 c9 fa ff ff       	call   8049cfb <cli>
 804a232:	8b 83 3c 66 01 00    	mov    0x1663c(%ebx),%eax
 804a238:	89 45 f4             	mov    %eax,-0xc(%ebp)
 804a23b:	e9 92 00 00 00       	jmp    804a2d2 <update_keypress+0xc7>
 804a240:	8b 45 f4             	mov    -0xc(%ebp),%eax
 804a243:	8b 40 08             	mov    0x8(%eax),%eax
 804a246:	85 c0                	test   %eax,%eax
 804a248:	78 0b                	js     804a255 <update_keypress+0x4a>
 804a24a:	8b 45 f4             	mov    -0xc(%ebp),%eax
 804a24d:	8b 40 08             	mov    0x8(%eax),%eax
 804a250:	83 f8 19             	cmp    $0x19,%eax
 804a253:	7e 34                	jle    804a289 <update_keypress+0x7e>
 804a255:	e8 a1 fa ff ff       	call   8049cfb <cli>
 804a25a:	83 ec 0c             	sub    $0xc,%esp
 804a25d:	8d 83 0c c4 ff ff    	lea    -0x3bf4(%ebx),%eax
 804a263:	50                   	push   %eax
 804a264:	8d 83 64 c4 ff ff    	lea    -0x3b9c(%ebx),%eax
 804a26a:	50                   	push   %eax
 804a26b:	6a 55                	push   $0x55
 804a26d:	8d 83 81 c3 ff ff    	lea    -0x3c7f(%ebx),%eax
 804a273:	50                   	push   %eax
 804a274:	8d 83 98 c3 ff ff    	lea    -0x3c68(%ebx),%eax
 804a27a:	50                   	push   %eax
 804a27b:	e8 50 01 00 00       	call   804a3d0 <printf>
 804a280:	83 c4 20             	add    $0x20,%esp
 804a283:	b8 01 00 00 00       	mov    $0x1,%eax
 804a288:	82 8b 45 f4 d9 ee d9 	orb    $0xd9,-0x11260bbb(%ebx)
 804a28f:	40                   	inc    %eax
 804a290:	0c df                	or     $0xdf,%al
 804a292:	f1                   	icebp  
 804a293:	dd d8                	fstp   %st(0)
 804a295:	76 32                	jbe    804a2c9 <update_keypress+0xbe>
 804a297:	8b 45 f4             	mov    -0xc(%ebp),%eax
 804a29a:	d9 45 ec             	flds   -0x14(%ebp)
 804a29d:	d9 00                	flds   (%eax)
 804a29f:	df f1                	fcomip %st(1),%st
 804a2a1:	dd d8                	fstp   %st(0)
 804a2a3:	76 24                	jbe    804a2c9 <update_keypress+0xbe>
 804a2a5:	8b 45 f4             	mov    -0xc(%ebp),%eax
 804a2a8:	8b 40 08             	mov    0x8(%eax),%eax
 804a2ab:	83 ec 0c             	sub    $0xc,%esp
 804a2ae:	50                   	push   %eax
 804a2af:	e8 85 f9 ff ff       	call   8049c39 <query_key>
 804a2b4:	83 c4 10             	add    $0x10,%esp
 804a2b7:	84 c0                	test   %al,%al
 804a2b9:	74 0e                	je     804a2c9 <update_keypress+0xbe>
 804a2bb:	8b 45 f4             	mov    -0xc(%ebp),%eax
 804a2be:	d9 00                	flds   (%eax)
 804a2c0:	d9 5d ec             	fstps  -0x14(%ebp)
 804a2c3:	8b 45 f4             	mov    -0xc(%ebp),%eax
 804a2c6:	89 45 f0             	mov    %eax,-0x10(%ebp)
 804a2c9:	8b 45 f4             	mov    -0xc(%ebp),%eax
 804a2cc:	8b 40 14             	mov    0x14(%eax),%eax
 804a2cf:	89 45 f4             	mov    %eax,-0xc(%ebp)
 804a2d2:	83 7d f4 00          	cmpl   $0x0,-0xc(%ebp)
 804a2d6:	0f 85 64 ff ff ff    	jne    804a240 <update_keypress+0x35>
 804a2dc:	83 7d f0 00          	cmpl   $0x0,-0x10(%ebp)
 804a2e0:	74 25                	je     804a307 <update_keypress+0xfc>
 804a2e2:	8b 45 f0             	mov    -0x10(%ebp),%eax
 804a2e5:	8b 40 08             	mov    0x8(%eax),%eax
 804a2e8:	83 ec 0c             	sub    $0xc,%esp
 804a2eb:	50                   	push   %eax
 804a2ec:	e8 e2 f8 ff ff       	call   8049bd3 <release_key>
 804a2f1:	83 c4 10             	add    $0x10,%esp
 804a2f4:	8b 45 f0             	mov    -0x10(%ebp),%eax
 804a2f7:	d9 83 94 c4 ff ff    	flds   -0x3b6c(%ebx)
 804a2fd:	d9 58 0c             	fstps  0xc(%eax)
 804a300:	b8 01 00 00 00       	mov    $0x1,%eax
 804a305:	eb 0a                	jmp    804a311 <update_keypress+0x106>
 804a307:	e8 de f9 ff ff       	call   8049cea <sti>
 804a30c:	b8 00 00 00 00       	mov    $0x0,%eax
 804a311:	8b 5d fc             	mov    -0x4(%ebp),%ebx
 804a314:	c9                   	leave  
 804a315:	c3                   	ret    

0804a316 <memset>:
 804a316:	55                   	push   %ebp
 804a317:	89 e5                	mov    %esp,%ebp
 804a319:	57                   	push   %edi
 804a31a:	8b 7d 08             	mov    0x8(%ebp),%edi
 804a31d:	0f b6 45 0c          	movzbl 0xc(%ebp),%eax
 804a321:	8b 4d 10             	mov    0x10(%ebp),%ecx
 804a324:	fc                   	cld    
 804a325:	83 f9 10             	cmp    $0x10,%ecx
 804a328:	76 69                	jbe    804a393 <memset+0x7d>
 804a32a:	f7 c7 07 00 00 00    	test   $0x7,%edi
 804a330:	74 4c                	je     804a37e <memset+0x68>
 804a332:	88 07                	mov    %al,(%edi)
 804a334:	47                   	inc    %edi
 804a335:	49                   	dec    %ecx
 804a336:	f7 c7 07 00 00 00    	test   $0x7,%edi
 804a33c:	74 40                	je     804a37e <memset+0x68>
 804a33e:	88 07                	mov    %al,(%edi)
 804a340:	47                   	inc    %edi
 804a341:	49                   	dec    %ecx
 804a342:	f7 c7 07 00 00 00    	test   $0x7,%edi
 804a348:	74 34                	je     804a37e <memset+0x68>
 804a34a:	88 07                	mov    %al,(%edi)
 804a34c:	47                   	inc    %edi
 804a34d:	49                   	dec    %ecx
 804a34e:	f7 c7 07 00 00 00    	test   $0x7,%edi
 804a354:	74 28                	je     804a37e <memset+0x68>
 804a356:	88 07                	mov    %al,(%edi)
 804a358:	47                   	inc    %edi
 804a359:	49                   	dec    %ecx
 804a35a:	f7 c7 07 00 00 00    	test   $0x7,%edi
 804a360:	74 1c                	je     804a37e <memset+0x68>
 804a362:	88 07                	mov    %al,(%edi)
 804a364:	47                   	inc    %edi
 804a365:	49                   	dec    %ecx
 804a366:	f7 c7 07 00 00 00    	test   $0x7,%edi
 804a36c:	74 10                	je     804a37e <memset+0x68>
 804a36e:	88 07                	mov    %al,(%edi)
 804a370:	47                   	inc    %edi
 804a371:	49                   	dec    %ecx
 804a372:	f7 c7 07 00 00 00    	test   $0x7,%edi
 804a378:	74 04                	je     804a37e <memset+0x68>
 804a37a:	88 07                	mov    %al,(%edi)
 804a37c:	47                   	inc    %edi
 804a37d:	49                   	dec    %ecx
 804a37e:	88 c4                	mov    %al,%ah
 804a380:	89 c2                	mov    %eax,%edx
 804a382:	c1 e2 10             	shl    $0x10,%edx
 804a385:	09 d0                	or     %edx,%eax
 804a387:	89 ca                	mov    %ecx,%edx
 804a389:	c1 e9 02             	shr    $0x2,%ecx
 804a38c:	83 e2 03             	and    $0x3,%edx
 804a38f:	f3 ab                	rep stos %eax,%es:(%edi)
 804a391:	89 d1                	mov    %edx,%ecx
 804a393:	f3 aa                	rep stos %al,%es:(%edi)
 804a395:	8b 45 08             	mov    0x8(%ebp),%eax
 804a398:	8d 65 fc             	lea    -0x4(%ebp),%esp
 804a39b:	5f                   	pop    %edi
 804a39c:	c9                   	leave  
 804a39d:	c3                   	ret    
 804a39e:	66 90                	xchg   %ax,%ax

0804a3a0 <_printf_r>:
 804a3a0:	55                   	push   %ebp
 804a3a1:	89 e5                	mov    %esp,%ebp
 804a3a3:	83 ec 18             	sub    $0x18,%esp
 804a3a6:	8d 55 10             	lea    0x10(%ebp),%edx
 804a3a9:	8b 45 08             	mov    0x8(%ebp),%eax
 804a3ac:	89 54 24 0c          	mov    %edx,0xc(%esp)
 804a3b0:	8b 55 0c             	mov    0xc(%ebp),%edx
 804a3b3:	89 54 24 08          	mov    %edx,0x8(%esp)
 804a3b7:	8b 50 08             	mov    0x8(%eax),%edx
 804a3ba:	89 04 24             	mov    %eax,(%esp)
 804a3bd:	89 54 24 04          	mov    %edx,0x4(%esp)
 804a3c1:	e8 6a 21 00 00       	call   804c530 <_vfprintf_r>
 804a3c6:	c9                   	leave  
 804a3c7:	c3                   	ret    
 804a3c8:	90                   	nop
 804a3c9:	8d b4 26 00 00 00 00 	lea    0x0(%esi,%eiz,1),%esi

0804a3d0 <printf>:
 804a3d0:	55                   	push   %ebp
 804a3d1:	89 e5                	mov    %esp,%ebp
 804a3d3:	83 ec 18             	sub    $0x18,%esp
 804a3d6:	e8 e5 61 00 00       	call   80505c0 <__getreent>
 804a3db:	8d 55 0c             	lea    0xc(%ebp),%edx
 804a3de:	89 54 24 0c          	mov    %edx,0xc(%esp)
 804a3e2:	8b 55 08             	mov    0x8(%ebp),%edx
 804a3e5:	89 54 24 08          	mov    %edx,0x8(%esp)
 804a3e9:	8b 50 08             	mov    0x8(%eax),%edx
 804a3ec:	89 04 24             	mov    %eax,(%esp)
 804a3ef:	89 54 24 04          	mov    %edx,0x4(%esp)
 804a3f3:	e8 38 21 00 00       	call   804c530 <_vfprintf_r>
 804a3f8:	c9                   	leave  
 804a3f9:	c3                   	ret    
 804a3fa:	66 90                	xchg   %ax,%ax
 804a3fc:	66 90                	xchg   %ax,%ax
 804a3fe:	66 90                	xchg   %ax,%ax

0804a400 <srand>:
 804a400:	55                   	push   %ebp
 804a401:	89 e5                	mov    %esp,%ebp
 804a403:	83 ec 08             	sub    $0x8,%esp
 804a406:	e8 b5 61 00 00       	call   80505c0 <__getreent>
 804a40b:	8b 55 08             	mov    0x8(%ebp),%edx
 804a40e:	c7 80 a8 00 00 00 00 	movl   $0x0,0xa8(%eax)
 804a415:	00 00 00 
 804a418:	89 90 a4 00 00 00    	mov    %edx,0xa4(%eax)
 804a41e:	c9                   	leave  
 804a41f:	c3                   	ret    

0804a420 <rand>:
 804a420:	55                   	push   %ebp
 804a421:	89 e5                	mov    %esp,%ebp
 804a423:	56                   	push   %esi
 804a424:	53                   	push   %ebx
 804a425:	e8 96 61 00 00       	call   80505c0 <__getreent>
 804a42a:	b9 2d 7f 95 4c       	mov    $0x4c957f2d,%ecx
 804a42f:	69 90 a4 00 00 00 2d 	imul   $0x5851f42d,0xa4(%eax),%edx
 804a436:	f4 51 58 
 804a439:	89 c6                	mov    %eax,%esi
 804a43b:	69 98 a8 00 00 00 2d 	imul   $0x4c957f2d,0xa8(%eax),%ebx
 804a442:	7f 95 4c 
 804a445:	89 c8                	mov    %ecx,%eax
 804a447:	01 d3                	add    %edx,%ebx
 804a449:	f7 a6 a4 00 00 00    	mull   0xa4(%esi)
 804a44f:	89 d1                	mov    %edx,%ecx
 804a451:	01 d9                	add    %ebx,%ecx
 804a453:	89 cb                	mov    %ecx,%ebx
 804a455:	89 c1                	mov    %eax,%ecx
 804a457:	83 c1 01             	add    $0x1,%ecx
 804a45a:	83 d3 00             	adc    $0x0,%ebx
 804a45d:	89 d8                	mov    %ebx,%eax
 804a45f:	89 8e a4 00 00 00    	mov    %ecx,0xa4(%esi)
 804a465:	25 ff ff ff 7f       	and    $0x7fffffff,%eax
 804a46a:	89 9e a8 00 00 00    	mov    %ebx,0xa8(%esi)
 804a470:	5b                   	pop    %ebx
 804a471:	5e                   	pop    %esi
 804a472:	5d                   	pop    %ebp
 804a473:	c3                   	ret    
 804a474:	66 90                	xchg   %ax,%ax
 804a476:	66 90                	xchg   %ax,%ax
 804a478:	66 90                	xchg   %ax,%ax
 804a47a:	66 90                	xchg   %ax,%ax
 804a47c:	66 90                	xchg   %ax,%ax
 804a47e:	66 90                	xchg   %ax,%ax

0804a480 <_snprintf_r>:
 804a480:	55                   	push   %ebp
 804a481:	89 e5                	mov    %esp,%ebp
 804a483:	56                   	push   %esi
 804a484:	53                   	push   %ebx
 804a485:	83 c4 80             	add    $0xffffff80,%esp
 804a488:	8b 5d 10             	mov    0x10(%ebp),%ebx
 804a48b:	8b 75 08             	mov    0x8(%ebp),%esi
 804a48e:	8b 45 0c             	mov    0xc(%ebp),%eax
 804a491:	85 db                	test   %ebx,%ebx
 804a493:	78 63                	js     804a4f8 <_snprintf_r+0x78>
 804a495:	ba 08 02 00 00       	mov    $0x208,%edx
 804a49a:	b9 ff ff ff ff       	mov    $0xffffffff,%ecx
 804a49f:	66 89 55 9c          	mov    %dx,-0x64(%ebp)
 804a4a3:	8d 53 ff             	lea    -0x1(%ebx),%edx
 804a4a6:	89 45 90             	mov    %eax,-0x70(%ebp)
 804a4a9:	89 45 a0             	mov    %eax,-0x60(%ebp)
 804a4ac:	31 c0                	xor    %eax,%eax
 804a4ae:	85 db                	test   %ebx,%ebx
 804a4b0:	0f 45 c2             	cmovne %edx,%eax
 804a4b3:	89 45 98             	mov    %eax,-0x68(%ebp)
 804a4b6:	89 45 a4             	mov    %eax,-0x5c(%ebp)
 804a4b9:	8d 45 18             	lea    0x18(%ebp),%eax
 804a4bc:	89 44 24 0c          	mov    %eax,0xc(%esp)
 804a4c0:	8b 45 14             	mov    0x14(%ebp),%eax
 804a4c3:	89 34 24             	mov    %esi,(%esp)
 804a4c6:	66 89 4d 9e          	mov    %cx,-0x62(%ebp)
 804a4ca:	89 44 24 08          	mov    %eax,0x8(%esp)
 804a4ce:	8d 45 90             	lea    -0x70(%ebp),%eax
 804a4d1:	89 44 24 04          	mov    %eax,0x4(%esp)
 804a4d5:	e8 56 01 00 00       	call   804a630 <_svfprintf_r>
 804a4da:	83 f8 ff             	cmp    $0xffffffff,%eax
 804a4dd:	7c 11                	jl     804a4f0 <_snprintf_r+0x70>
 804a4df:	85 db                	test   %ebx,%ebx
 804a4e1:	74 06                	je     804a4e9 <_snprintf_r+0x69>
 804a4e3:	8b 55 90             	mov    -0x70(%ebp),%edx
 804a4e6:	c6 02 00             	movb   $0x0,(%edx)
 804a4e9:	83 ec 80             	sub    $0xffffff80,%esp
 804a4ec:	5b                   	pop    %ebx
 804a4ed:	5e                   	pop    %esi
 804a4ee:	5d                   	pop    %ebp
 804a4ef:	c3                   	ret    
 804a4f0:	c7 06 8b 00 00 00    	movl   $0x8b,(%esi)
 804a4f6:	eb e7                	jmp    804a4df <_snprintf_r+0x5f>
 804a4f8:	c7 06 8b 00 00 00    	movl   $0x8b,(%esi)
 804a4fe:	b8 ff ff ff ff       	mov    $0xffffffff,%eax
 804a503:	eb e4                	jmp    804a4e9 <_snprintf_r+0x69>
 804a505:	8d 74 26 00          	lea    0x0(%esi,%eiz,1),%esi
 804a509:	8d bc 27 00 00 00 00 	lea    0x0(%edi,%eiz,1),%edi

0804a510 <snprintf>:
 804a510:	55                   	push   %ebp
 804a511:	89 e5                	mov    %esp,%ebp
 804a513:	57                   	push   %edi
 804a514:	56                   	push   %esi
 804a515:	53                   	push   %ebx
 804a516:	81 ec 8c 00 00 00    	sub    $0x8c,%esp
 804a51c:	8b 5d 0c             	mov    0xc(%ebp),%ebx
 804a51f:	8b 75 08             	mov    0x8(%ebp),%esi
 804a522:	e8 99 60 00 00       	call   80505c0 <__getreent>
 804a527:	85 db                	test   %ebx,%ebx
 804a529:	89 c7                	mov    %eax,%edi
 804a52b:	78 6b                	js     804a598 <snprintf+0x88>
 804a52d:	b8 08 02 00 00       	mov    $0x208,%eax
 804a532:	31 d2                	xor    %edx,%edx
 804a534:	66 89 45 8c          	mov    %ax,-0x74(%ebp)
 804a538:	85 db                	test   %ebx,%ebx
 804a53a:	8d 43 ff             	lea    -0x1(%ebx),%eax
 804a53d:	0f 45 d0             	cmovne %eax,%edx
 804a540:	8d 45 14             	lea    0x14(%ebp),%eax
 804a543:	89 44 24 0c          	mov    %eax,0xc(%esp)
 804a547:	8b 45 10             	mov    0x10(%ebp),%eax
 804a54a:	89 55 88             	mov    %edx,-0x78(%ebp)
 804a54d:	89 55 94             	mov    %edx,-0x6c(%ebp)
 804a550:	ba ff ff ff ff       	mov    $0xffffffff,%edx
 804a555:	89 3c 24             	mov    %edi,(%esp)
 804a558:	89 44 24 08          	mov    %eax,0x8(%esp)
 804a55c:	8d 45 80             	lea    -0x80(%ebp),%eax
 804a55f:	89 44 24 04          	mov    %eax,0x4(%esp)
 804a563:	89 75 80             	mov    %esi,-0x80(%ebp)
 804a566:	89 75 90             	mov    %esi,-0x70(%ebp)
 804a569:	66 89 55 8e          	mov    %dx,-0x72(%ebp)
 804a56d:	e8 be 00 00 00       	call   804a630 <_svfprintf_r>
 804a572:	83 f8 ff             	cmp    $0xffffffff,%eax
 804a575:	7c 19                	jl     804a590 <snprintf+0x80>
 804a577:	85 db                	test   %ebx,%ebx
 804a579:	74 06                	je     804a581 <snprintf+0x71>
 804a57b:	8b 55 80             	mov    -0x80(%ebp),%edx
 804a57e:	c6 02 00             	movb   $0x0,(%edx)
 804a581:	81 c4 8c 00 00 00    	add    $0x8c,%esp
 804a587:	5b                   	pop    %ebx
 804a588:	5e                   	pop    %esi
 804a589:	5f                   	pop    %edi
 804a58a:	5d                   	pop    %ebp
 804a58b:	c3                   	ret    
 804a58c:	8d 74 26 00          	lea    0x0(%esi,%eiz,1),%esi
 804a590:	c7 07 8b 00 00 00    	movl   $0x8b,(%edi)
 804a596:	eb df                	jmp    804a577 <snprintf+0x67>
 804a598:	c7 00 8b 00 00 00    	movl   $0x8b,(%eax)
 804a59e:	b8 ff ff ff ff       	mov    $0xffffffff,%eax
 804a5a3:	eb dc                	jmp    804a581 <snprintf+0x71>
 804a5a5:	66 90                	xchg   %ax,%ax
 804a5a7:	66 90                	xchg   %ax,%ax
 804a5a9:	66 90                	xchg   %ax,%ax
 804a5ab:	66 90                	xchg   %ax,%ax
 804a5ad:	66 90                	xchg   %ax,%ax
 804a5af:	90                   	nop

0804a5b0 <strlen>:
 804a5b0:	55                   	push   %ebp
 804a5b1:	89 e5                	mov    %esp,%ebp
 804a5b3:	57                   	push   %edi
 804a5b4:	8b 55 08             	mov    0x8(%ebp),%edx
 804a5b7:	89 d7                	mov    %edx,%edi
 804a5b9:	f7 c7 03 00 00 00    	test   $0x3,%edi
 804a5bf:	74 25                	je     804a5e6 <L5>
 804a5c1:	8a 0f                	mov    (%edi),%cl
 804a5c3:	47                   	inc    %edi
 804a5c4:	84 c9                	test   %cl,%cl
 804a5c6:	74 56                	je     804a61e <L15>
 804a5c8:	f7 c7 03 00 00 00    	test   $0x3,%edi
 804a5ce:	74 16                	je     804a5e6 <L5>
 804a5d0:	8a 0f                	mov    (%edi),%cl
 804a5d2:	47                   	inc    %edi
 804a5d3:	84 c9                	test   %cl,%cl
 804a5d5:	74 47                	je     804a61e <L15>
 804a5d7:	f7 c7 03 00 00 00    	test   $0x3,%edi
 804a5dd:	74 07                	je     804a5e6 <L5>
 804a5df:	8a 0f                	mov    (%edi),%cl
 804a5e1:	47                   	inc    %edi
 804a5e2:	84 c9                	test   %cl,%cl
 804a5e4:	74 38                	je     804a61e <L15>

0804a5e6 <L5>:
 804a5e6:	83 ef 04             	sub    $0x4,%edi
 804a5e9:	8d b4 26 00 00 00 00 	lea    0x0(%esi,%eiz,1),%esi

0804a5f0 <L10>:
 804a5f0:	83 c7 04             	add    $0x4,%edi
 804a5f3:	8b 0f                	mov    (%edi),%ecx
 804a5f5:	8d 81 ff fe fe fe    	lea    -0x1010101(%ecx),%eax
 804a5fb:	f7 d1                	not    %ecx
 804a5fd:	21 c8                	and    %ecx,%eax
 804a5ff:	a9 80 80 80 80       	test   $0x80808080,%eax
 804a604:	74 ea                	je     804a5f0 <L10>
 804a606:	f7 d1                	not    %ecx
 804a608:	47                   	inc    %edi
 804a609:	84 c9                	test   %cl,%cl
 804a60b:	74 11                	je     804a61e <L15>
 804a60d:	47                   	inc    %edi
 804a60e:	c1 e9 08             	shr    $0x8,%ecx
 804a611:	84 c9                	test   %cl,%cl
 804a613:	74 09                	je     804a61e <L15>
 804a615:	47                   	inc    %edi
 804a616:	c1 e9 08             	shr    $0x8,%ecx
 804a619:	84 c9                	test   %cl,%cl
 804a61b:	74 01                	je     804a61e <L15>
 804a61d:	47                   	inc    %edi

0804a61e <L15>:
 804a61e:	29 d7                	sub    %edx,%edi
 804a620:	8d 47 ff             	lea    -0x1(%edi),%eax
 804a623:	8d 65 fc             	lea    -0x4(%ebp),%esp
 804a626:	5f                   	pop    %edi
 804a627:	c9                   	leave  
 804a628:	c3                   	ret    
 804a629:	66 90                	xchg   %ax,%ax
 804a62b:	66 90                	xchg   %ax,%ax
 804a62d:	66 90                	xchg   %ax,%ax
 804a62f:	90                   	nop

0804a630 <_svfprintf_r>:
 804a630:	55                   	push   %ebp
 804a631:	89 e5                	mov    %esp,%ebp
 804a633:	57                   	push   %edi
 804a634:	56                   	push   %esi
 804a635:	53                   	push   %ebx
 804a636:	81 ec 1c 01 00 00    	sub    $0x11c,%esp
 804a63c:	8b 45 08             	mov    0x8(%ebp),%eax
 804a63f:	89 04 24             	mov    %eax,(%esp)
 804a642:	e8 39 60 00 00       	call   8050680 <_localeconv_r>
 804a647:	8b 00                	mov    (%eax),%eax
 804a649:	89 04 24             	mov    %eax,(%esp)
 804a64c:	89 85 0c ff ff ff    	mov    %eax,-0xf4(%ebp)
 804a652:	e8 59 ff ff ff       	call   804a5b0 <strlen>
 804a657:	89 85 08 ff ff ff    	mov    %eax,-0xf8(%ebp)
 804a65d:	8b 45 0c             	mov    0xc(%ebp),%eax
 804a660:	f6 40 0c 80          	testb  $0x80,0xc(%eax)
 804a664:	74 0b                	je     804a671 <_svfprintf_r+0x41>
 804a666:	8b 40 10             	mov    0x10(%eax),%eax
 804a669:	85 c0                	test   %eax,%eax
 804a66b:	0f 84 62 18 00 00    	je     804bed3 <_svfprintf_r+0x18a3>
 804a671:	8d 45 a8             	lea    -0x58(%ebp),%eax
 804a674:	8d 55 a7             	lea    -0x59(%ebp),%edx
 804a677:	89 c7                	mov    %eax,%edi
 804a679:	89 85 74 ff ff ff    	mov    %eax,-0x8c(%ebp)
 804a67f:	d9 ee                	fldz   
 804a681:	29 d0                	sub    %edx,%eax
 804a683:	c7 85 7c ff ff ff 00 	movl   $0x0,-0x84(%ebp)
 804a68a:	00 00 00 
 804a68d:	dd 9d 10 ff ff ff    	fstpl  -0xf0(%ebp)
 804a693:	c7 85 78 ff ff ff 00 	movl   $0x0,-0x88(%ebp)
 804a69a:	00 00 00 
 804a69d:	c7 85 1c ff ff ff 00 	movl   $0x0,-0xe4(%ebp)
 804a6a4:	00 00 00 
 804a6a7:	c7 85 18 ff ff ff 00 	movl   $0x0,-0xe8(%ebp)
 804a6ae:	00 00 00 
 804a6b1:	c7 85 04 ff ff ff 00 	movl   $0x0,-0xfc(%ebp)
 804a6b8:	00 00 00 
 804a6bb:	c7 85 34 ff ff ff 00 	movl   $0x0,-0xcc(%ebp)
 804a6c2:	00 00 00 
 804a6c5:	89 85 00 ff ff ff    	mov    %eax,-0x100(%ebp)
 804a6cb:	8b 45 10             	mov    0x10(%ebp),%eax
 804a6ce:	8b 5d 10             	mov    0x10(%ebp),%ebx
 804a6d1:	0f b6 00             	movzbl (%eax),%eax
 804a6d4:	3c 25                	cmp    $0x25,%al
 804a6d6:	74 4d                	je     804a725 <_svfprintf_r+0xf5>
 804a6d8:	84 c0                	test   %al,%al
 804a6da:	75 08                	jne    804a6e4 <_svfprintf_r+0xb4>
 804a6dc:	eb 47                	jmp    804a725 <_svfprintf_r+0xf5>
 804a6de:	66 90                	xchg   %ax,%ax
 804a6e0:	84 c0                	test   %al,%al
 804a6e2:	74 0a                	je     804a6ee <_svfprintf_r+0xbe>
 804a6e4:	83 c3 01             	add    $0x1,%ebx
 804a6e7:	0f b6 03             	movzbl (%ebx),%eax
 804a6ea:	3c 25                	cmp    $0x25,%al
 804a6ec:	75 f2                	jne    804a6e0 <_svfprintf_r+0xb0>
 804a6ee:	89 de                	mov    %ebx,%esi
 804a6f0:	2b 75 10             	sub    0x10(%ebp),%esi
 804a6f3:	74 30                	je     804a725 <_svfprintf_r+0xf5>
 804a6f5:	8b 45 10             	mov    0x10(%ebp),%eax
 804a6f8:	83 c7 08             	add    $0x8,%edi
 804a6fb:	89 77 fc             	mov    %esi,-0x4(%edi)
 804a6fe:	01 b5 7c ff ff ff    	add    %esi,-0x84(%ebp)
 804a704:	89 47 f8             	mov    %eax,-0x8(%edi)
 804a707:	8b 85 78 ff ff ff    	mov    -0x88(%ebp),%eax
 804a70d:	83 c0 01             	add    $0x1,%eax
 804a710:	83 f8 07             	cmp    $0x7,%eax
 804a713:	89 85 78 ff ff ff    	mov    %eax,-0x88(%ebp)
 804a719:	0f 8f 91 00 00 00    	jg     804a7b0 <_svfprintf_r+0x180>
 804a71f:	01 b5 34 ff ff ff    	add    %esi,-0xcc(%ebp)
 804a725:	80 3b 00             	cmpb   $0x0,(%ebx)
 804a728:	0f 84 aa 00 00 00    	je     804a7d8 <_svfprintf_r+0x1a8>
 804a72e:	8d 43 01             	lea    0x1(%ebx),%eax
 804a731:	be 20 00 00 00       	mov    $0x20,%esi
 804a736:	c6 85 59 ff ff ff 00 	movb   $0x0,-0xa7(%ebp)
 804a73d:	31 db                	xor    %ebx,%ebx
 804a73f:	c7 85 44 ff ff ff ff 	movl   $0xffffffff,-0xbc(%ebp)
 804a746:	ff ff ff 
 804a749:	c7 85 40 ff ff ff 00 	movl   $0x0,-0xc0(%ebp)
 804a750:	00 00 00 
 804a753:	c7 85 4c ff ff ff 00 	movl   $0x0,-0xb4(%ebp)
 804a75a:	00 00 00 
 804a75d:	8d 48 01             	lea    0x1(%eax),%ecx
 804a760:	0f be 00             	movsbl (%eax),%eax
 804a763:	8d 50 e0             	lea    -0x20(%eax),%edx
 804a766:	83 fa 58             	cmp    $0x58,%edx
 804a769:	0f 87 8f 07 00 00    	ja     804aefe <_svfprintf_r+0x8ce>
 804a76f:	ff 24 95 d4 64 05 08 	jmp    *0x80564d4(,%edx,4)
 804a776:	66 90                	xchg   %ax,%ax
 804a778:	83 8d 4c ff ff ff 10 	orl    $0x10,-0xb4(%ebp)
 804a77f:	89 c8                	mov    %ecx,%eax
 804a781:	eb da                	jmp    804a75d <_svfprintf_r+0x12d>
 804a783:	8b 45 14             	mov    0x14(%ebp),%eax
 804a786:	8b 55 14             	mov    0x14(%ebp),%edx
 804a789:	8b 00                	mov    (%eax),%eax
 804a78b:	83 c2 04             	add    $0x4,%edx
 804a78e:	89 55 14             	mov    %edx,0x14(%ebp)
 804a791:	85 c0                	test   %eax,%eax
 804a793:	89 85 40 ff ff ff    	mov    %eax,-0xc0(%ebp)
 804a799:	79 e4                	jns    804a77f <_svfprintf_r+0x14f>
 804a79b:	f7 9d 40 ff ff ff    	negl   -0xc0(%ebp)
 804a7a1:	83 8d 4c ff ff ff 04 	orl    $0x4,-0xb4(%ebp)
 804a7a8:	89 c8                	mov    %ecx,%eax
 804a7aa:	eb b1                	jmp    804a75d <_svfprintf_r+0x12d>
 804a7ac:	8d 74 26 00          	lea    0x0(%esi,%eiz,1),%esi
 804a7b0:	8d 85 74 ff ff ff    	lea    -0x8c(%ebp),%eax
 804a7b6:	89 44 24 08          	mov    %eax,0x8(%esp)
 804a7ba:	8b 45 0c             	mov    0xc(%ebp),%eax
 804a7bd:	89 44 24 04          	mov    %eax,0x4(%esp)
 804a7c1:	8b 45 08             	mov    0x8(%ebp),%eax
 804a7c4:	89 04 24             	mov    %eax,(%esp)
 804a7c7:	e8 d4 78 00 00       	call   80520a0 <__ssprint_r>
 804a7cc:	85 c0                	test   %eax,%eax
 804a7ce:	75 30                	jne    804a800 <_svfprintf_r+0x1d0>
 804a7d0:	8d 7d a8             	lea    -0x58(%ebp),%edi
 804a7d3:	e9 47 ff ff ff       	jmp    804a71f <_svfprintf_r+0xef>
 804a7d8:	8b 85 7c ff ff ff    	mov    -0x84(%ebp),%eax
 804a7de:	85 c0                	test   %eax,%eax
 804a7e0:	74 1e                	je     804a800 <_svfprintf_r+0x1d0>
 804a7e2:	8d 85 74 ff ff ff    	lea    -0x8c(%ebp),%eax
 804a7e8:	89 44 24 08          	mov    %eax,0x8(%esp)
 804a7ec:	8b 45 0c             	mov    0xc(%ebp),%eax
 804a7ef:	89 44 24 04          	mov    %eax,0x4(%esp)
 804a7f3:	8b 45 08             	mov    0x8(%ebp),%eax
 804a7f6:	89 04 24             	mov    %eax,(%esp)
 804a7f9:	e8 a2 78 00 00       	call   80520a0 <__ssprint_r>
 804a7fe:	66 90                	xchg   %ax,%ax
 804a800:	8b 55 0c             	mov    0xc(%ebp),%edx
 804a803:	b8 ff ff ff ff       	mov    $0xffffffff,%eax
 804a808:	f6 42 0c 40          	testb  $0x40,0xc(%edx)
 804a80c:	0f 44 85 34 ff ff ff 	cmove  -0xcc(%ebp),%eax
 804a813:	81 c4 1c 01 00 00    	add    $0x11c,%esp
 804a819:	5b                   	pop    %ebx
 804a81a:	5e                   	pop    %esi
 804a81b:	5f                   	pop    %edi
 804a81c:	5d                   	pop    %ebp
 804a81d:	c3                   	ret    
 804a81e:	bb 2b 00 00 00       	mov    $0x2b,%ebx
 804a823:	89 c8                	mov    %ecx,%eax
 804a825:	e9 33 ff ff ff       	jmp    804a75d <_svfprintf_r+0x12d>
 804a82a:	89 85 24 ff ff ff    	mov    %eax,-0xdc(%ebp)
 804a830:	8b 45 14             	mov    0x14(%ebp),%eax
 804a833:	89 4d 10             	mov    %ecx,0x10(%ebp)
 804a836:	c6 85 59 ff ff ff 00 	movb   $0x0,-0xa7(%ebp)
 804a83d:	8d 70 04             	lea    0x4(%eax),%esi
 804a840:	8b 00                	mov    (%eax),%eax
 804a842:	85 c0                	test   %eax,%eax
 804a844:	89 85 28 ff ff ff    	mov    %eax,-0xd8(%ebp)
 804a84a:	0f 84 7f 18 00 00    	je     804c0cf <_svfprintf_r+0x1a9f>
 804a850:	8b 85 44 ff ff ff    	mov    -0xbc(%ebp),%eax
 804a856:	85 c0                	test   %eax,%eax
 804a858:	0f 88 b6 17 00 00    	js     804c014 <_svfprintf_r+0x19e4>
 804a85e:	89 44 24 08          	mov    %eax,0x8(%esp)
 804a862:	8b 85 28 ff ff ff    	mov    -0xd8(%ebp),%eax
 804a868:	c7 44 24 04 00 00 00 	movl   $0x0,0x4(%esp)
 804a86f:	00 
 804a870:	89 04 24             	mov    %eax,(%esp)
 804a873:	e8 e8 66 00 00       	call   8050f60 <memchr>
 804a878:	85 c0                	test   %eax,%eax
 804a87a:	0f 84 a0 19 00 00    	je     804c220 <_svfprintf_r+0x1bf0>
 804a880:	8b 95 44 ff ff ff    	mov    -0xbc(%ebp),%edx
 804a886:	2b 85 28 ff ff ff    	sub    -0xd8(%ebp),%eax
 804a88c:	39 d0                	cmp    %edx,%eax
 804a88e:	0f 4f c2             	cmovg  %edx,%eax
 804a891:	89 c2                	mov    %eax,%edx
 804a893:	0f b6 9d 59 ff ff ff 	movzbl -0xa7(%ebp),%ebx
 804a89a:	89 85 38 ff ff ff    	mov    %eax,-0xc8(%ebp)
 804a8a0:	31 c0                	xor    %eax,%eax
 804a8a2:	85 d2                	test   %edx,%edx
 804a8a4:	0f 49 c2             	cmovns %edx,%eax
 804a8a7:	89 85 48 ff ff ff    	mov    %eax,-0xb8(%ebp)
 804a8ad:	89 75 14             	mov    %esi,0x14(%ebp)
 804a8b0:	c7 85 44 ff ff ff 00 	movl   $0x0,-0xbc(%ebp)
 804a8b7:	00 00 00 
 804a8ba:	c7 85 20 ff ff ff 00 	movl   $0x0,-0xe0(%ebp)
 804a8c1:	00 00 00 
 804a8c4:	8d 74 26 00          	lea    0x0(%esi,%eiz,1),%esi
 804a8c8:	84 db                	test   %bl,%bl
 804a8ca:	74 07                	je     804a8d3 <_svfprintf_r+0x2a3>
 804a8cc:	83 85 48 ff ff ff 01 	addl   $0x1,-0xb8(%ebp)
 804a8d3:	8b 8d 48 ff ff ff    	mov    -0xb8(%ebp),%ecx
 804a8d9:	8b b5 4c ff ff ff    	mov    -0xb4(%ebp),%esi
 804a8df:	89 c8                	mov    %ecx,%eax
 804a8e1:	89 f2                	mov    %esi,%edx
 804a8e3:	83 c0 02             	add    $0x2,%eax
 804a8e6:	83 e2 02             	and    $0x2,%edx
 804a8e9:	89 95 30 ff ff ff    	mov    %edx,-0xd0(%ebp)
 804a8ef:	89 f2                	mov    %esi,%edx
 804a8f1:	0f 44 c1             	cmove  %ecx,%eax
 804a8f4:	81 e2 84 00 00 00    	and    $0x84,%edx
 804a8fa:	89 85 48 ff ff ff    	mov    %eax,-0xb8(%ebp)
 804a900:	89 95 2c ff ff ff    	mov    %edx,-0xd4(%ebp)
 804a906:	0f 85 1c 06 00 00    	jne    804af28 <_svfprintf_r+0x8f8>
 804a90c:	8b b5 40 ff ff ff    	mov    -0xc0(%ebp),%esi
 804a912:	2b b5 48 ff ff ff    	sub    -0xb8(%ebp),%esi
 804a918:	85 f6                	test   %esi,%esi
 804a91a:	0f 8e 08 06 00 00    	jle    804af28 <_svfprintf_r+0x8f8>
 804a920:	83 fe 10             	cmp    $0x10,%esi
 804a923:	8b 8d 7c ff ff ff    	mov    -0x84(%ebp),%ecx
 804a929:	8b 85 78 ff ff ff    	mov    -0x88(%ebp),%eax
 804a92f:	8d 9d 74 ff ff ff    	lea    -0x8c(%ebp),%ebx
 804a935:	7f 11                	jg     804a948 <_svfprintf_r+0x318>
 804a937:	eb 6b                	jmp    804a9a4 <_svfprintf_r+0x374>
 804a939:	8d b4 26 00 00 00 00 	lea    0x0(%esi,%eiz,1),%esi
 804a940:	83 ee 10             	sub    $0x10,%esi
 804a943:	83 fe 10             	cmp    $0x10,%esi
 804a946:	7e 5c                	jle    804a9a4 <_svfprintf_r+0x374>
 804a948:	83 c0 01             	add    $0x1,%eax
 804a94b:	83 c1 10             	add    $0x10,%ecx
 804a94e:	c7 07 48 66 05 08    	movl   $0x8056648,(%edi)
 804a954:	83 c7 08             	add    $0x8,%edi
 804a957:	c7 47 fc 10 00 00 00 	movl   $0x10,-0x4(%edi)
 804a95e:	83 f8 07             	cmp    $0x7,%eax
 804a961:	89 8d 7c ff ff ff    	mov    %ecx,-0x84(%ebp)
 804a967:	89 85 78 ff ff ff    	mov    %eax,-0x88(%ebp)
 804a96d:	7e d1                	jle    804a940 <_svfprintf_r+0x310>
 804a96f:	8b 45 0c             	mov    0xc(%ebp),%eax
 804a972:	89 5c 24 08          	mov    %ebx,0x8(%esp)
 804a976:	89 44 24 04          	mov    %eax,0x4(%esp)
 804a97a:	8b 45 08             	mov    0x8(%ebp),%eax
 804a97d:	89 04 24             	mov    %eax,(%esp)
 804a980:	e8 1b 77 00 00       	call   80520a0 <__ssprint_r>
 804a985:	85 c0                	test   %eax,%eax
 804a987:	0f 85 73 fe ff ff    	jne    804a800 <_svfprintf_r+0x1d0>
 804a98d:	83 ee 10             	sub    $0x10,%esi
 804a990:	8b 8d 7c ff ff ff    	mov    -0x84(%ebp),%ecx
 804a996:	83 fe 10             	cmp    $0x10,%esi
 804a999:	8b 85 78 ff ff ff    	mov    -0x88(%ebp),%eax
 804a99f:	8d 7d a8             	lea    -0x58(%ebp),%edi
 804a9a2:	7f a4                	jg     804a948 <_svfprintf_r+0x318>
 804a9a4:	83 c0 01             	add    $0x1,%eax
 804a9a7:	01 f1                	add    %esi,%ecx
 804a9a9:	83 f8 07             	cmp    $0x7,%eax
 804a9ac:	c7 07 48 66 05 08    	movl   $0x8056648,(%edi)
 804a9b2:	89 77 04             	mov    %esi,0x4(%edi)
 804a9b5:	89 8d 7c ff ff ff    	mov    %ecx,-0x84(%ebp)
 804a9bb:	89 85 78 ff ff ff    	mov    %eax,-0x88(%ebp)
 804a9c1:	0f 8f 16 0e 00 00    	jg     804b7dd <_svfprintf_r+0x11ad>
 804a9c7:	83 c7 08             	add    $0x8,%edi
 804a9ca:	0f b6 9d 59 ff ff ff 	movzbl -0xa7(%ebp),%ebx
 804a9d1:	e9 58 05 00 00       	jmp    804af2e <_svfprintf_r+0x8fe>
 804a9d6:	f6 85 4c ff ff ff 10 	testb  $0x10,-0xb4(%ebp)
 804a9dd:	89 85 24 ff ff ff    	mov    %eax,-0xdc(%ebp)
 804a9e3:	8b 45 14             	mov    0x14(%ebp),%eax
 804a9e6:	89 4d 10             	mov    %ecx,0x10(%ebp)
 804a9e9:	0f 85 fd 04 00 00    	jne    804aeec <_svfprintf_r+0x8bc>
 804a9ef:	f6 85 4c ff ff ff 40 	testb  $0x40,-0xb4(%ebp)
 804a9f6:	0f 84 f0 04 00 00    	je     804aeec <_svfprintf_r+0x8bc>
 804a9fc:	0f b7 08             	movzwl (%eax),%ecx
 804a9ff:	83 c0 04             	add    $0x4,%eax
 804aa02:	89 45 14             	mov    %eax,0x14(%ebp)
 804aa05:	b8 01 00 00 00       	mov    $0x1,%eax
 804aa0a:	8d b6 00 00 00 00    	lea    0x0(%esi),%esi
 804aa10:	c6 85 59 ff ff ff 00 	movb   $0x0,-0xa7(%ebp)
 804aa17:	31 db                	xor    %ebx,%ebx
 804aa19:	8b b5 4c ff ff ff    	mov    -0xb4(%ebp),%esi
 804aa1f:	89 f2                	mov    %esi,%edx
 804aa21:	80 e2 7f             	and    $0x7f,%dl
 804aa24:	83 bd 44 ff ff ff 00 	cmpl   $0x0,-0xbc(%ebp)
 804aa2b:	0f 48 d6             	cmovs  %esi,%edx
 804aa2e:	89 95 4c ff ff ff    	mov    %edx,-0xb4(%ebp)
 804aa34:	8b 95 44 ff ff ff    	mov    -0xbc(%ebp),%edx
 804aa3a:	85 d2                	test   %edx,%edx
 804aa3c:	75 08                	jne    804aa46 <_svfprintf_r+0x416>
 804aa3e:	85 c9                	test   %ecx,%ecx
 804aa40:	0f 84 ea 08 00 00    	je     804b330 <_svfprintf_r+0xd00>
 804aa46:	3c 01                	cmp    $0x1,%al
 804aa48:	0f 84 6a 0d 00 00    	je     804b7b8 <_svfprintf_r+0x1188>
 804aa4e:	3c 02                	cmp    $0x2,%al
 804aa50:	8d 45 a8             	lea    -0x58(%ebp),%eax
 804aa53:	0f 85 bf 0b 00 00    	jne    804b618 <_svfprintf_r+0xfe8>
 804aa59:	8b b5 18 ff ff ff    	mov    -0xe8(%ebp),%esi
 804aa5f:	90                   	nop
 804aa60:	89 ca                	mov    %ecx,%edx
 804aa62:	83 e8 01             	sub    $0x1,%eax
 804aa65:	83 e2 0f             	and    $0xf,%edx
 804aa68:	0f b6 14 16          	movzbl (%esi,%edx,1),%edx
 804aa6c:	c1 e9 04             	shr    $0x4,%ecx
 804aa6f:	85 c9                	test   %ecx,%ecx
 804aa71:	88 10                	mov    %dl,(%eax)
 804aa73:	75 eb                	jne    804aa60 <_svfprintf_r+0x430>
 804aa75:	8d 55 a8             	lea    -0x58(%ebp),%edx
 804aa78:	29 c2                	sub    %eax,%edx
 804aa7a:	89 85 28 ff ff ff    	mov    %eax,-0xd8(%ebp)
 804aa80:	89 95 38 ff ff ff    	mov    %edx,-0xc8(%ebp)
 804aa86:	66 90                	xchg   %ax,%ax
 804aa88:	8b 85 44 ff ff ff    	mov    -0xbc(%ebp),%eax
 804aa8e:	8b 95 38 ff ff ff    	mov    -0xc8(%ebp),%edx
 804aa94:	c7 85 20 ff ff ff 00 	movl   $0x0,-0xe0(%ebp)
 804aa9b:	00 00 00 
 804aa9e:	39 c2                	cmp    %eax,%edx
 804aaa0:	0f 4d c2             	cmovge %edx,%eax
 804aaa3:	89 85 48 ff ff ff    	mov    %eax,-0xb8(%ebp)
 804aaa9:	e9 1a fe ff ff       	jmp    804a8c8 <_svfprintf_r+0x298>
 804aaae:	84 db                	test   %bl,%bl
 804aab0:	89 c8                	mov    %ecx,%eax
 804aab2:	0f 44 de             	cmove  %esi,%ebx
 804aab5:	e9 a3 fc ff ff       	jmp    804a75d <_svfprintf_r+0x12d>
 804aaba:	83 8d 4c ff ff ff 01 	orl    $0x1,-0xb4(%ebp)
 804aac1:	89 c8                	mov    %ecx,%eax
 804aac3:	e9 95 fc ff ff       	jmp    804a75d <_svfprintf_r+0x12d>
 804aac8:	81 8d 4c ff ff ff 80 	orl    $0x80,-0xb4(%ebp)
 804aacf:	00 00 00 
 804aad2:	89 c8                	mov    %ecx,%eax
 804aad4:	e9 84 fc ff ff       	jmp    804a75d <_svfprintf_r+0x12d>
 804aad9:	89 bd 48 ff ff ff    	mov    %edi,-0xb8(%ebp)
 804aadf:	8d 50 d0             	lea    -0x30(%eax),%edx
 804aae2:	31 ff                	xor    %edi,%edi
 804aae4:	c7 85 40 ff ff ff 00 	movl   $0x0,-0xc0(%ebp)
 804aaeb:	00 00 00 
 804aaee:	66 90                	xchg   %ax,%ax
 804aaf0:	8d 04 bf             	lea    (%edi,%edi,4),%eax
 804aaf3:	83 c1 01             	add    $0x1,%ecx
 804aaf6:	8d 3c 42             	lea    (%edx,%eax,2),%edi
 804aaf9:	0f be 41 ff          	movsbl -0x1(%ecx),%eax
 804aafd:	8d 50 d0             	lea    -0x30(%eax),%edx
 804ab00:	83 fa 09             	cmp    $0x9,%edx
 804ab03:	76 eb                	jbe    804aaf0 <_svfprintf_r+0x4c0>
 804ab05:	89 bd 40 ff ff ff    	mov    %edi,-0xc0(%ebp)
 804ab0b:	8b bd 48 ff ff ff    	mov    -0xb8(%ebp),%edi
 804ab11:	e9 4d fc ff ff       	jmp    804a763 <_svfprintf_r+0x133>
 804ab16:	83 8d 4c ff ff ff 10 	orl    $0x10,-0xb4(%ebp)
 804ab1d:	f6 85 4c ff ff ff 10 	testb  $0x10,-0xb4(%ebp)
 804ab24:	89 85 24 ff ff ff    	mov    %eax,-0xdc(%ebp)
 804ab2a:	8b 45 14             	mov    0x14(%ebp),%eax
 804ab2d:	89 4d 10             	mov    %ecx,0x10(%ebp)
 804ab30:	88 9d 59 ff ff ff    	mov    %bl,-0xa7(%ebp)
 804ab36:	0f 85 61 02 00 00    	jne    804ad9d <_svfprintf_r+0x76d>
 804ab3c:	f6 85 4c ff ff ff 40 	testb  $0x40,-0xb4(%ebp)
 804ab43:	0f 84 54 02 00 00    	je     804ad9d <_svfprintf_r+0x76d>
 804ab49:	0f bf 08             	movswl (%eax),%ecx
 804ab4c:	83 c0 04             	add    $0x4,%eax
 804ab4f:	89 45 14             	mov    %eax,0x14(%ebp)
 804ab52:	85 c9                	test   %ecx,%ecx
 804ab54:	0f 88 53 02 00 00    	js     804adad <_svfprintf_r+0x77d>
 804ab5a:	0f b6 9d 59 ff ff ff 	movzbl -0xa7(%ebp),%ebx
 804ab61:	b8 01 00 00 00       	mov    $0x1,%eax
 804ab66:	e9 ae fe ff ff       	jmp    804aa19 <_svfprintf_r+0x3e9>
 804ab6b:	f6 85 4c ff ff ff 08 	testb  $0x8,-0xb4(%ebp)
 804ab72:	89 85 24 ff ff ff    	mov    %eax,-0xdc(%ebp)
 804ab78:	8b 45 14             	mov    0x14(%ebp),%eax
 804ab7b:	89 4d 10             	mov    %ecx,0x10(%ebp)
 804ab7e:	88 9d 59 ff ff ff    	mov    %bl,-0xa7(%ebp)
 804ab84:	0f 84 15 10 00 00    	je     804bb9f <_svfprintf_r+0x156f>
 804ab8a:	db 28                	fldt   (%eax)
 804ab8c:	83 c0 0c             	add    $0xc,%eax
 804ab8f:	89 45 14             	mov    %eax,0x14(%ebp)
 804ab92:	dd 9d 10 ff ff ff    	fstpl  -0xf0(%ebp)
 804ab98:	dd 85 10 ff ff ff    	fldl   -0xf0(%ebp)
 804ab9e:	dd 1c 24             	fstpl  (%esp)
 804aba1:	e8 da 72 00 00       	call   8051e80 <__fpclassifyd>
 804aba6:	83 f8 01             	cmp    $0x1,%eax
 804aba9:	0f 85 82 0f 00 00    	jne    804bb31 <_svfprintf_r+0x1501>
 804abaf:	d9 ee                	fldz   
 804abb1:	dd 85 10 ff ff ff    	fldl   -0xf0(%ebp)
 804abb7:	d9 c9                	fxch   %st(1)
 804abb9:	df e9                	fucomip %st(1),%st
 804abbb:	dd d8                	fstp   %st(0)
 804abbd:	0f 87 59 15 00 00    	ja     804c11c <_svfprintf_r+0x1aec>
 804abc3:	0f b6 9d 59 ff ff ff 	movzbl -0xa7(%ebp),%ebx
 804abca:	83 bd 24 ff ff ff 47 	cmpl   $0x47,-0xdc(%ebp)
 804abd1:	ba 98 64 05 08       	mov    $0x8056498,%edx
 804abd6:	b8 9c 64 05 08       	mov    $0x805649c,%eax
 804abdb:	c7 85 48 ff ff ff 03 	movl   $0x3,-0xb8(%ebp)
 804abe2:	00 00 00 
 804abe5:	0f 4e c2             	cmovle %edx,%eax
 804abe8:	89 85 28 ff ff ff    	mov    %eax,-0xd8(%ebp)
 804abee:	81 a5 4c ff ff ff 7f 	andl   $0xffffff7f,-0xb4(%ebp)
 804abf5:	ff ff ff 
 804abf8:	c7 85 38 ff ff ff 03 	movl   $0x3,-0xc8(%ebp)
 804abff:	00 00 00 
 804ac02:	c7 85 44 ff ff ff 00 	movl   $0x0,-0xbc(%ebp)
 804ac09:	00 00 00 
 804ac0c:	c7 85 20 ff ff ff 00 	movl   $0x0,-0xe0(%ebp)
 804ac13:	00 00 00 
 804ac16:	e9 ad fc ff ff       	jmp    804a8c8 <_svfprintf_r+0x298>
 804ac1b:	8d 41 01             	lea    0x1(%ecx),%eax
 804ac1e:	89 85 48 ff ff ff    	mov    %eax,-0xb8(%ebp)
 804ac24:	0f be 01             	movsbl (%ecx),%eax
 804ac27:	83 f8 2a             	cmp    $0x2a,%eax
 804ac2a:	0f 84 84 18 00 00    	je     804c4b4 <_svfprintf_r+0x1e84>
 804ac30:	8d 50 d0             	lea    -0x30(%eax),%edx
 804ac33:	31 c9                	xor    %ecx,%ecx
 804ac35:	83 fa 09             	cmp    $0x9,%edx
 804ac38:	0f 87 a8 16 00 00    	ja     804c2e6 <_svfprintf_r+0x1cb6>
 804ac3e:	89 bd 44 ff ff ff    	mov    %edi,-0xbc(%ebp)
 804ac44:	8b bd 48 ff ff ff    	mov    -0xb8(%ebp),%edi
 804ac4a:	8d b6 00 00 00 00    	lea    0x0(%esi),%esi
 804ac50:	8d 04 89             	lea    (%ecx,%ecx,4),%eax
 804ac53:	83 c7 01             	add    $0x1,%edi
 804ac56:	8d 0c 42             	lea    (%edx,%eax,2),%ecx
 804ac59:	0f be 47 ff          	movsbl -0x1(%edi),%eax
 804ac5d:	8d 50 d0             	lea    -0x30(%eax),%edx
 804ac60:	83 fa 09             	cmp    $0x9,%edx
 804ac63:	76 eb                	jbe    804ac50 <_svfprintf_r+0x620>
 804ac65:	85 c9                	test   %ecx,%ecx
 804ac67:	89 ca                	mov    %ecx,%edx
 804ac69:	b9 ff ff ff ff       	mov    $0xffffffff,%ecx
 804ac6e:	0f 48 d1             	cmovs  %ecx,%edx
 804ac71:	89 bd 48 ff ff ff    	mov    %edi,-0xb8(%ebp)
 804ac77:	8b bd 44 ff ff ff    	mov    -0xbc(%ebp),%edi
 804ac7d:	8b 8d 48 ff ff ff    	mov    -0xb8(%ebp),%ecx
 804ac83:	89 95 44 ff ff ff    	mov    %edx,-0xbc(%ebp)
 804ac89:	e9 d5 fa ff ff       	jmp    804a763 <_svfprintf_r+0x133>
 804ac8e:	8b 45 14             	mov    0x14(%ebp),%eax
 804ac91:	89 4d 10             	mov    %ecx,0x10(%ebp)
 804ac94:	83 8d 4c ff ff ff 02 	orl    $0x2,-0xb4(%ebp)
 804ac9b:	8b 08                	mov    (%eax),%ecx
 804ac9d:	83 c0 04             	add    $0x4,%eax
 804aca0:	89 45 14             	mov    %eax,0x14(%ebp)
 804aca3:	b8 02 00 00 00       	mov    $0x2,%eax
 804aca8:	c6 85 5a ff ff ff 30 	movb   $0x30,-0xa6(%ebp)
 804acaf:	c6 85 5b ff ff ff 78 	movb   $0x78,-0xa5(%ebp)
 804acb6:	c7 85 18 ff ff ff b9 	movl   $0x80564b9,-0xe8(%ebp)
 804acbd:	64 05 08 
 804acc0:	c7 85 24 ff ff ff 78 	movl   $0x78,-0xdc(%ebp)
 804acc7:	00 00 00 
 804acca:	e9 41 fd ff ff       	jmp    804aa10 <_svfprintf_r+0x3e0>
 804accf:	f6 85 4c ff ff ff 10 	testb  $0x10,-0xb4(%ebp)
 804acd6:	89 85 24 ff ff ff    	mov    %eax,-0xdc(%ebp)
 804acdc:	8b 45 14             	mov    0x14(%ebp),%eax
 804acdf:	89 4d 10             	mov    %ecx,0x10(%ebp)
 804ace2:	0f 85 87 00 00 00    	jne    804ad6f <_svfprintf_r+0x73f>
 804ace8:	f6 85 4c ff ff ff 40 	testb  $0x40,-0xb4(%ebp)
 804acef:	74 7e                	je     804ad6f <_svfprintf_r+0x73f>
 804acf1:	0f b7 08             	movzwl (%eax),%ecx
 804acf4:	83 c0 04             	add    $0x4,%eax
 804acf7:	89 45 14             	mov    %eax,0x14(%ebp)
 804acfa:	31 c0                	xor    %eax,%eax
 804acfc:	e9 0f fd ff ff       	jmp    804aa10 <_svfprintf_r+0x3e0>
 804ad01:	83 8d 4c ff ff ff 08 	orl    $0x8,-0xb4(%ebp)
 804ad08:	89 c8                	mov    %ecx,%eax
 804ad0a:	e9 4e fa ff ff       	jmp    804a75d <_svfprintf_r+0x12d>
 804ad0f:	f6 85 4c ff ff ff 10 	testb  $0x10,-0xb4(%ebp)
 804ad16:	89 4d 10             	mov    %ecx,0x10(%ebp)
 804ad19:	88 9d 59 ff ff ff    	mov    %bl,-0xa7(%ebp)
 804ad1f:	0f 85 97 0b 00 00    	jne    804b8bc <_svfprintf_r+0x128c>
 804ad25:	f6 85 4c ff ff ff 40 	testb  $0x40,-0xb4(%ebp)
 804ad2c:	0f 84 8a 0b 00 00    	je     804b8bc <_svfprintf_r+0x128c>
 804ad32:	8b 45 14             	mov    0x14(%ebp),%eax
 804ad35:	0f b7 95 34 ff ff ff 	movzwl -0xcc(%ebp),%edx
 804ad3c:	8b 00                	mov    (%eax),%eax
 804ad3e:	66 89 10             	mov    %dx,(%eax)
 804ad41:	8b 45 14             	mov    0x14(%ebp),%eax
 804ad44:	83 c0 04             	add    $0x4,%eax
 804ad47:	89 45 14             	mov    %eax,0x14(%ebp)
 804ad4a:	e9 7c f9 ff ff       	jmp    804a6cb <_svfprintf_r+0x9b>
 804ad4f:	83 8d 4c ff ff ff 10 	orl    $0x10,-0xb4(%ebp)
 804ad56:	f6 85 4c ff ff ff 10 	testb  $0x10,-0xb4(%ebp)
 804ad5d:	89 85 24 ff ff ff    	mov    %eax,-0xdc(%ebp)
 804ad63:	8b 45 14             	mov    0x14(%ebp),%eax
 804ad66:	89 4d 10             	mov    %ecx,0x10(%ebp)
 804ad69:	0f 84 79 ff ff ff    	je     804ace8 <_svfprintf_r+0x6b8>
 804ad6f:	8b 08                	mov    (%eax),%ecx
 804ad71:	83 c0 04             	add    $0x4,%eax
 804ad74:	89 45 14             	mov    %eax,0x14(%ebp)
 804ad77:	31 c0                	xor    %eax,%eax
 804ad79:	e9 92 fc ff ff       	jmp    804aa10 <_svfprintf_r+0x3e0>
 804ad7e:	f6 85 4c ff ff ff 10 	testb  $0x10,-0xb4(%ebp)
 804ad85:	89 85 24 ff ff ff    	mov    %eax,-0xdc(%ebp)
 804ad8b:	8b 45 14             	mov    0x14(%ebp),%eax
 804ad8e:	89 4d 10             	mov    %ecx,0x10(%ebp)
 804ad91:	88 9d 59 ff ff ff    	mov    %bl,-0xa7(%ebp)
 804ad97:	0f 84 9f fd ff ff    	je     804ab3c <_svfprintf_r+0x50c>
 804ad9d:	8b 08                	mov    (%eax),%ecx
 804ad9f:	83 c0 04             	add    $0x4,%eax
 804ada2:	89 45 14             	mov    %eax,0x14(%ebp)
 804ada5:	85 c9                	test   %ecx,%ecx
 804ada7:	0f 89 ad fd ff ff    	jns    804ab5a <_svfprintf_r+0x52a>
 804adad:	f7 d9                	neg    %ecx
 804adaf:	bb 2d 00 00 00       	mov    $0x2d,%ebx
 804adb4:	c6 85 59 ff ff ff 2d 	movb   $0x2d,-0xa7(%ebp)
 804adbb:	b8 01 00 00 00       	mov    $0x1,%eax
 804adc0:	e9 54 fc ff ff       	jmp    804aa19 <_svfprintf_r+0x3e9>
 804adc5:	83 8d 4c ff ff ff 40 	orl    $0x40,-0xb4(%ebp)
 804adcc:	89 c8                	mov    %ecx,%eax
 804adce:	e9 8a f9 ff ff       	jmp    804a75d <_svfprintf_r+0x12d>
 804add3:	f6 85 4c ff ff ff 10 	testb  $0x10,-0xb4(%ebp)
 804adda:	89 85 24 ff ff ff    	mov    %eax,-0xdc(%ebp)
 804ade0:	8b 45 14             	mov    0x14(%ebp),%eax
 804ade3:	89 4d 10             	mov    %ecx,0x10(%ebp)
 804ade6:	88 9d 59 ff ff ff    	mov    %bl,-0xa7(%ebp)
 804adec:	c7 85 18 ff ff ff b9 	movl   $0x80564b9,-0xe8(%ebp)
 804adf3:	64 05 08 
 804adf6:	75 71                	jne    804ae69 <_svfprintf_r+0x839>
 804adf8:	f6 85 4c ff ff ff 40 	testb  $0x40,-0xb4(%ebp)
 804adff:	74 68                	je     804ae69 <_svfprintf_r+0x839>
 804ae01:	0f b7 08             	movzwl (%eax),%ecx
 804ae04:	83 c0 04             	add    $0x4,%eax
 804ae07:	89 45 14             	mov    %eax,0x14(%ebp)
 804ae0a:	f6 85 4c ff ff ff 01 	testb  $0x1,-0xb4(%ebp)
 804ae11:	b8 02 00 00 00       	mov    $0x2,%eax
 804ae16:	0f 84 f4 fb ff ff    	je     804aa10 <_svfprintf_r+0x3e0>
 804ae1c:	85 c9                	test   %ecx,%ecx
 804ae1e:	0f 84 ec fb ff ff    	je     804aa10 <_svfprintf_r+0x3e0>
 804ae24:	0f b6 95 24 ff ff ff 	movzbl -0xdc(%ebp),%edx
 804ae2b:	c6 85 5a ff ff ff 30 	movb   $0x30,-0xa6(%ebp)
 804ae32:	83 8d 4c ff ff ff 02 	orl    $0x2,-0xb4(%ebp)
 804ae39:	88 95 5b ff ff ff    	mov    %dl,-0xa5(%ebp)
 804ae3f:	e9 cc fb ff ff       	jmp    804aa10 <_svfprintf_r+0x3e0>
 804ae44:	f6 85 4c ff ff ff 10 	testb  $0x10,-0xb4(%ebp)
 804ae4b:	89 85 24 ff ff ff    	mov    %eax,-0xdc(%ebp)
 804ae51:	8b 45 14             	mov    0x14(%ebp),%eax
 804ae54:	89 4d 10             	mov    %ecx,0x10(%ebp)
 804ae57:	88 9d 59 ff ff ff    	mov    %bl,-0xa7(%ebp)
 804ae5d:	c7 85 18 ff ff ff a8 	movl   $0x80564a8,-0xe8(%ebp)
 804ae64:	64 05 08 
 804ae67:	74 8f                	je     804adf8 <_svfprintf_r+0x7c8>
 804ae69:	8b 08                	mov    (%eax),%ecx
 804ae6b:	83 c0 04             	add    $0x4,%eax
 804ae6e:	89 45 14             	mov    %eax,0x14(%ebp)
 804ae71:	eb 97                	jmp    804ae0a <_svfprintf_r+0x7da>
 804ae73:	89 85 24 ff ff ff    	mov    %eax,-0xdc(%ebp)
 804ae79:	8b 45 14             	mov    0x14(%ebp),%eax
 804ae7c:	89 4d 10             	mov    %ecx,0x10(%ebp)
 804ae7f:	c6 85 59 ff ff ff 00 	movb   $0x0,-0xa7(%ebp)
 804ae86:	8b 00                	mov    (%eax),%eax
 804ae88:	88 45 80             	mov    %al,-0x80(%ebp)
 804ae8b:	8b 45 14             	mov    0x14(%ebp),%eax
 804ae8e:	83 c0 04             	add    $0x4,%eax
 804ae91:	89 45 14             	mov    %eax,0x14(%ebp)
 804ae94:	8d 45 80             	lea    -0x80(%ebp),%eax
 804ae97:	31 db                	xor    %ebx,%ebx
 804ae99:	c7 85 48 ff ff ff 01 	movl   $0x1,-0xb8(%ebp)
 804aea0:	00 00 00 
 804aea3:	c7 85 38 ff ff ff 01 	movl   $0x1,-0xc8(%ebp)
 804aeaa:	00 00 00 
 804aead:	c7 85 44 ff ff ff 00 	movl   $0x0,-0xbc(%ebp)
 804aeb4:	00 00 00 
 804aeb7:	c7 85 20 ff ff ff 00 	movl   $0x0,-0xe0(%ebp)
 804aebe:	00 00 00 
 804aec1:	89 85 28 ff ff ff    	mov    %eax,-0xd8(%ebp)
 804aec7:	e9 07 fa ff ff       	jmp    804a8d3 <_svfprintf_r+0x2a3>
 804aecc:	83 8d 4c ff ff ff 10 	orl    $0x10,-0xb4(%ebp)
 804aed3:	f6 85 4c ff ff ff 10 	testb  $0x10,-0xb4(%ebp)
 804aeda:	89 85 24 ff ff ff    	mov    %eax,-0xdc(%ebp)
 804aee0:	8b 45 14             	mov    0x14(%ebp),%eax
 804aee3:	89 4d 10             	mov    %ecx,0x10(%ebp)
 804aee6:	0f 84 03 fb ff ff    	je     804a9ef <_svfprintf_r+0x3bf>
 804aeec:	8b 08                	mov    (%eax),%ecx
 804aeee:	83 c0 04             	add    $0x4,%eax
 804aef1:	89 45 14             	mov    %eax,0x14(%ebp)
 804aef4:	b8 01 00 00 00       	mov    $0x1,%eax
 804aef9:	e9 12 fb ff ff       	jmp    804aa10 <_svfprintf_r+0x3e0>
 804aefe:	85 c0                	test   %eax,%eax
 804af00:	89 85 24 ff ff ff    	mov    %eax,-0xdc(%ebp)
 804af06:	89 4d 10             	mov    %ecx,0x10(%ebp)
 804af09:	88 9d 59 ff ff ff    	mov    %bl,-0xa7(%ebp)
 804af0f:	0f 84 c3 f8 ff ff    	je     804a7d8 <_svfprintf_r+0x1a8>
 804af15:	88 45 80             	mov    %al,-0x80(%ebp)
 804af18:	c6 85 59 ff ff ff 00 	movb   $0x0,-0xa7(%ebp)
 804af1f:	e9 70 ff ff ff       	jmp    804ae94 <_svfprintf_r+0x864>
 804af24:	8d 74 26 00          	lea    0x0(%esi,%eiz,1),%esi
 804af28:	8b 8d 7c ff ff ff    	mov    -0x84(%ebp),%ecx
 804af2e:	84 db                	test   %bl,%bl
 804af30:	74 33                	je     804af65 <_svfprintf_r+0x935>
 804af32:	8d 85 59 ff ff ff    	lea    -0xa7(%ebp),%eax
 804af38:	83 c1 01             	add    $0x1,%ecx
 804af3b:	89 07                	mov    %eax,(%edi)
 804af3d:	8b 85 78 ff ff ff    	mov    -0x88(%ebp),%eax
 804af43:	83 c7 08             	add    $0x8,%edi
 804af46:	c7 47 fc 01 00 00 00 	movl   $0x1,-0x4(%edi)
 804af4d:	89 8d 7c ff ff ff    	mov    %ecx,-0x84(%ebp)
 804af53:	83 c0 01             	add    $0x1,%eax
 804af56:	83 f8 07             	cmp    $0x7,%eax
 804af59:	89 85 78 ff ff ff    	mov    %eax,-0x88(%ebp)
 804af5f:	0f 8f 7b 06 00 00    	jg     804b5e0 <_svfprintf_r+0xfb0>
 804af65:	8b 9d 30 ff ff ff    	mov    -0xd0(%ebp),%ebx
 804af6b:	85 db                	test   %ebx,%ebx
 804af6d:	74 33                	je     804afa2 <_svfprintf_r+0x972>
 804af6f:	8d 85 5a ff ff ff    	lea    -0xa6(%ebp),%eax
 804af75:	83 c1 02             	add    $0x2,%ecx
 804af78:	89 07                	mov    %eax,(%edi)
 804af7a:	8b 85 78 ff ff ff    	mov    -0x88(%ebp),%eax
 804af80:	83 c7 08             	add    $0x8,%edi
 804af83:	c7 47 fc 02 00 00 00 	movl   $0x2,-0x4(%edi)
 804af8a:	89 8d 7c ff ff ff    	mov    %ecx,-0x84(%ebp)
 804af90:	83 c0 01             	add    $0x1,%eax
 804af93:	83 f8 07             	cmp    $0x7,%eax
 804af96:	89 85 78 ff ff ff    	mov    %eax,-0x88(%ebp)
 804af9c:	0f 8f 06 06 00 00    	jg     804b5a8 <_svfprintf_r+0xf78>
 804afa2:	81 bd 2c ff ff ff 80 	cmpl   $0x80,-0xd4(%ebp)
 804afa9:	00 00 00 
 804afac:	0f 84 c6 03 00 00    	je     804b378 <_svfprintf_r+0xd48>
 804afb2:	8b b5 44 ff ff ff    	mov    -0xbc(%ebp),%esi
 804afb8:	2b b5 38 ff ff ff    	sub    -0xc8(%ebp),%esi
 804afbe:	85 f6                	test   %esi,%esi
 804afc0:	0f 8e d2 00 00 00    	jle    804b098 <_svfprintf_r+0xa68>
 804afc6:	83 fe 10             	cmp    $0x10,%esi
 804afc9:	8b 85 78 ff ff ff    	mov    -0x88(%ebp),%eax
 804afcf:	8d 9d 74 ff ff ff    	lea    -0x8c(%ebp),%ebx
 804afd5:	7f 11                	jg     804afe8 <_svfprintf_r+0x9b8>
 804afd7:	eb 6b                	jmp    804b044 <_svfprintf_r+0xa14>
 804afd9:	8d b4 26 00 00 00 00 	lea    0x0(%esi,%eiz,1),%esi
 804afe0:	83 ee 10             	sub    $0x10,%esi
 804afe3:	83 fe 10             	cmp    $0x10,%esi
 804afe6:	7e 5c                	jle    804b044 <_svfprintf_r+0xa14>
 804afe8:	83 c0 01             	add    $0x1,%eax
 804afeb:	83 c1 10             	add    $0x10,%ecx
 804afee:	c7 07 38 66 05 08    	movl   $0x8056638,(%edi)
 804aff4:	83 c7 08             	add    $0x8,%edi
 804aff7:	c7 47 fc 10 00 00 00 	movl   $0x10,-0x4(%edi)
 804affe:	83 f8 07             	cmp    $0x7,%eax
 804b001:	89 8d 7c ff ff ff    	mov    %ecx,-0x84(%ebp)
 804b007:	89 85 78 ff ff ff    	mov    %eax,-0x88(%ebp)
 804b00d:	7e d1                	jle    804afe0 <_svfprintf_r+0x9b0>
 804b00f:	8b 45 0c             	mov    0xc(%ebp),%eax
 804b012:	89 5c 24 08          	mov    %ebx,0x8(%esp)
 804b016:	89 44 24 04          	mov    %eax,0x4(%esp)
 804b01a:	8b 45 08             	mov    0x8(%ebp),%eax
 804b01d:	89 04 24             	mov    %eax,(%esp)
 804b020:	e8 7b 70 00 00       	call   80520a0 <__ssprint_r>
 804b025:	85 c0                	test   %eax,%eax
 804b027:	0f 85 d3 f7 ff ff    	jne    804a800 <_svfprintf_r+0x1d0>
 804b02d:	83 ee 10             	sub    $0x10,%esi
 804b030:	8b 8d 7c ff ff ff    	mov    -0x84(%ebp),%ecx
 804b036:	83 fe 10             	cmp    $0x10,%esi
 804b039:	8b 85 78 ff ff ff    	mov    -0x88(%ebp),%eax
 804b03f:	8d 7d a8             	lea    -0x58(%ebp),%edi
 804b042:	7f a4                	jg     804afe8 <_svfprintf_r+0x9b8>
 804b044:	83 c0 01             	add    $0x1,%eax
 804b047:	01 f1                	add    %esi,%ecx
 804b049:	c7 07 38 66 05 08    	movl   $0x8056638,(%edi)
 804b04f:	83 c7 08             	add    $0x8,%edi
 804b052:	89 77 fc             	mov    %esi,-0x4(%edi)
 804b055:	83 f8 07             	cmp    $0x7,%eax
 804b058:	89 8d 7c ff ff ff    	mov    %ecx,-0x84(%ebp)
 804b05e:	89 85 78 ff ff ff    	mov    %eax,-0x88(%ebp)
 804b064:	7e 32                	jle    804b098 <_svfprintf_r+0xa68>
 804b066:	8d 85 74 ff ff ff    	lea    -0x8c(%ebp),%eax
 804b06c:	89 44 24 08          	mov    %eax,0x8(%esp)
 804b070:	8b 45 0c             	mov    0xc(%ebp),%eax
 804b073:	89 44 24 04          	mov    %eax,0x4(%esp)
 804b077:	8b 45 08             	mov    0x8(%ebp),%eax
 804b07a:	89 04 24             	mov    %eax,(%esp)
 804b07d:	e8 1e 70 00 00       	call   80520a0 <__ssprint_r>
 804b082:	85 c0                	test   %eax,%eax
 804b084:	0f 85 76 f7 ff ff    	jne    804a800 <_svfprintf_r+0x1d0>
 804b08a:	8b 8d 7c ff ff ff    	mov    -0x84(%ebp),%ecx
 804b090:	8d 7d a8             	lea    -0x58(%ebp),%edi
 804b093:	90                   	nop
 804b094:	8d 74 26 00          	lea    0x0(%esi,%eiz,1),%esi
 804b098:	f7 85 4c ff ff ff 00 	testl  $0x100,-0xb4(%ebp)
 804b09f:	01 00 00 
 804b0a2:	0f 85 50 01 00 00    	jne    804b1f8 <_svfprintf_r+0xbc8>
 804b0a8:	8b 85 28 ff ff ff    	mov    -0xd8(%ebp),%eax
 804b0ae:	89 07                	mov    %eax,(%edi)
 804b0b0:	8b 85 38 ff ff ff    	mov    -0xc8(%ebp),%eax
 804b0b6:	01 c1                	add    %eax,%ecx
 804b0b8:	89 47 04             	mov    %eax,0x4(%edi)
 804b0bb:	8b 85 78 ff ff ff    	mov    -0x88(%ebp),%eax
 804b0c1:	89 8d 7c ff ff ff    	mov    %ecx,-0x84(%ebp)
 804b0c7:	83 c0 01             	add    $0x1,%eax
 804b0ca:	83 f8 07             	cmp    $0x7,%eax
 804b0cd:	89 85 78 ff ff ff    	mov    %eax,-0x88(%ebp)
 804b0d3:	0f 8f 6a 04 00 00    	jg     804b543 <_svfprintf_r+0xf13>
 804b0d9:	83 c7 08             	add    $0x8,%edi
 804b0dc:	f6 85 4c ff ff ff 04 	testb  $0x4,-0xb4(%ebp)
 804b0e3:	0f 84 d7 00 00 00    	je     804b1c0 <_svfprintf_r+0xb90>
 804b0e9:	8b b5 40 ff ff ff    	mov    -0xc0(%ebp),%esi
 804b0ef:	2b b5 48 ff ff ff    	sub    -0xb8(%ebp),%esi
 804b0f5:	85 f6                	test   %esi,%esi
 804b0f7:	0f 8e c3 00 00 00    	jle    804b1c0 <_svfprintf_r+0xb90>
 804b0fd:	83 fe 10             	cmp    $0x10,%esi
 804b100:	8b 85 78 ff ff ff    	mov    -0x88(%ebp),%eax
 804b106:	8d 9d 74 ff ff ff    	lea    -0x8c(%ebp),%ebx
 804b10c:	7f 0a                	jg     804b118 <_svfprintf_r+0xae8>
 804b10e:	eb 64                	jmp    804b174 <_svfprintf_r+0xb44>
 804b110:	83 ee 10             	sub    $0x10,%esi
 804b113:	83 fe 10             	cmp    $0x10,%esi
 804b116:	7e 5c                	jle    804b174 <_svfprintf_r+0xb44>
 804b118:	83 c0 01             	add    $0x1,%eax
 804b11b:	83 c1 10             	add    $0x10,%ecx
 804b11e:	c7 07 48 66 05 08    	movl   $0x8056648,(%edi)
 804b124:	83 c7 08             	add    $0x8,%edi
 804b127:	c7 47 fc 10 00 00 00 	movl   $0x10,-0x4(%edi)
 804b12e:	83 f8 07             	cmp    $0x7,%eax
 804b131:	89 8d 7c ff ff ff    	mov    %ecx,-0x84(%ebp)
 804b137:	89 85 78 ff ff ff    	mov    %eax,-0x88(%ebp)
 804b13d:	7e d1                	jle    804b110 <_svfprintf_r+0xae0>
 804b13f:	8b 45 0c             	mov    0xc(%ebp),%eax
 804b142:	89 5c 24 08          	mov    %ebx,0x8(%esp)
 804b146:	89 44 24 04          	mov    %eax,0x4(%esp)
 804b14a:	8b 45 08             	mov    0x8(%ebp),%eax
 804b14d:	89 04 24             	mov    %eax,(%esp)
 804b150:	e8 4b 6f 00 00       	call   80520a0 <__ssprint_r>
 804b155:	85 c0                	test   %eax,%eax
 804b157:	0f 85 a3 f6 ff ff    	jne    804a800 <_svfprintf_r+0x1d0>
 804b15d:	83 ee 10             	sub    $0x10,%esi
 804b160:	8b 8d 7c ff ff ff    	mov    -0x84(%ebp),%ecx
 804b166:	83 fe 10             	cmp    $0x10,%esi
 804b169:	8b 85 78 ff ff ff    	mov    -0x88(%ebp),%eax
 804b16f:	8d 7d a8             	lea    -0x58(%ebp),%edi
 804b172:	7f a4                	jg     804b118 <_svfprintf_r+0xae8>
 804b174:	83 c0 01             	add    $0x1,%eax
 804b177:	01 f1                	add    %esi,%ecx
 804b179:	83 f8 07             	cmp    $0x7,%eax
 804b17c:	c7 07 48 66 05 08    	movl   $0x8056648,(%edi)
 804b182:	89 77 04             	mov    %esi,0x4(%edi)
 804b185:	89 8d 7c ff ff ff    	mov    %ecx,-0x84(%ebp)
 804b18b:	89 85 78 ff ff ff    	mov    %eax,-0x88(%ebp)
 804b191:	7e 2d                	jle    804b1c0 <_svfprintf_r+0xb90>
 804b193:	8d 85 74 ff ff ff    	lea    -0x8c(%ebp),%eax
 804b199:	89 44 24 08          	mov    %eax,0x8(%esp)
 804b19d:	8b 45 0c             	mov    0xc(%ebp),%eax
 804b1a0:	89 44 24 04          	mov    %eax,0x4(%esp)
 804b1a4:	8b 45 08             	mov    0x8(%ebp),%eax
 804b1a7:	89 04 24             	mov    %eax,(%esp)
 804b1aa:	e8 f1 6e 00 00       	call   80520a0 <__ssprint_r>
 804b1af:	85 c0                	test   %eax,%eax
 804b1b1:	0f 85 49 f6 ff ff    	jne    804a800 <_svfprintf_r+0x1d0>
 804b1b7:	8b 8d 7c ff ff ff    	mov    -0x84(%ebp),%ecx
 804b1bd:	8d 76 00             	lea    0x0(%esi),%esi
 804b1c0:	8b 85 40 ff ff ff    	mov    -0xc0(%ebp),%eax
 804b1c6:	8b 95 48 ff ff ff    	mov    -0xb8(%ebp),%edx
 804b1cc:	39 c2                	cmp    %eax,%edx
 804b1ce:	0f 4d c2             	cmovge %edx,%eax
 804b1d1:	01 85 34 ff ff ff    	add    %eax,-0xcc(%ebp)
 804b1d7:	85 c9                	test   %ecx,%ecx
 804b1d9:	0f 85 99 03 00 00    	jne    804b578 <_svfprintf_r+0xf48>
 804b1df:	c7 85 78 ff ff ff 00 	movl   $0x0,-0x88(%ebp)
 804b1e6:	00 00 00 
 804b1e9:	8d 7d a8             	lea    -0x58(%ebp),%edi
 804b1ec:	e9 da f4 ff ff       	jmp    804a6cb <_svfprintf_r+0x9b>
 804b1f1:	8d b4 26 00 00 00 00 	lea    0x0(%esi,%eiz,1),%esi
 804b1f8:	83 bd 24 ff ff ff 65 	cmpl   $0x65,-0xdc(%ebp)
 804b1ff:	0f 8e 5b 02 00 00    	jle    804b460 <_svfprintf_r+0xe30>
 804b205:	d9 ee                	fldz   
 804b207:	dd 85 10 ff ff ff    	fldl   -0xf0(%ebp)
 804b20d:	df e9                	fucomip %st(1),%st
 804b20f:	dd d8                	fstp   %st(0)
 804b211:	0f 8a 59 04 00 00    	jp     804b670 <_svfprintf_r+0x1040>
 804b217:	0f 85 53 04 00 00    	jne    804b670 <_svfprintf_r+0x1040>
 804b21d:	8b 85 78 ff ff ff    	mov    -0x88(%ebp),%eax
 804b223:	83 c1 01             	add    $0x1,%ecx
 804b226:	83 c7 08             	add    $0x8,%edi
 804b229:	c7 47 f8 d1 64 05 08 	movl   $0x80564d1,-0x8(%edi)
 804b230:	c7 47 fc 01 00 00 00 	movl   $0x1,-0x4(%edi)
 804b237:	89 8d 7c ff ff ff    	mov    %ecx,-0x84(%ebp)
 804b23d:	83 c0 01             	add    $0x1,%eax
 804b240:	83 f8 07             	cmp    $0x7,%eax
 804b243:	89 85 78 ff ff ff    	mov    %eax,-0x88(%ebp)
 804b249:	0f 8f 63 09 00 00    	jg     804bbb2 <_svfprintf_r+0x1582>
 804b24f:	8b 85 1c ff ff ff    	mov    -0xe4(%ebp),%eax
 804b255:	39 85 5c ff ff ff    	cmp    %eax,-0xa4(%ebp)
 804b25b:	7c 0d                	jl     804b26a <_svfprintf_r+0xc3a>
 804b25d:	f6 85 4c ff ff ff 01 	testb  $0x1,-0xb4(%ebp)
 804b264:	0f 84 72 fe ff ff    	je     804b0dc <_svfprintf_r+0xaac>
 804b26a:	8b 85 0c ff ff ff    	mov    -0xf4(%ebp),%eax
 804b270:	83 c7 08             	add    $0x8,%edi
 804b273:	89 47 f8             	mov    %eax,-0x8(%edi)
 804b276:	8b 85 08 ff ff ff    	mov    -0xf8(%ebp),%eax
 804b27c:	89 47 fc             	mov    %eax,-0x4(%edi)
 804b27f:	01 c1                	add    %eax,%ecx
 804b281:	8b 85 78 ff ff ff    	mov    -0x88(%ebp),%eax
 804b287:	89 8d 7c ff ff ff    	mov    %ecx,-0x84(%ebp)
 804b28d:	83 c0 01             	add    $0x1,%eax
 804b290:	83 f8 07             	cmp    $0x7,%eax
 804b293:	89 85 78 ff ff ff    	mov    %eax,-0x88(%ebp)
 804b299:	0f 8f dc 0b 00 00    	jg     804be7b <_svfprintf_r+0x184b>
 804b29f:	8b 85 1c ff ff ff    	mov    -0xe4(%ebp),%eax
 804b2a5:	8d 70 ff             	lea    -0x1(%eax),%esi
 804b2a8:	85 f6                	test   %esi,%esi
 804b2aa:	0f 8e 2c fe ff ff    	jle    804b0dc <_svfprintf_r+0xaac>
 804b2b0:	83 fe 10             	cmp    $0x10,%esi
 804b2b3:	8b 85 78 ff ff ff    	mov    -0x88(%ebp),%eax
 804b2b9:	8d 9d 74 ff ff ff    	lea    -0x8c(%ebp),%ebx
 804b2bf:	7f 13                	jg     804b2d4 <_svfprintf_r+0xca4>
 804b2c1:	e9 e6 05 00 00       	jmp    804b8ac <_svfprintf_r+0x127c>
 804b2c6:	66 90                	xchg   %ax,%ax
 804b2c8:	83 ee 10             	sub    $0x10,%esi
 804b2cb:	83 fe 10             	cmp    $0x10,%esi
 804b2ce:	0f 8e d8 05 00 00    	jle    804b8ac <_svfprintf_r+0x127c>
 804b2d4:	83 c0 01             	add    $0x1,%eax
 804b2d7:	83 c1 10             	add    $0x10,%ecx
 804b2da:	c7 07 38 66 05 08    	movl   $0x8056638,(%edi)
 804b2e0:	83 c7 08             	add    $0x8,%edi
 804b2e3:	c7 47 fc 10 00 00 00 	movl   $0x10,-0x4(%edi)
 804b2ea:	83 f8 07             	cmp    $0x7,%eax
 804b2ed:	89 8d 7c ff ff ff    	mov    %ecx,-0x84(%ebp)
 804b2f3:	89 85 78 ff ff ff    	mov    %eax,-0x88(%ebp)
 804b2f9:	7e cd                	jle    804b2c8 <_svfprintf_r+0xc98>
 804b2fb:	8b 45 0c             	mov    0xc(%ebp),%eax
 804b2fe:	89 5c 24 08          	mov    %ebx,0x8(%esp)
 804b302:	89 44 24 04          	mov    %eax,0x4(%esp)
 804b306:	8b 45 08             	mov    0x8(%ebp),%eax
 804b309:	89 04 24             	mov    %eax,(%esp)
 804b30c:	e8 8f 6d 00 00       	call   80520a0 <__ssprint_r>
 804b311:	85 c0                	test   %eax,%eax
 804b313:	0f 85 e7 f4 ff ff    	jne    804a800 <_svfprintf_r+0x1d0>
 804b319:	8b 8d 7c ff ff ff    	mov    -0x84(%ebp),%ecx
 804b31f:	8d 7d a8             	lea    -0x58(%ebp),%edi
 804b322:	8b 85 78 ff ff ff    	mov    -0x88(%ebp),%eax
 804b328:	eb 9e                	jmp    804b2c8 <_svfprintf_r+0xc98>
 804b32a:	8d b6 00 00 00 00    	lea    0x0(%esi),%esi
 804b330:	84 c0                	test   %al,%al
 804b332:	75 2c                	jne    804b360 <_svfprintf_r+0xd30>
 804b334:	f6 85 4c ff ff ff 01 	testb  $0x1,-0xb4(%ebp)
 804b33b:	74 23                	je     804b360 <_svfprintf_r+0xd30>
 804b33d:	8b 85 00 ff ff ff    	mov    -0x100(%ebp),%eax
 804b343:	c6 45 a7 30          	movb   $0x30,-0x59(%ebp)
 804b347:	89 85 38 ff ff ff    	mov    %eax,-0xc8(%ebp)
 804b34d:	8d 45 a7             	lea    -0x59(%ebp),%eax
 804b350:	89 85 28 ff ff ff    	mov    %eax,-0xd8(%ebp)
 804b356:	e9 2d f7 ff ff       	jmp    804aa88 <_svfprintf_r+0x458>
 804b35b:	90                   	nop
 804b35c:	8d 74 26 00          	lea    0x0(%esi,%eiz,1),%esi
 804b360:	8d 45 a8             	lea    -0x58(%ebp),%eax
 804b363:	c7 85 38 ff ff ff 00 	movl   $0x0,-0xc8(%ebp)
 804b36a:	00 00 00 
 804b36d:	89 85 28 ff ff ff    	mov    %eax,-0xd8(%ebp)
 804b373:	e9 10 f7 ff ff       	jmp    804aa88 <_svfprintf_r+0x458>
 804b378:	8b b5 40 ff ff ff    	mov    -0xc0(%ebp),%esi
 804b37e:	2b b5 48 ff ff ff    	sub    -0xb8(%ebp),%esi
 804b384:	85 f6                	test   %esi,%esi
 804b386:	0f 8e 26 fc ff ff    	jle    804afb2 <_svfprintf_r+0x982>
 804b38c:	83 fe 10             	cmp    $0x10,%esi
 804b38f:	8b 85 78 ff ff ff    	mov    -0x88(%ebp),%eax
 804b395:	8d 9d 74 ff ff ff    	lea    -0x8c(%ebp),%ebx
 804b39b:	7f 0b                	jg     804b3a8 <_svfprintf_r+0xd78>
 804b39d:	eb 65                	jmp    804b404 <_svfprintf_r+0xdd4>
 804b39f:	90                   	nop
 804b3a0:	83 ee 10             	sub    $0x10,%esi
 804b3a3:	83 fe 10             	cmp    $0x10,%esi
 804b3a6:	7e 5c                	jle    804b404 <_svfprintf_r+0xdd4>
 804b3a8:	83 c0 01             	add    $0x1,%eax
 804b3ab:	83 c1 10             	add    $0x10,%ecx
 804b3ae:	c7 07 38 66 05 08    	movl   $0x8056638,(%edi)
 804b3b4:	83 c7 08             	add    $0x8,%edi
 804b3b7:	c7 47 fc 10 00 00 00 	movl   $0x10,-0x4(%edi)
 804b3be:	83 f8 07             	cmp    $0x7,%eax
 804b3c1:	89 8d 7c ff ff ff    	mov    %ecx,-0x84(%ebp)
 804b3c7:	89 85 78 ff ff ff    	mov    %eax,-0x88(%ebp)
 804b3cd:	7e d1                	jle    804b3a0 <_svfprintf_r+0xd70>
 804b3cf:	8b 45 0c             	mov    0xc(%ebp),%eax
 804b3d2:	89 5c 24 08          	mov    %ebx,0x8(%esp)
 804b3d6:	89 44 24 04          	mov    %eax,0x4(%esp)
 804b3da:	8b 45 08             	mov    0x8(%ebp),%eax
 804b3dd:	89 04 24             	mov    %eax,(%esp)
 804b3e0:	e8 bb 6c 00 00       	call   80520a0 <__ssprint_r>
 804b3e5:	85 c0                	test   %eax,%eax
 804b3e7:	0f 85 13 f4 ff ff    	jne    804a800 <_svfprintf_r+0x1d0>
 804b3ed:	83 ee 10             	sub    $0x10,%esi
 804b3f0:	8b 8d 7c ff ff ff    	mov    -0x84(%ebp),%ecx
 804b3f6:	83 fe 10             	cmp    $0x10,%esi
 804b3f9:	8b 85 78 ff ff ff    	mov    -0x88(%ebp),%eax
 804b3ff:	8d 7d a8             	lea    -0x58(%ebp),%edi
 804b402:	7f a4                	jg     804b3a8 <_svfprintf_r+0xd78>
 804b404:	83 c0 01             	add    $0x1,%eax
 804b407:	01 f1                	add    %esi,%ecx
 804b409:	c7 07 38 66 05 08    	movl   $0x8056638,(%edi)
 804b40f:	83 c7 08             	add    $0x8,%edi
 804b412:	89 77 fc             	mov    %esi,-0x4(%edi)
 804b415:	83 f8 07             	cmp    $0x7,%eax
 804b418:	89 8d 7c ff ff ff    	mov    %ecx,-0x84(%ebp)
 804b41e:	89 85 78 ff ff ff    	mov    %eax,-0x88(%ebp)
 804b424:	0f 8e 88 fb ff ff    	jle    804afb2 <_svfprintf_r+0x982>
 804b42a:	8d 85 74 ff ff ff    	lea    -0x8c(%ebp),%eax
 804b430:	89 44 24 08          	mov    %eax,0x8(%esp)
 804b434:	8b 45 0c             	mov    0xc(%ebp),%eax
 804b437:	89 44 24 04          	mov    %eax,0x4(%esp)
 804b43b:	8b 45 08             	mov    0x8(%ebp),%eax
 804b43e:	89 04 24             	mov    %eax,(%esp)
 804b441:	e8 5a 6c 00 00       	call   80520a0 <__ssprint_r>
 804b446:	85 c0                	test   %eax,%eax
 804b448:	0f 85 b2 f3 ff ff    	jne    804a800 <_svfprintf_r+0x1d0>
 804b44e:	8b 8d 7c ff ff ff    	mov    -0x84(%ebp),%ecx
 804b454:	8d 7d a8             	lea    -0x58(%ebp),%edi
 804b457:	e9 56 fb ff ff       	jmp    804afb2 <_svfprintf_r+0x982>
 804b45c:	8d 74 26 00          	lea    0x0(%esi,%eiz,1),%esi
 804b460:	83 bd 1c ff ff ff 01 	cmpl   $0x1,-0xe4(%ebp)
 804b467:	8b 85 28 ff ff ff    	mov    -0xd8(%ebp),%eax
 804b46d:	0f 8e df 05 00 00    	jle    804ba52 <_svfprintf_r+0x1422>
 804b473:	89 07                	mov    %eax,(%edi)
 804b475:	8b 85 78 ff ff ff    	mov    -0x88(%ebp),%eax
 804b47b:	8d 51 01             	lea    0x1(%ecx),%edx
 804b47e:	c7 47 04 01 00 00 00 	movl   $0x1,0x4(%edi)
 804b485:	83 c7 08             	add    $0x8,%edi
 804b488:	89 95 7c ff ff ff    	mov    %edx,-0x84(%ebp)
 804b48e:	83 c0 01             	add    $0x1,%eax
 804b491:	83 f8 07             	cmp    $0x7,%eax
 804b494:	89 85 78 ff ff ff    	mov    %eax,-0x88(%ebp)
 804b49a:	0f 8f 59 06 00 00    	jg     804baf9 <_svfprintf_r+0x14c9>
 804b4a0:	8b 9d 0c ff ff ff    	mov    -0xf4(%ebp),%ebx
 804b4a6:	83 c0 01             	add    $0x1,%eax
 804b4a9:	83 c7 08             	add    $0x8,%edi
 804b4ac:	89 85 78 ff ff ff    	mov    %eax,-0x88(%ebp)
 804b4b2:	89 5f f8             	mov    %ebx,-0x8(%edi)
 804b4b5:	8b 9d 08 ff ff ff    	mov    -0xf8(%ebp),%ebx
 804b4bb:	89 5f fc             	mov    %ebx,-0x4(%edi)
 804b4be:	01 da                	add    %ebx,%edx
 804b4c0:	83 f8 07             	cmp    $0x7,%eax
 804b4c3:	89 95 7c ff ff ff    	mov    %edx,-0x84(%ebp)
 804b4c9:	0f 8f f2 05 00 00    	jg     804bac1 <_svfprintf_r+0x1491>
 804b4cf:	d9 ee                	fldz   
 804b4d1:	dd 85 10 ff ff ff    	fldl   -0xf0(%ebp)
 804b4d7:	df e9                	fucomip %st(1),%st
 804b4d9:	dd d8                	fstp   %st(0)
 804b4db:	7a 06                	jp     804b4e3 <_svfprintf_r+0xeb3>
 804b4dd:	0f 84 33 03 00 00    	je     804b816 <_svfprintf_r+0x11e6>
 804b4e3:	8b 8d 28 ff ff ff    	mov    -0xd8(%ebp),%ecx
 804b4e9:	8b 9d 1c ff ff ff    	mov    -0xe4(%ebp),%ebx
 804b4ef:	83 c1 01             	add    $0x1,%ecx
 804b4f2:	89 0f                	mov    %ecx,(%edi)
 804b4f4:	8d 4b ff             	lea    -0x1(%ebx),%ecx
 804b4f7:	89 4f 04             	mov    %ecx,0x4(%edi)
 804b4fa:	01 ca                	add    %ecx,%edx
 804b4fc:	83 c0 01             	add    $0x1,%eax
 804b4ff:	83 f8 07             	cmp    $0x7,%eax
 804b502:	89 95 7c ff ff ff    	mov    %edx,-0x84(%ebp)
 804b508:	89 85 78 ff ff ff    	mov    %eax,-0x88(%ebp)
 804b50e:	0f 8f 75 05 00 00    	jg     804ba89 <_svfprintf_r+0x1459>
 804b514:	83 c7 08             	add    $0x8,%edi
 804b517:	8b 9d 04 ff ff ff    	mov    -0xfc(%ebp),%ebx
 804b51d:	8d 8d 65 ff ff ff    	lea    -0x9b(%ebp),%ecx
 804b523:	89 0f                	mov    %ecx,(%edi)
 804b525:	89 5f 04             	mov    %ebx,0x4(%edi)
 804b528:	8d 0c 1a             	lea    (%edx,%ebx,1),%ecx
 804b52b:	83 c0 01             	add    $0x1,%eax
 804b52e:	83 f8 07             	cmp    $0x7,%eax
 804b531:	89 8d 7c ff ff ff    	mov    %ecx,-0x84(%ebp)
 804b537:	89 85 78 ff ff ff    	mov    %eax,-0x88(%ebp)
 804b53d:	0f 8e 96 fb ff ff    	jle    804b0d9 <_svfprintf_r+0xaa9>
 804b543:	8d 85 74 ff ff ff    	lea    -0x8c(%ebp),%eax
 804b549:	89 44 24 08          	mov    %eax,0x8(%esp)
 804b54d:	8b 45 0c             	mov    0xc(%ebp),%eax
 804b550:	89 44 24 04          	mov    %eax,0x4(%esp)
 804b554:	8b 45 08             	mov    0x8(%ebp),%eax
 804b557:	89 04 24             	mov    %eax,(%esp)
 804b55a:	e8 41 6b 00 00       	call   80520a0 <__ssprint_r>
 804b55f:	85 c0                	test   %eax,%eax
 804b561:	0f 85 99 f2 ff ff    	jne    804a800 <_svfprintf_r+0x1d0>
 804b567:	8b 8d 7c ff ff ff    	mov    -0x84(%ebp),%ecx
 804b56d:	8d 7d a8             	lea    -0x58(%ebp),%edi
 804b570:	e9 67 fb ff ff       	jmp    804b0dc <_svfprintf_r+0xaac>
 804b575:	8d 76 00             	lea    0x0(%esi),%esi
 804b578:	8d 85 74 ff ff ff    	lea    -0x8c(%ebp),%eax
 804b57e:	89 44 24 08          	mov    %eax,0x8(%esp)
 804b582:	8b 45 0c             	mov    0xc(%ebp),%eax
 804b585:	89 44 24 04          	mov    %eax,0x4(%esp)
 804b589:	8b 45 08             	mov    0x8(%ebp),%eax
 804b58c:	89 04 24             	mov    %eax,(%esp)
 804b58f:	e8 0c 6b 00 00       	call   80520a0 <__ssprint_r>
 804b594:	85 c0                	test   %eax,%eax
 804b596:	0f 84 43 fc ff ff    	je     804b1df <_svfprintf_r+0xbaf>
 804b59c:	e9 5f f2 ff ff       	jmp    804a800 <_svfprintf_r+0x1d0>
 804b5a1:	8d b4 26 00 00 00 00 	lea    0x0(%esi,%eiz,1),%esi
 804b5a8:	8d 85 74 ff ff ff    	lea    -0x8c(%ebp),%eax
 804b5ae:	89 44 24 08          	mov    %eax,0x8(%esp)
 804b5b2:	8b 45 0c             	mov    0xc(%ebp),%eax
 804b5b5:	89 44 24 04          	mov    %eax,0x4(%esp)
 804b5b9:	8b 45 08             	mov    0x8(%ebp),%eax
 804b5bc:	89 04 24             	mov    %eax,(%esp)
 804b5bf:	e8 dc 6a 00 00       	call   80520a0 <__ssprint_r>
 804b5c4:	85 c0                	test   %eax,%eax
 804b5c6:	0f 85 34 f2 ff ff    	jne    804a800 <_svfprintf_r+0x1d0>
 804b5cc:	8b 8d 7c ff ff ff    	mov    -0x84(%ebp),%ecx
 804b5d2:	8d 7d a8             	lea    -0x58(%ebp),%edi
 804b5d5:	e9 c8 f9 ff ff       	jmp    804afa2 <_svfprintf_r+0x972>
 804b5da:	8d b6 00 00 00 00    	lea    0x0(%esi),%esi
 804b5e0:	8d 85 74 ff ff ff    	lea    -0x8c(%ebp),%eax
 804b5e6:	89 44 24 08          	mov    %eax,0x8(%esp)
 804b5ea:	8b 45 0c             	mov    0xc(%ebp),%eax
 804b5ed:	89 44 24 04          	mov    %eax,0x4(%esp)
 804b5f1:	8b 45 08             	mov    0x8(%ebp),%eax
 804b5f4:	89 04 24             	mov    %eax,(%esp)
 804b5f7:	e8 a4 6a 00 00       	call   80520a0 <__ssprint_r>
 804b5fc:	85 c0                	test   %eax,%eax
 804b5fe:	0f 85 fc f1 ff ff    	jne    804a800 <_svfprintf_r+0x1d0>
 804b604:	8b 8d 7c ff ff ff    	mov    -0x84(%ebp),%ecx
 804b60a:	8d 7d a8             	lea    -0x58(%ebp),%edi
 804b60d:	e9 53 f9 ff ff       	jmp    804af65 <_svfprintf_r+0x935>
 804b612:	8d b6 00 00 00 00    	lea    0x0(%esi),%esi
 804b618:	89 c2                	mov    %eax,%edx
 804b61a:	8d b6 00 00 00 00    	lea    0x0(%esi),%esi
 804b620:	89 c8                	mov    %ecx,%eax
 804b622:	83 ea 01             	sub    $0x1,%edx
 804b625:	83 e0 07             	and    $0x7,%eax
 804b628:	c1 e9 03             	shr    $0x3,%ecx
 804b62b:	83 c0 30             	add    $0x30,%eax
 804b62e:	85 c9                	test   %ecx,%ecx
 804b630:	88 02                	mov    %al,(%edx)
 804b632:	75 ec                	jne    804b620 <_svfprintf_r+0xff0>
 804b634:	f6 85 4c ff ff ff 01 	testb  $0x1,-0xb4(%ebp)
 804b63b:	89 95 28 ff ff ff    	mov    %edx,-0xd8(%ebp)
 804b641:	0f 84 5b 01 00 00    	je     804b7a2 <_svfprintf_r+0x1172>
 804b647:	3c 30                	cmp    $0x30,%al
 804b649:	74 0b                	je     804b656 <_svfprintf_r+0x1026>
 804b64b:	83 ad 28 ff ff ff 01 	subl   $0x1,-0xd8(%ebp)
 804b652:	c6 42 ff 30          	movb   $0x30,-0x1(%edx)
 804b656:	8d 45 a8             	lea    -0x58(%ebp),%eax
 804b659:	2b 85 28 ff ff ff    	sub    -0xd8(%ebp),%eax
 804b65f:	89 85 38 ff ff ff    	mov    %eax,-0xc8(%ebp)
 804b665:	e9 1e f4 ff ff       	jmp    804aa88 <_svfprintf_r+0x458>
 804b66a:	8d b6 00 00 00 00    	lea    0x0(%esi),%esi
 804b670:	8b 9d 5c ff ff ff    	mov    -0xa4(%ebp),%ebx
 804b676:	85 db                	test   %ebx,%ebx
 804b678:	0f 8e 66 05 00 00    	jle    804bbe4 <_svfprintf_r+0x15b4>
 804b67e:	8b 95 28 ff ff ff    	mov    -0xd8(%ebp),%edx
 804b684:	8b 85 1c ff ff ff    	mov    -0xe4(%ebp),%eax
 804b68a:	01 d0                	add    %edx,%eax
 804b68c:	89 c3                	mov    %eax,%ebx
 804b68e:	29 d3                	sub    %edx,%ebx
 804b690:	89 85 44 ff ff ff    	mov    %eax,-0xbc(%ebp)
 804b696:	89 d0                	mov    %edx,%eax
 804b698:	8b 95 20 ff ff ff    	mov    -0xe0(%ebp),%edx
 804b69e:	39 d3                	cmp    %edx,%ebx
 804b6a0:	0f 4f da             	cmovg  %edx,%ebx
 804b6a3:	85 db                	test   %ebx,%ebx
 804b6a5:	7e 28                	jle    804b6cf <_svfprintf_r+0x109f>
 804b6a7:	89 07                	mov    %eax,(%edi)
 804b6a9:	8b 85 78 ff ff ff    	mov    -0x88(%ebp),%eax
 804b6af:	01 d9                	add    %ebx,%ecx
 804b6b1:	89 5f 04             	mov    %ebx,0x4(%edi)
 804b6b4:	83 c7 08             	add    $0x8,%edi
 804b6b7:	89 8d 7c ff ff ff    	mov    %ecx,-0x84(%ebp)
 804b6bd:	83 c0 01             	add    $0x1,%eax
 804b6c0:	83 f8 07             	cmp    $0x7,%eax
 804b6c3:	89 85 78 ff ff ff    	mov    %eax,-0x88(%ebp)
 804b6c9:	0f 8f 58 09 00 00    	jg     804c027 <_svfprintf_r+0x19f7>
 804b6cf:	8b b5 20 ff ff ff    	mov    -0xe0(%ebp),%esi
 804b6d5:	31 c0                	xor    %eax,%eax
 804b6d7:	85 db                	test   %ebx,%ebx
 804b6d9:	0f 49 c3             	cmovns %ebx,%eax
 804b6dc:	29 c6                	sub    %eax,%esi
 804b6de:	85 f6                	test   %esi,%esi
 804b6e0:	0f 8e 40 02 00 00    	jle    804b926 <_svfprintf_r+0x12f6>
 804b6e6:	83 fe 10             	cmp    $0x10,%esi
 804b6e9:	8b 85 78 ff ff ff    	mov    -0x88(%ebp),%eax
 804b6ef:	8d 9d 74 ff ff ff    	lea    -0x8c(%ebp),%ebx
 804b6f5:	7f 15                	jg     804b70c <_svfprintf_r+0x10dc>
 804b6f7:	e9 db 01 00 00       	jmp    804b8d7 <_svfprintf_r+0x12a7>
 804b6fc:	8d 74 26 00          	lea    0x0(%esi,%eiz,1),%esi
 804b700:	83 ee 10             	sub    $0x10,%esi
 804b703:	83 fe 10             	cmp    $0x10,%esi
 804b706:	0f 8e cb 01 00 00    	jle    804b8d7 <_svfprintf_r+0x12a7>
 804b70c:	83 c0 01             	add    $0x1,%eax
 804b70f:	83 c1 10             	add    $0x10,%ecx
 804b712:	c7 07 38 66 05 08    	movl   $0x8056638,(%edi)
 804b718:	83 c7 08             	add    $0x8,%edi
 804b71b:	c7 47 fc 10 00 00 00 	movl   $0x10,-0x4(%edi)
 804b722:	83 f8 07             	cmp    $0x7,%eax
 804b725:	89 8d 7c ff ff ff    	mov    %ecx,-0x84(%ebp)
 804b72b:	89 85 78 ff ff ff    	mov    %eax,-0x88(%ebp)
 804b731:	7e cd                	jle    804b700 <_svfprintf_r+0x10d0>
 804b733:	8b 45 0c             	mov    0xc(%ebp),%eax
 804b736:	89 5c 24 08          	mov    %ebx,0x8(%esp)
 804b73a:	89 44 24 04          	mov    %eax,0x4(%esp)
 804b73e:	8b 45 08             	mov    0x8(%ebp),%eax
 804b741:	89 04 24             	mov    %eax,(%esp)
 804b744:	e8 57 69 00 00       	call   80520a0 <__ssprint_r>
 804b749:	85 c0                	test   %eax,%eax
 804b74b:	0f 85 af f0 ff ff    	jne    804a800 <_svfprintf_r+0x1d0>
 804b751:	8b 8d 7c ff ff ff    	mov    -0x84(%ebp),%ecx
 804b757:	8d 7d a8             	lea    -0x58(%ebp),%edi
 804b75a:	8b 85 78 ff ff ff    	mov    -0x88(%ebp),%eax
 804b760:	eb 9e                	jmp    804b700 <_svfprintf_r+0x10d0>
 804b762:	8d 45 a8             	lea    -0x58(%ebp),%eax
 804b765:	be cd cc cc cc       	mov    $0xcccccccd,%esi
 804b76a:	89 bd 48 ff ff ff    	mov    %edi,-0xb8(%ebp)
 804b770:	89 c7                	mov    %eax,%edi
 804b772:	8d b6 00 00 00 00    	lea    0x0(%esi),%esi
 804b778:	89 c8                	mov    %ecx,%eax
 804b77a:	83 ef 01             	sub    $0x1,%edi
 804b77d:	f7 e6                	mul    %esi
 804b77f:	c1 ea 03             	shr    $0x3,%edx
 804b782:	8d 04 92             	lea    (%edx,%edx,4),%eax
 804b785:	01 c0                	add    %eax,%eax
 804b787:	29 c1                	sub    %eax,%ecx
 804b789:	83 c1 30             	add    $0x30,%ecx
 804b78c:	85 d2                	test   %edx,%edx
 804b78e:	88 0f                	mov    %cl,(%edi)
 804b790:	89 d1                	mov    %edx,%ecx
 804b792:	75 e4                	jne    804b778 <_svfprintf_r+0x1148>
 804b794:	89 fa                	mov    %edi,%edx
 804b796:	89 bd 28 ff ff ff    	mov    %edi,-0xd8(%ebp)
 804b79c:	8b bd 48 ff ff ff    	mov    -0xb8(%ebp),%edi
 804b7a2:	8d 45 a8             	lea    -0x58(%ebp),%eax
 804b7a5:	29 d0                	sub    %edx,%eax
 804b7a7:	89 85 38 ff ff ff    	mov    %eax,-0xc8(%ebp)
 804b7ad:	e9 d6 f2 ff ff       	jmp    804aa88 <_svfprintf_r+0x458>
 804b7b2:	8d b6 00 00 00 00    	lea    0x0(%esi),%esi
 804b7b8:	83 f9 09             	cmp    $0x9,%ecx
 804b7bb:	77 a5                	ja     804b762 <_svfprintf_r+0x1132>
 804b7bd:	8b 85 00 ff ff ff    	mov    -0x100(%ebp),%eax
 804b7c3:	83 c1 30             	add    $0x30,%ecx
 804b7c6:	88 4d a7             	mov    %cl,-0x59(%ebp)
 804b7c9:	89 85 38 ff ff ff    	mov    %eax,-0xc8(%ebp)
 804b7cf:	8d 45 a7             	lea    -0x59(%ebp),%eax
 804b7d2:	89 85 28 ff ff ff    	mov    %eax,-0xd8(%ebp)
 804b7d8:	e9 ab f2 ff ff       	jmp    804aa88 <_svfprintf_r+0x458>
 804b7dd:	8d 85 74 ff ff ff    	lea    -0x8c(%ebp),%eax
 804b7e3:	89 44 24 08          	mov    %eax,0x8(%esp)
 804b7e7:	8b 45 0c             	mov    0xc(%ebp),%eax
 804b7ea:	89 44 24 04          	mov    %eax,0x4(%esp)
 804b7ee:	8b 45 08             	mov    0x8(%ebp),%eax
 804b7f1:	89 04 24             	mov    %eax,(%esp)
 804b7f4:	e8 a7 68 00 00       	call   80520a0 <__ssprint_r>
 804b7f9:	85 c0                	test   %eax,%eax
 804b7fb:	0f 85 ff ef ff ff    	jne    804a800 <_svfprintf_r+0x1d0>
 804b801:	0f b6 9d 59 ff ff ff 	movzbl -0xa7(%ebp),%ebx
 804b808:	8d 7d a8             	lea    -0x58(%ebp),%edi
 804b80b:	8b 8d 7c ff ff ff    	mov    -0x84(%ebp),%ecx
 804b811:	e9 18 f7 ff ff       	jmp    804af2e <_svfprintf_r+0x8fe>
 804b816:	8b 9d 1c ff ff ff    	mov    -0xe4(%ebp),%ebx
 804b81c:	8d 73 ff             	lea    -0x1(%ebx),%esi
 804b81f:	85 f6                	test   %esi,%esi
 804b821:	0f 8e f0 fc ff ff    	jle    804b517 <_svfprintf_r+0xee7>
 804b827:	83 fe 10             	cmp    $0x10,%esi
 804b82a:	7e 70                	jle    804b89c <_svfprintf_r+0x126c>
 804b82c:	8d 9d 74 ff ff ff    	lea    -0x8c(%ebp),%ebx
 804b832:	eb 0c                	jmp    804b840 <_svfprintf_r+0x1210>
 804b834:	8d 74 26 00          	lea    0x0(%esi,%eiz,1),%esi
 804b838:	83 ee 10             	sub    $0x10,%esi
 804b83b:	83 fe 10             	cmp    $0x10,%esi
 804b83e:	7e 5c                	jle    804b89c <_svfprintf_r+0x126c>
 804b840:	83 c0 01             	add    $0x1,%eax
 804b843:	83 c2 10             	add    $0x10,%edx
 804b846:	c7 07 38 66 05 08    	movl   $0x8056638,(%edi)
 804b84c:	83 c7 08             	add    $0x8,%edi
 804b84f:	c7 47 fc 10 00 00 00 	movl   $0x10,-0x4(%edi)
 804b856:	83 f8 07             	cmp    $0x7,%eax
 804b859:	89 95 7c ff ff ff    	mov    %edx,-0x84(%ebp)
 804b85f:	89 85 78 ff ff ff    	mov    %eax,-0x88(%ebp)
 804b865:	7e d1                	jle    804b838 <_svfprintf_r+0x1208>
 804b867:	8b 45 0c             	mov    0xc(%ebp),%eax
 804b86a:	89 5c 24 08          	mov    %ebx,0x8(%esp)
 804b86e:	89 44 24 04          	mov    %eax,0x4(%esp)
 804b872:	8b 45 08             	mov    0x8(%ebp),%eax
 804b875:	89 04 24             	mov    %eax,(%esp)
 804b878:	e8 23 68 00 00       	call   80520a0 <__ssprint_r>
 804b87d:	85 c0                	test   %eax,%eax
 804b87f:	0f 85 7b ef ff ff    	jne    804a800 <_svfprintf_r+0x1d0>
 804b885:	83 ee 10             	sub    $0x10,%esi
 804b888:	8b 95 7c ff ff ff    	mov    -0x84(%ebp),%edx
 804b88e:	83 fe 10             	cmp    $0x10,%esi
 804b891:	8b 85 78 ff ff ff    	mov    -0x88(%ebp),%eax
 804b897:	8d 7d a8             	lea    -0x58(%ebp),%edi
 804b89a:	7f a4                	jg     804b840 <_svfprintf_r+0x1210>
 804b89c:	c7 07 38 66 05 08    	movl   $0x8056638,(%edi)
 804b8a2:	01 f2                	add    %esi,%edx
 804b8a4:	89 77 04             	mov    %esi,0x4(%edi)
 804b8a7:	e9 50 fc ff ff       	jmp    804b4fc <_svfprintf_r+0xecc>
 804b8ac:	c7 07 38 66 05 08    	movl   $0x8056638,(%edi)
 804b8b2:	01 f1                	add    %esi,%ecx
 804b8b4:	89 77 04             	mov    %esi,0x4(%edi)
 804b8b7:	e9 6f fc ff ff       	jmp    804b52b <_svfprintf_r+0xefb>
 804b8bc:	8b 45 14             	mov    0x14(%ebp),%eax
 804b8bf:	8b 95 34 ff ff ff    	mov    -0xcc(%ebp),%edx
 804b8c5:	8b 00                	mov    (%eax),%eax
 804b8c7:	89 10                	mov    %edx,(%eax)
 804b8c9:	8b 45 14             	mov    0x14(%ebp),%eax
 804b8cc:	83 c0 04             	add    $0x4,%eax
 804b8cf:	89 45 14             	mov    %eax,0x14(%ebp)
 804b8d2:	e9 f4 ed ff ff       	jmp    804a6cb <_svfprintf_r+0x9b>
 804b8d7:	83 c0 01             	add    $0x1,%eax
 804b8da:	01 f1                	add    %esi,%ecx
 804b8dc:	c7 07 38 66 05 08    	movl   $0x8056638,(%edi)
 804b8e2:	83 c7 08             	add    $0x8,%edi
 804b8e5:	89 77 fc             	mov    %esi,-0x4(%edi)
 804b8e8:	83 f8 07             	cmp    $0x7,%eax
 804b8eb:	89 8d 7c ff ff ff    	mov    %ecx,-0x84(%ebp)
 804b8f1:	89 85 78 ff ff ff    	mov    %eax,-0x88(%ebp)
 804b8f7:	7e 2d                	jle    804b926 <_svfprintf_r+0x12f6>
 804b8f9:	8d 85 74 ff ff ff    	lea    -0x8c(%ebp),%eax
 804b8ff:	89 44 24 08          	mov    %eax,0x8(%esp)
 804b903:	8b 45 0c             	mov    0xc(%ebp),%eax
 804b906:	89 44 24 04          	mov    %eax,0x4(%esp)
 804b90a:	8b 45 08             	mov    0x8(%ebp),%eax
 804b90d:	89 04 24             	mov    %eax,(%esp)
 804b910:	e8 8b 67 00 00       	call   80520a0 <__ssprint_r>
 804b915:	85 c0                	test   %eax,%eax
 804b917:	0f 85 e3 ee ff ff    	jne    804a800 <_svfprintf_r+0x1d0>
 804b91d:	8b 8d 7c ff ff ff    	mov    -0x84(%ebp),%ecx
 804b923:	8d 7d a8             	lea    -0x58(%ebp),%edi
 804b926:	8b 85 28 ff ff ff    	mov    -0xd8(%ebp),%eax
 804b92c:	8b 95 5c ff ff ff    	mov    -0xa4(%ebp),%edx
 804b932:	03 85 20 ff ff ff    	add    -0xe0(%ebp),%eax
 804b938:	3b 95 1c ff ff ff    	cmp    -0xe4(%ebp),%edx
 804b93e:	89 c6                	mov    %eax,%esi
 804b940:	7c 0d                	jl     804b94f <_svfprintf_r+0x131f>
 804b942:	f6 85 4c ff ff ff 01 	testb  $0x1,-0xb4(%ebp)
 804b949:	0f 84 5e 05 00 00    	je     804bead <_svfprintf_r+0x187d>
 804b94f:	8b 85 0c ff ff ff    	mov    -0xf4(%ebp),%eax
 804b955:	89 07                	mov    %eax,(%edi)
 804b957:	8b 85 08 ff ff ff    	mov    -0xf8(%ebp),%eax
 804b95d:	01 c1                	add    %eax,%ecx
 804b95f:	89 47 04             	mov    %eax,0x4(%edi)
 804b962:	8b 85 78 ff ff ff    	mov    -0x88(%ebp),%eax
 804b968:	89 8d 7c ff ff ff    	mov    %ecx,-0x84(%ebp)
 804b96e:	83 c0 01             	add    $0x1,%eax
 804b971:	83 f8 07             	cmp    $0x7,%eax
 804b974:	89 85 78 ff ff ff    	mov    %eax,-0x88(%ebp)
 804b97a:	0f 8f d9 06 00 00    	jg     804c059 <_svfprintf_r+0x1a29>
 804b980:	83 c7 08             	add    $0x8,%edi
 804b983:	89 d0                	mov    %edx,%eax
 804b985:	8b 9d 44 ff ff ff    	mov    -0xbc(%ebp),%ebx
 804b98b:	89 f2                	mov    %esi,%edx
 804b98d:	29 f3                	sub    %esi,%ebx
 804b98f:	8b b5 1c ff ff ff    	mov    -0xe4(%ebp),%esi
 804b995:	29 c6                	sub    %eax,%esi
 804b997:	39 de                	cmp    %ebx,%esi
 804b999:	0f 4e de             	cmovle %esi,%ebx
 804b99c:	85 db                	test   %ebx,%ebx
 804b99e:	7e 29                	jle    804b9c9 <_svfprintf_r+0x1399>
 804b9a0:	8b 85 78 ff ff ff    	mov    -0x88(%ebp),%eax
 804b9a6:	01 d9                	add    %ebx,%ecx
 804b9a8:	83 c7 08             	add    $0x8,%edi
 804b9ab:	89 57 f8             	mov    %edx,-0x8(%edi)
 804b9ae:	89 5f fc             	mov    %ebx,-0x4(%edi)
 804b9b1:	89 8d 7c ff ff ff    	mov    %ecx,-0x84(%ebp)
 804b9b7:	83 c0 01             	add    $0x1,%eax
 804b9ba:	83 f8 07             	cmp    $0x7,%eax
 804b9bd:	89 85 78 ff ff ff    	mov    %eax,-0x88(%ebp)
 804b9c3:	0f 8f c8 06 00 00    	jg     804c091 <_svfprintf_r+0x1a61>
 804b9c9:	31 c0                	xor    %eax,%eax
 804b9cb:	85 db                	test   %ebx,%ebx
 804b9cd:	0f 49 c3             	cmovns %ebx,%eax
 804b9d0:	29 c6                	sub    %eax,%esi
 804b9d2:	85 f6                	test   %esi,%esi
 804b9d4:	0f 8e 02 f7 ff ff    	jle    804b0dc <_svfprintf_r+0xaac>
 804b9da:	83 fe 10             	cmp    $0x10,%esi
 804b9dd:	8b 85 78 ff ff ff    	mov    -0x88(%ebp),%eax
 804b9e3:	8d 9d 74 ff ff ff    	lea    -0x8c(%ebp),%ebx
 804b9e9:	7f 11                	jg     804b9fc <_svfprintf_r+0x13cc>
 804b9eb:	e9 bc fe ff ff       	jmp    804b8ac <_svfprintf_r+0x127c>
 804b9f0:	83 ee 10             	sub    $0x10,%esi
 804b9f3:	83 fe 10             	cmp    $0x10,%esi
 804b9f6:	0f 8e b0 fe ff ff    	jle    804b8ac <_svfprintf_r+0x127c>
 804b9fc:	83 c0 01             	add    $0x1,%eax
 804b9ff:	83 c1 10             	add    $0x10,%ecx
 804ba02:	c7 07 38 66 05 08    	movl   $0x8056638,(%edi)
 804ba08:	83 c7 08             	add    $0x8,%edi
 804ba0b:	c7 47 fc 10 00 00 00 	movl   $0x10,-0x4(%edi)
 804ba12:	83 f8 07             	cmp    $0x7,%eax
 804ba15:	89 8d 7c ff ff ff    	mov    %ecx,-0x84(%ebp)
 804ba1b:	89 85 78 ff ff ff    	mov    %eax,-0x88(%ebp)
 804ba21:	7e cd                	jle    804b9f0 <_svfprintf_r+0x13c0>
 804ba23:	8b 45 0c             	mov    0xc(%ebp),%eax
 804ba26:	89 5c 24 08          	mov    %ebx,0x8(%esp)
 804ba2a:	89 44 24 04          	mov    %eax,0x4(%esp)
 804ba2e:	8b 45 08             	mov    0x8(%ebp),%eax
 804ba31:	89 04 24             	mov    %eax,(%esp)
 804ba34:	e8 67 66 00 00       	call   80520a0 <__ssprint_r>
 804ba39:	85 c0                	test   %eax,%eax
 804ba3b:	0f 85 bf ed ff ff    	jne    804a800 <_svfprintf_r+0x1d0>
 804ba41:	8b 8d 7c ff ff ff    	mov    -0x84(%ebp),%ecx
 804ba47:	8d 7d a8             	lea    -0x58(%ebp),%edi
 804ba4a:	8b 85 78 ff ff ff    	mov    -0x88(%ebp),%eax
 804ba50:	eb 9e                	jmp    804b9f0 <_svfprintf_r+0x13c0>
 804ba52:	f6 85 4c ff ff ff 01 	testb  $0x1,-0xb4(%ebp)
 804ba59:	0f 85 14 fa ff ff    	jne    804b473 <_svfprintf_r+0xe43>
 804ba5f:	89 07                	mov    %eax,(%edi)
 804ba61:	8b 85 78 ff ff ff    	mov    -0x88(%ebp),%eax
 804ba67:	8d 51 01             	lea    0x1(%ecx),%edx
 804ba6a:	c7 47 04 01 00 00 00 	movl   $0x1,0x4(%edi)
 804ba71:	89 95 7c ff ff ff    	mov    %edx,-0x84(%ebp)
 804ba77:	83 c0 01             	add    $0x1,%eax
 804ba7a:	83 f8 07             	cmp    $0x7,%eax
 804ba7d:	89 85 78 ff ff ff    	mov    %eax,-0x88(%ebp)
 804ba83:	0f 8e 8b fa ff ff    	jle    804b514 <_svfprintf_r+0xee4>
 804ba89:	8d 85 74 ff ff ff    	lea    -0x8c(%ebp),%eax
 804ba8f:	89 44 24 08          	mov    %eax,0x8(%esp)
 804ba93:	8b 45 0c             	mov    0xc(%ebp),%eax
 804ba96:	89 44 24 04          	mov    %eax,0x4(%esp)
 804ba9a:	8b 45 08             	mov    0x8(%ebp),%eax
 804ba9d:	89 04 24             	mov    %eax,(%esp)
 804baa0:	e8 fb 65 00 00       	call   80520a0 <__ssprint_r>
 804baa5:	85 c0                	test   %eax,%eax
 804baa7:	0f 85 53 ed ff ff    	jne    804a800 <_svfprintf_r+0x1d0>
 804baad:	8b 95 7c ff ff ff    	mov    -0x84(%ebp),%edx
 804bab3:	8d 7d a8             	lea    -0x58(%ebp),%edi
 804bab6:	8b 85 78 ff ff ff    	mov    -0x88(%ebp),%eax
 804babc:	e9 56 fa ff ff       	jmp    804b517 <_svfprintf_r+0xee7>
 804bac1:	8d 85 74 ff ff ff    	lea    -0x8c(%ebp),%eax
 804bac7:	89 44 24 08          	mov    %eax,0x8(%esp)
 804bacb:	8b 45 0c             	mov    0xc(%ebp),%eax
 804bace:	89 44 24 04          	mov    %eax,0x4(%esp)
 804bad2:	8b 45 08             	mov    0x8(%ebp),%eax
 804bad5:	89 04 24             	mov    %eax,(%esp)
 804bad8:	e8 c3 65 00 00       	call   80520a0 <__ssprint_r>
 804badd:	85 c0                	test   %eax,%eax
 804badf:	0f 85 1b ed ff ff    	jne    804a800 <_svfprintf_r+0x1d0>
 804bae5:	8b 95 7c ff ff ff    	mov    -0x84(%ebp),%edx
 804baeb:	8d 7d a8             	lea    -0x58(%ebp),%edi
 804baee:	8b 85 78 ff ff ff    	mov    -0x88(%ebp),%eax
 804baf4:	e9 d6 f9 ff ff       	jmp    804b4cf <_svfprintf_r+0xe9f>
 804baf9:	8d 85 74 ff ff ff    	lea    -0x8c(%ebp),%eax
 804baff:	89 44 24 08          	mov    %eax,0x8(%esp)
 804bb03:	8b 45 0c             	mov    0xc(%ebp),%eax
 804bb06:	89 44 24 04          	mov    %eax,0x4(%esp)
 804bb0a:	8b 45 08             	mov    0x8(%ebp),%eax
 804bb0d:	89 04 24             	mov    %eax,(%esp)
 804bb10:	e8 8b 65 00 00       	call   80520a0 <__ssprint_r>
 804bb15:	85 c0                	test   %eax,%eax
 804bb17:	0f 85 e3 ec ff ff    	jne    804a800 <_svfprintf_r+0x1d0>
 804bb1d:	8b 95 7c ff ff ff    	mov    -0x84(%ebp),%edx
 804bb23:	8d 7d a8             	lea    -0x58(%ebp),%edi
 804bb26:	8b 85 78 ff ff ff    	mov    -0x88(%ebp),%eax
 804bb2c:	e9 6f f9 ff ff       	jmp    804b4a0 <_svfprintf_r+0xe70>
 804bb31:	dd 85 10 ff ff ff    	fldl   -0xf0(%ebp)
 804bb37:	dd 1c 24             	fstpl  (%esp)
 804bb3a:	e8 41 63 00 00       	call   8051e80 <__fpclassifyd>
 804bb3f:	85 c0                	test   %eax,%eax
 804bb41:	0f 85 a3 01 00 00    	jne    804bcea <_svfprintf_r+0x16ba>
 804bb47:	83 bd 24 ff ff ff 47 	cmpl   $0x47,-0xdc(%ebp)
 804bb4e:	ba a0 64 05 08       	mov    $0x80564a0,%edx
 804bb53:	b8 a4 64 05 08       	mov    $0x80564a4,%eax
 804bb58:	0f b6 9d 59 ff ff ff 	movzbl -0xa7(%ebp),%ebx
 804bb5f:	c7 85 48 ff ff ff 03 	movl   $0x3,-0xb8(%ebp)
 804bb66:	00 00 00 
 804bb69:	0f 4e c2             	cmovle %edx,%eax
 804bb6c:	89 85 28 ff ff ff    	mov    %eax,-0xd8(%ebp)
 804bb72:	81 a5 4c ff ff ff 7f 	andl   $0xffffff7f,-0xb4(%ebp)
 804bb79:	ff ff ff 
 804bb7c:	c7 85 38 ff ff ff 03 	movl   $0x3,-0xc8(%ebp)
 804bb83:	00 00 00 
 804bb86:	c7 85 44 ff ff ff 00 	movl   $0x0,-0xbc(%ebp)
 804bb8d:	00 00 00 
 804bb90:	c7 85 20 ff ff ff 00 	movl   $0x0,-0xe0(%ebp)
 804bb97:	00 00 00 
 804bb9a:	e9 29 ed ff ff       	jmp    804a8c8 <_svfprintf_r+0x298>
 804bb9f:	dd 00                	fldl   (%eax)
 804bba1:	83 c0 08             	add    $0x8,%eax
 804bba4:	dd 9d 10 ff ff ff    	fstpl  -0xf0(%ebp)
 804bbaa:	89 45 14             	mov    %eax,0x14(%ebp)
 804bbad:	e9 e6 ef ff ff       	jmp    804ab98 <_svfprintf_r+0x568>
 804bbb2:	8d 85 74 ff ff ff    	lea    -0x8c(%ebp),%eax
 804bbb8:	89 44 24 08          	mov    %eax,0x8(%esp)
 804bbbc:	8b 45 0c             	mov    0xc(%ebp),%eax
 804bbbf:	89 44 24 04          	mov    %eax,0x4(%esp)
 804bbc3:	8b 45 08             	mov    0x8(%ebp),%eax
 804bbc6:	89 04 24             	mov    %eax,(%esp)
 804bbc9:	e8 d2 64 00 00       	call   80520a0 <__ssprint_r>
 804bbce:	85 c0                	test   %eax,%eax
 804bbd0:	0f 85 2a ec ff ff    	jne    804a800 <_svfprintf_r+0x1d0>
 804bbd6:	8b 8d 7c ff ff ff    	mov    -0x84(%ebp),%ecx
 804bbdc:	8d 7d a8             	lea    -0x58(%ebp),%edi
 804bbdf:	e9 6b f6 ff ff       	jmp    804b24f <_svfprintf_r+0xc1f>
 804bbe4:	8b 85 78 ff ff ff    	mov    -0x88(%ebp),%eax
 804bbea:	83 c1 01             	add    $0x1,%ecx
 804bbed:	83 c7 08             	add    $0x8,%edi
 804bbf0:	c7 47 f8 d1 64 05 08 	movl   $0x80564d1,-0x8(%edi)
 804bbf7:	c7 47 fc 01 00 00 00 	movl   $0x1,-0x4(%edi)
 804bbfe:	89 8d 7c ff ff ff    	mov    %ecx,-0x84(%ebp)
 804bc04:	83 c0 01             	add    $0x1,%eax
 804bc07:	83 f8 07             	cmp    $0x7,%eax
 804bc0a:	89 85 78 ff ff ff    	mov    %eax,-0x88(%ebp)
 804bc10:	0f 8f ef 02 00 00    	jg     804bf05 <_svfprintf_r+0x18d5>
 804bc16:	85 db                	test   %ebx,%ebx
 804bc18:	75 17                	jne    804bc31 <_svfprintf_r+0x1601>
 804bc1a:	8b 95 1c ff ff ff    	mov    -0xe4(%ebp),%edx
 804bc20:	85 d2                	test   %edx,%edx
 804bc22:	75 0d                	jne    804bc31 <_svfprintf_r+0x1601>
 804bc24:	f6 85 4c ff ff ff 01 	testb  $0x1,-0xb4(%ebp)
 804bc2b:	0f 84 ab f4 ff ff    	je     804b0dc <_svfprintf_r+0xaac>
 804bc31:	8b 85 0c ff ff ff    	mov    -0xf4(%ebp),%eax
 804bc37:	83 c7 08             	add    $0x8,%edi
 804bc3a:	89 47 f8             	mov    %eax,-0x8(%edi)
 804bc3d:	8b 85 08 ff ff ff    	mov    -0xf8(%ebp),%eax
 804bc43:	89 47 fc             	mov    %eax,-0x4(%edi)
 804bc46:	8d 14 01             	lea    (%ecx,%eax,1),%edx
 804bc49:	8b 85 78 ff ff ff    	mov    -0x88(%ebp),%eax
 804bc4f:	89 95 7c ff ff ff    	mov    %edx,-0x84(%ebp)
 804bc55:	83 c0 01             	add    $0x1,%eax
 804bc58:	83 f8 07             	cmp    $0x7,%eax
 804bc5b:	89 85 78 ff ff ff    	mov    %eax,-0x88(%ebp)
 804bc61:	0f 8f 60 03 00 00    	jg     804bfc7 <_svfprintf_r+0x1997>
 804bc67:	f7 db                	neg    %ebx
 804bc69:	85 db                	test   %ebx,%ebx
 804bc6b:	0f 8e 21 03 00 00    	jle    804bf92 <_svfprintf_r+0x1962>
 804bc71:	83 fb 10             	cmp    $0x10,%ebx
 804bc74:	0f 8e c3 02 00 00    	jle    804bf3d <_svfprintf_r+0x190d>
 804bc7a:	8d b5 74 ff ff ff    	lea    -0x8c(%ebp),%esi
 804bc80:	eb 12                	jmp    804bc94 <_svfprintf_r+0x1664>
 804bc82:	8d b6 00 00 00 00    	lea    0x0(%esi),%esi
 804bc88:	83 eb 10             	sub    $0x10,%ebx
 804bc8b:	83 fb 10             	cmp    $0x10,%ebx
 804bc8e:	0f 8e a9 02 00 00    	jle    804bf3d <_svfprintf_r+0x190d>
 804bc94:	83 c0 01             	add    $0x1,%eax
 804bc97:	83 c2 10             	add    $0x10,%edx
 804bc9a:	c7 07 38 66 05 08    	movl   $0x8056638,(%edi)
 804bca0:	83 c7 08             	add    $0x8,%edi
 804bca3:	c7 47 fc 10 00 00 00 	movl   $0x10,-0x4(%edi)
 804bcaa:	83 f8 07             	cmp    $0x7,%eax
 804bcad:	89 95 7c ff ff ff    	mov    %edx,-0x84(%ebp)
 804bcb3:	89 85 78 ff ff ff    	mov    %eax,-0x88(%ebp)
 804bcb9:	7e cd                	jle    804bc88 <_svfprintf_r+0x1658>
 804bcbb:	8b 45 0c             	mov    0xc(%ebp),%eax
 804bcbe:	89 74 24 08          	mov    %esi,0x8(%esp)
 804bcc2:	89 44 24 04          	mov    %eax,0x4(%esp)
 804bcc6:	8b 45 08             	mov    0x8(%ebp),%eax
 804bcc9:	89 04 24             	mov    %eax,(%esp)
 804bccc:	e8 cf 63 00 00       	call   80520a0 <__ssprint_r>
 804bcd1:	85 c0                	test   %eax,%eax
 804bcd3:	0f 85 27 eb ff ff    	jne    804a800 <_svfprintf_r+0x1d0>
 804bcd9:	8b 95 7c ff ff ff    	mov    -0x84(%ebp),%edx
 804bcdf:	8d 7d a8             	lea    -0x58(%ebp),%edi
 804bce2:	8b 85 78 ff ff ff    	mov    -0x88(%ebp),%eax
 804bce8:	eb 9e                	jmp    804bc88 <_svfprintf_r+0x1658>
 804bcea:	8b 9d 24 ff ff ff    	mov    -0xdc(%ebp),%ebx
 804bcf0:	83 e3 df             	and    $0xffffffdf,%ebx
 804bcf3:	83 bd 44 ff ff ff ff 	cmpl   $0xffffffff,-0xbc(%ebp)
 804bcfa:	0f 84 05 03 00 00    	je     804c005 <_svfprintf_r+0x19d5>
 804bd00:	83 fb 47             	cmp    $0x47,%ebx
 804bd03:	75 16                	jne    804bd1b <_svfprintf_r+0x16eb>
 804bd05:	8b 95 44 ff ff ff    	mov    -0xbc(%ebp),%edx
 804bd0b:	b8 01 00 00 00       	mov    $0x1,%eax
 804bd10:	85 d2                	test   %edx,%edx
 804bd12:	0f 45 c2             	cmovne %edx,%eax
 804bd15:	89 85 44 ff ff ff    	mov    %eax,-0xbc(%ebp)
 804bd1b:	8b 85 4c ff ff ff    	mov    -0xb4(%ebp),%eax
 804bd21:	dd 85 10 ff ff ff    	fldl   -0xf0(%ebp)
 804bd27:	dd 95 38 ff ff ff    	fstl   -0xc8(%ebp)
 804bd2d:	80 cc 01             	or     $0x1,%ah
 804bd30:	89 85 30 ff ff ff    	mov    %eax,-0xd0(%ebp)
 804bd36:	8b 85 3c ff ff ff    	mov    -0xc4(%ebp),%eax
 804bd3c:	c6 85 48 ff ff ff 00 	movb   $0x0,-0xb8(%ebp)
 804bd43:	85 c0                	test   %eax,%eax
 804bd45:	0f 88 ba 05 00 00    	js     804c305 <_svfprintf_r+0x1cd5>
 804bd4b:	83 fb 46             	cmp    $0x46,%ebx
 804bd4e:	0f 94 c0             	sete   %al
 804bd51:	89 c6                	mov    %eax,%esi
 804bd53:	0f 84 d4 03 00 00    	je     804c12d <_svfprintf_r+0x1afd>
 804bd59:	83 fb 45             	cmp    $0x45,%ebx
 804bd5c:	0f 85 99 05 00 00    	jne    804c2fb <_svfprintf_r+0x1ccb>
 804bd62:	8b 85 44 ff ff ff    	mov    -0xbc(%ebp),%eax
 804bd68:	dd 54 24 04          	fstl   0x4(%esp)
 804bd6c:	c7 44 24 0c 02 00 00 	movl   $0x2,0xc(%esp)
 804bd73:	00 
 804bd74:	dd 9d 38 ff ff ff    	fstpl  -0xc8(%ebp)
 804bd7a:	8d 70 01             	lea    0x1(%eax),%esi
 804bd7d:	8d 85 6c ff ff ff    	lea    -0x94(%ebp),%eax
 804bd83:	89 44 24 1c          	mov    %eax,0x1c(%esp)
 804bd87:	8d 85 60 ff ff ff    	lea    -0xa0(%ebp),%eax
 804bd8d:	89 44 24 18          	mov    %eax,0x18(%esp)
 804bd91:	8d 85 5c ff ff ff    	lea    -0xa4(%ebp),%eax
 804bd97:	89 44 24 14          	mov    %eax,0x14(%esp)
 804bd9b:	8b 45 08             	mov    0x8(%ebp),%eax
 804bd9e:	89 74 24 10          	mov    %esi,0x10(%esp)
 804bda2:	89 04 24             	mov    %eax,(%esp)
 804bda5:	e8 06 2b 00 00       	call   804e8b0 <_dtoa_r>
 804bdaa:	89 85 28 ff ff ff    	mov    %eax,-0xd8(%ebp)
 804bdb0:	8d 0c 30             	lea    (%eax,%esi,1),%ecx
 804bdb3:	dd 85 38 ff ff ff    	fldl   -0xc8(%ebp)
 804bdb9:	d9 ee                	fldz   
 804bdbb:	d9 c9                	fxch   %st(1)
 804bdbd:	df e9                	fucomip %st(1),%st
 804bdbf:	dd d8                	fstp   %st(0)
 804bdc1:	0f 8a fd 00 00 00    	jp     804bec4 <_svfprintf_r+0x1894>
 804bdc7:	89 c8                	mov    %ecx,%eax
 804bdc9:	0f 85 f5 00 00 00    	jne    804bec4 <_svfprintf_r+0x1894>
 804bdcf:	2b 85 28 ff ff ff    	sub    -0xd8(%ebp),%eax
 804bdd5:	83 fb 47             	cmp    $0x47,%ebx
 804bdd8:	89 85 1c ff ff ff    	mov    %eax,-0xe4(%ebp)
 804bdde:	0f 84 1e 04 00 00    	je     804c202 <_svfprintf_r+0x1bd2>
 804bde4:	83 bd 24 ff ff ff 65 	cmpl   $0x65,-0xdc(%ebp)
 804bdeb:	8b 85 5c ff ff ff    	mov    -0xa4(%ebp),%eax
 804bdf1:	0f 8e 65 04 00 00    	jle    804c25c <_svfprintf_r+0x1c2c>
 804bdf7:	83 bd 24 ff ff ff 66 	cmpl   $0x66,-0xdc(%ebp)
 804bdfe:	89 85 20 ff ff ff    	mov    %eax,-0xe0(%ebp)
 804be04:	0f 84 3c 05 00 00    	je     804c346 <_svfprintf_r+0x1d16>
 804be0a:	8b 85 20 ff ff ff    	mov    -0xe0(%ebp),%eax
 804be10:	39 85 1c ff ff ff    	cmp    %eax,-0xe4(%ebp)
 804be16:	0f 8f f7 04 00 00    	jg     804c313 <_svfprintf_r+0x1ce3>
 804be1c:	8b 85 4c ff ff ff    	mov    -0xb4(%ebp),%eax
 804be22:	83 e0 01             	and    $0x1,%eax
 804be25:	0f 85 e2 05 00 00    	jne    804c40d <_svfprintf_r+0x1ddd>
 804be2b:	8b 95 20 ff ff ff    	mov    -0xe0(%ebp),%edx
 804be31:	c7 85 24 ff ff ff 67 	movl   $0x67,-0xdc(%ebp)
 804be38:	00 00 00 
 804be3b:	85 d2                	test   %edx,%edx
 804be3d:	0f 49 c2             	cmovns %edx,%eax
 804be40:	89 95 38 ff ff ff    	mov    %edx,-0xc8(%ebp)
 804be46:	80 bd 48 ff ff ff 00 	cmpb   $0x0,-0xb8(%ebp)
 804be4d:	0f 85 68 03 00 00    	jne    804c1bb <_svfprintf_r+0x1b8b>
 804be53:	89 85 48 ff ff ff    	mov    %eax,-0xb8(%ebp)
 804be59:	8b 85 30 ff ff ff    	mov    -0xd0(%ebp),%eax
 804be5f:	0f b6 9d 59 ff ff ff 	movzbl -0xa7(%ebp),%ebx
 804be66:	c7 85 44 ff ff ff 00 	movl   $0x0,-0xbc(%ebp)
 804be6d:	00 00 00 
 804be70:	89 85 4c ff ff ff    	mov    %eax,-0xb4(%ebp)
 804be76:	e9 4d ea ff ff       	jmp    804a8c8 <_svfprintf_r+0x298>
 804be7b:	8d 85 74 ff ff ff    	lea    -0x8c(%ebp),%eax
 804be81:	89 44 24 08          	mov    %eax,0x8(%esp)
 804be85:	8b 45 0c             	mov    0xc(%ebp),%eax
 804be88:	89 44 24 04          	mov    %eax,0x4(%esp)
 804be8c:	8b 45 08             	mov    0x8(%ebp),%eax
 804be8f:	89 04 24             	mov    %eax,(%esp)
 804be92:	e8 09 62 00 00       	call   80520a0 <__ssprint_r>
 804be97:	85 c0                	test   %eax,%eax
 804be99:	0f 85 61 e9 ff ff    	jne    804a800 <_svfprintf_r+0x1d0>
 804be9f:	8b 8d 7c ff ff ff    	mov    -0x84(%ebp),%ecx
 804bea5:	8d 7d a8             	lea    -0x58(%ebp),%edi
 804bea8:	e9 f2 f3 ff ff       	jmp    804b29f <_svfprintf_r+0xc6f>
 804bead:	89 d0                	mov    %edx,%eax
 804beaf:	e9 d1 fa ff ff       	jmp    804b985 <_svfprintf_r+0x1355>
 804beb4:	8d 74 26 00          	lea    0x0(%esi,%eiz,1),%esi
 804beb8:	8d 50 01             	lea    0x1(%eax),%edx
 804bebb:	89 95 6c ff ff ff    	mov    %edx,-0x94(%ebp)
 804bec1:	c6 00 30             	movb   $0x30,(%eax)
 804bec4:	8b 85 6c ff ff ff    	mov    -0x94(%ebp),%eax
 804beca:	39 c1                	cmp    %eax,%ecx
 804becc:	77 ea                	ja     804beb8 <_svfprintf_r+0x1888>
 804bece:	e9 fc fe ff ff       	jmp    804bdcf <_svfprintf_r+0x179f>
 804bed3:	8b 45 08             	mov    0x8(%ebp),%eax
 804bed6:	c7 44 24 04 40 00 00 	movl   $0x40,0x4(%esp)
 804bedd:	00 
 804bede:	89 04 24             	mov    %eax,(%esp)
 804bee1:	e8 3a 49 00 00       	call   8050820 <_malloc_r>
 804bee6:	8b 55 0c             	mov    0xc(%ebp),%edx
 804bee9:	85 c0                	test   %eax,%eax
 804beeb:	89 02                	mov    %eax,(%edx)
 804beed:	89 42 10             	mov    %eax,0x10(%edx)
 804bef0:	0f 84 15 06 00 00    	je     804c50b <_svfprintf_r+0x1edb>
 804bef6:	8b 45 0c             	mov    0xc(%ebp),%eax
 804bef9:	c7 40 14 40 00 00 00 	movl   $0x40,0x14(%eax)
 804bf00:	e9 6c e7 ff ff       	jmp    804a671 <_svfprintf_r+0x41>
 804bf05:	8d 85 74 ff ff ff    	lea    -0x8c(%ebp),%eax
 804bf0b:	89 44 24 08          	mov    %eax,0x8(%esp)
 804bf0f:	8b 45 0c             	mov    0xc(%ebp),%eax
 804bf12:	89 44 24 04          	mov    %eax,0x4(%esp)
 804bf16:	8b 45 08             	mov    0x8(%ebp),%eax
 804bf19:	89 04 24             	mov    %eax,(%esp)
 804bf1c:	e8 7f 61 00 00       	call   80520a0 <__ssprint_r>
 804bf21:	85 c0                	test   %eax,%eax
 804bf23:	0f 85 d7 e8 ff ff    	jne    804a800 <_svfprintf_r+0x1d0>
 804bf29:	8b 9d 5c ff ff ff    	mov    -0xa4(%ebp),%ebx
 804bf2f:	8d 7d a8             	lea    -0x58(%ebp),%edi
 804bf32:	8b 8d 7c ff ff ff    	mov    -0x84(%ebp),%ecx
 804bf38:	e9 d9 fc ff ff       	jmp    804bc16 <_svfprintf_r+0x15e6>
 804bf3d:	83 c0 01             	add    $0x1,%eax
 804bf40:	01 da                	add    %ebx,%edx
 804bf42:	c7 07 38 66 05 08    	movl   $0x8056638,(%edi)
 804bf48:	83 c7 08             	add    $0x8,%edi
 804bf4b:	89 5f fc             	mov    %ebx,-0x4(%edi)
 804bf4e:	83 f8 07             	cmp    $0x7,%eax
 804bf51:	89 95 7c ff ff ff    	mov    %edx,-0x84(%ebp)
 804bf57:	89 85 78 ff ff ff    	mov    %eax,-0x88(%ebp)
 804bf5d:	7e 33                	jle    804bf92 <_svfprintf_r+0x1962>
 804bf5f:	8d 85 74 ff ff ff    	lea    -0x8c(%ebp),%eax
 804bf65:	89 44 24 08          	mov    %eax,0x8(%esp)
 804bf69:	8b 45 0c             	mov    0xc(%ebp),%eax
 804bf6c:	89 44 24 04          	mov    %eax,0x4(%esp)
 804bf70:	8b 45 08             	mov    0x8(%ebp),%eax
 804bf73:	89 04 24             	mov    %eax,(%esp)
 804bf76:	e8 25 61 00 00       	call   80520a0 <__ssprint_r>
 804bf7b:	85 c0                	test   %eax,%eax
 804bf7d:	0f 85 7d e8 ff ff    	jne    804a800 <_svfprintf_r+0x1d0>
 804bf83:	8b 95 7c ff ff ff    	mov    -0x84(%ebp),%edx
 804bf89:	8d 7d a8             	lea    -0x58(%ebp),%edi
 804bf8c:	8b 85 78 ff ff ff    	mov    -0x88(%ebp),%eax
 804bf92:	8b 9d 28 ff ff ff    	mov    -0xd8(%ebp),%ebx
 804bf98:	83 c0 01             	add    $0x1,%eax
 804bf9b:	89 85 78 ff ff ff    	mov    %eax,-0x88(%ebp)
 804bfa1:	89 1f                	mov    %ebx,(%edi)
 804bfa3:	8b 9d 1c ff ff ff    	mov    -0xe4(%ebp),%ebx
 804bfa9:	01 da                	add    %ebx,%edx
 804bfab:	83 f8 07             	cmp    $0x7,%eax
 804bfae:	89 5f 04             	mov    %ebx,0x4(%edi)
 804bfb1:	89 95 7c ff ff ff    	mov    %edx,-0x84(%ebp)
 804bfb7:	0f 8f 86 f5 ff ff    	jg     804b543 <_svfprintf_r+0xf13>
 804bfbd:	83 c7 08             	add    $0x8,%edi
 804bfc0:	89 d1                	mov    %edx,%ecx
 804bfc2:	e9 15 f1 ff ff       	jmp    804b0dc <_svfprintf_r+0xaac>
 804bfc7:	8d 85 74 ff ff ff    	lea    -0x8c(%ebp),%eax
 804bfcd:	89 44 24 08          	mov    %eax,0x8(%esp)
 804bfd1:	8b 45 0c             	mov    0xc(%ebp),%eax
 804bfd4:	89 44 24 04          	mov    %eax,0x4(%esp)
 804bfd8:	8b 45 08             	mov    0x8(%ebp),%eax
 804bfdb:	89 04 24             	mov    %eax,(%esp)
 804bfde:	e8 bd 60 00 00       	call   80520a0 <__ssprint_r>
 804bfe3:	85 c0                	test   %eax,%eax
 804bfe5:	0f 85 15 e8 ff ff    	jne    804a800 <_svfprintf_r+0x1d0>
 804bfeb:	8b 9d 5c ff ff ff    	mov    -0xa4(%ebp),%ebx
 804bff1:	8d 7d a8             	lea    -0x58(%ebp),%edi
 804bff4:	8b 95 7c ff ff ff    	mov    -0x84(%ebp),%edx
 804bffa:	8b 85 78 ff ff ff    	mov    -0x88(%ebp),%eax
 804c000:	e9 62 fc ff ff       	jmp    804bc67 <_svfprintf_r+0x1637>
 804c005:	c7 85 44 ff ff ff 06 	movl   $0x6,-0xbc(%ebp)
 804c00c:	00 00 00 
 804c00f:	e9 07 fd ff ff       	jmp    804bd1b <_svfprintf_r+0x16eb>
 804c014:	8b 85 28 ff ff ff    	mov    -0xd8(%ebp),%eax
 804c01a:	89 04 24             	mov    %eax,(%esp)
 804c01d:	e8 8e e5 ff ff       	call   804a5b0 <strlen>
 804c022:	e9 6a e8 ff ff       	jmp    804a891 <_svfprintf_r+0x261>
 804c027:	8d 85 74 ff ff ff    	lea    -0x8c(%ebp),%eax
 804c02d:	89 44 24 08          	mov    %eax,0x8(%esp)
 804c031:	8b 45 0c             	mov    0xc(%ebp),%eax
 804c034:	89 44 24 04          	mov    %eax,0x4(%esp)
 804c038:	8b 45 08             	mov    0x8(%ebp),%eax
 804c03b:	89 04 24             	mov    %eax,(%esp)
 804c03e:	e8 5d 60 00 00       	call   80520a0 <__ssprint_r>
 804c043:	85 c0                	test   %eax,%eax
 804c045:	0f 85 b5 e7 ff ff    	jne    804a800 <_svfprintf_r+0x1d0>
 804c04b:	8b 8d 7c ff ff ff    	mov    -0x84(%ebp),%ecx
 804c051:	8d 7d a8             	lea    -0x58(%ebp),%edi
 804c054:	e9 76 f6 ff ff       	jmp    804b6cf <_svfprintf_r+0x109f>
 804c059:	8d 85 74 ff ff ff    	lea    -0x8c(%ebp),%eax
 804c05f:	89 44 24 08          	mov    %eax,0x8(%esp)
 804c063:	8b 45 0c             	mov    0xc(%ebp),%eax
 804c066:	89 44 24 04          	mov    %eax,0x4(%esp)
 804c06a:	8b 45 08             	mov    0x8(%ebp),%eax
 804c06d:	89 04 24             	mov    %eax,(%esp)
 804c070:	e8 2b 60 00 00       	call   80520a0 <__ssprint_r>
 804c075:	85 c0                	test   %eax,%eax
 804c077:	0f 85 83 e7 ff ff    	jne    804a800 <_svfprintf_r+0x1d0>
 804c07d:	8b 85 5c ff ff ff    	mov    -0xa4(%ebp),%eax
 804c083:	8d 7d a8             	lea    -0x58(%ebp),%edi
 804c086:	8b 8d 7c ff ff ff    	mov    -0x84(%ebp),%ecx
 804c08c:	e9 f4 f8 ff ff       	jmp    804b985 <_svfprintf_r+0x1355>
 804c091:	8d 85 74 ff ff ff    	lea    -0x8c(%ebp),%eax
 804c097:	89 44 24 08          	mov    %eax,0x8(%esp)
 804c09b:	8b 45 0c             	mov    0xc(%ebp),%eax
 804c09e:	89 44 24 04          	mov    %eax,0x4(%esp)
 804c0a2:	8b 45 08             	mov    0x8(%ebp),%eax
 804c0a5:	89 04 24             	mov    %eax,(%esp)
 804c0a8:	e8 f3 5f 00 00       	call   80520a0 <__ssprint_r>
 804c0ad:	85 c0                	test   %eax,%eax
 804c0af:	0f 85 4b e7 ff ff    	jne    804a800 <_svfprintf_r+0x1d0>
 804c0b5:	8b b5 1c ff ff ff    	mov    -0xe4(%ebp),%esi
 804c0bb:	8d 7d a8             	lea    -0x58(%ebp),%edi
 804c0be:	2b b5 5c ff ff ff    	sub    -0xa4(%ebp),%esi
 804c0c4:	8b 8d 7c ff ff ff    	mov    -0x84(%ebp),%ecx
 804c0ca:	e9 fa f8 ff ff       	jmp    804b9c9 <_svfprintf_r+0x1399>
 804c0cf:	8b 95 44 ff ff ff    	mov    -0xbc(%ebp),%edx
 804c0d5:	b0 06                	mov    $0x6,%al
 804c0d7:	89 75 14             	mov    %esi,0x14(%ebp)
 804c0da:	c7 85 44 ff ff ff 00 	movl   $0x0,-0xbc(%ebp)
 804c0e1:	00 00 00 
 804c0e4:	c7 85 20 ff ff ff 00 	movl   $0x0,-0xe0(%ebp)
 804c0eb:	00 00 00 
 804c0ee:	83 fa 06             	cmp    $0x6,%edx
 804c0f1:	0f 46 c2             	cmovbe %edx,%eax
 804c0f4:	8b 95 28 ff ff ff    	mov    -0xd8(%ebp),%edx
 804c0fa:	85 c0                	test   %eax,%eax
 804c0fc:	89 85 38 ff ff ff    	mov    %eax,-0xc8(%ebp)
 804c102:	c7 85 28 ff ff ff ca 	movl   $0x80564ca,-0xd8(%ebp)
 804c109:	64 05 08 
 804c10c:	0f 49 d0             	cmovns %eax,%edx
 804c10f:	31 db                	xor    %ebx,%ebx
 804c111:	89 95 48 ff ff ff    	mov    %edx,-0xb8(%ebp)
 804c117:	e9 b7 e7 ff ff       	jmp    804a8d3 <_svfprintf_r+0x2a3>
 804c11c:	c6 85 59 ff ff ff 2d 	movb   $0x2d,-0xa7(%ebp)
 804c123:	bb 2d 00 00 00       	mov    $0x2d,%ebx
 804c128:	e9 9d ea ff ff       	jmp    804abca <_svfprintf_r+0x59a>
 804c12d:	ba 03 00 00 00       	mov    $0x3,%edx
 804c132:	8d 85 6c ff ff ff    	lea    -0x94(%ebp),%eax
 804c138:	89 44 24 1c          	mov    %eax,0x1c(%esp)
 804c13c:	8d 85 60 ff ff ff    	lea    -0xa0(%ebp),%eax
 804c142:	89 44 24 18          	mov    %eax,0x18(%esp)
 804c146:	8d 85 5c ff ff ff    	lea    -0xa4(%ebp),%eax
 804c14c:	89 44 24 14          	mov    %eax,0x14(%esp)
 804c150:	8b 85 44 ff ff ff    	mov    -0xbc(%ebp),%eax
 804c156:	dd 54 24 04          	fstl   0x4(%esp)
 804c15a:	89 54 24 0c          	mov    %edx,0xc(%esp)
 804c15e:	dd 9d 38 ff ff ff    	fstpl  -0xc8(%ebp)
 804c164:	89 44 24 10          	mov    %eax,0x10(%esp)
 804c168:	8b 45 08             	mov    0x8(%ebp),%eax
 804c16b:	89 04 24             	mov    %eax,(%esp)
 804c16e:	e8 3d 27 00 00       	call   804e8b0 <_dtoa_r>
 804c173:	83 fb 47             	cmp    $0x47,%ebx
 804c176:	89 85 28 ff ff ff    	mov    %eax,-0xd8(%ebp)
 804c17c:	dd 85 38 ff ff ff    	fldl   -0xc8(%ebp)
 804c182:	75 09                	jne    804c18d <_svfprintf_r+0x1b5d>
 804c184:	f6 85 4c ff ff ff 01 	testb  $0x1,-0xb4(%ebp)
 804c18b:	74 5b                	je     804c1e8 <_svfprintf_r+0x1bb8>
 804c18d:	8b 95 28 ff ff ff    	mov    -0xd8(%ebp),%edx
 804c193:	89 f0                	mov    %esi,%eax
 804c195:	8b 8d 44 ff ff ff    	mov    -0xbc(%ebp),%ecx
 804c19b:	01 d1                	add    %edx,%ecx
 804c19d:	84 c0                	test   %al,%al
 804c19f:	0f 84 14 fc ff ff    	je     804bdb9 <_svfprintf_r+0x1789>
 804c1a5:	80 3a 30             	cmpb   $0x30,(%edx)
 804c1a8:	0f 84 37 02 00 00    	je     804c3e5 <_svfprintf_r+0x1db5>
 804c1ae:	8b 85 5c ff ff ff    	mov    -0xa4(%ebp),%eax
 804c1b4:	01 c1                	add    %eax,%ecx
 804c1b6:	e9 fe fb ff ff       	jmp    804bdb9 <_svfprintf_r+0x1789>
 804c1bb:	89 85 48 ff ff ff    	mov    %eax,-0xb8(%ebp)
 804c1c1:	8b 85 30 ff ff ff    	mov    -0xd0(%ebp),%eax
 804c1c7:	bb 2d 00 00 00       	mov    $0x2d,%ebx
 804c1cc:	c6 85 59 ff ff ff 2d 	movb   $0x2d,-0xa7(%ebp)
 804c1d3:	c7 85 44 ff ff ff 00 	movl   $0x0,-0xbc(%ebp)
 804c1da:	00 00 00 
 804c1dd:	89 85 4c ff ff ff    	mov    %eax,-0xb4(%ebp)
 804c1e3:	e9 e4 e6 ff ff       	jmp    804a8cc <_svfprintf_r+0x29c>
 804c1e8:	dd d8                	fstp   %st(0)
 804c1ea:	8b 85 6c ff ff ff    	mov    -0x94(%ebp),%eax
 804c1f0:	89 85 1c ff ff ff    	mov    %eax,-0xe4(%ebp)
 804c1f6:	8b 85 28 ff ff ff    	mov    -0xd8(%ebp),%eax
 804c1fc:	29 85 1c ff ff ff    	sub    %eax,-0xe4(%ebp)
 804c202:	8b 85 5c ff ff ff    	mov    -0xa4(%ebp),%eax
 804c208:	83 f8 fd             	cmp    $0xfffffffd,%eax
 804c20b:	7c 48                	jl     804c255 <_svfprintf_r+0x1c25>
 804c20d:	39 85 44 ff ff ff    	cmp    %eax,-0xbc(%ebp)
 804c213:	7c 40                	jl     804c255 <_svfprintf_r+0x1c25>
 804c215:	89 85 20 ff ff ff    	mov    %eax,-0xe0(%ebp)
 804c21b:	e9 ea fb ff ff       	jmp    804be0a <_svfprintf_r+0x17da>
 804c220:	8b 85 44 ff ff ff    	mov    -0xbc(%ebp),%eax
 804c226:	0f b6 9d 59 ff ff ff 	movzbl -0xa7(%ebp),%ebx
 804c22d:	89 75 14             	mov    %esi,0x14(%ebp)
 804c230:	c7 85 44 ff ff ff 00 	movl   $0x0,-0xbc(%ebp)
 804c237:	00 00 00 
 804c23a:	89 85 48 ff ff ff    	mov    %eax,-0xb8(%ebp)
 804c240:	89 85 38 ff ff ff    	mov    %eax,-0xc8(%ebp)
 804c246:	c7 85 20 ff ff ff 00 	movl   $0x0,-0xe0(%ebp)
 804c24d:	00 00 00 
 804c250:	e9 73 e6 ff ff       	jmp    804a8c8 <_svfprintf_r+0x298>
 804c255:	83 ad 24 ff ff ff 02 	subl   $0x2,-0xdc(%ebp)
 804c25c:	8d 48 ff             	lea    -0x1(%eax),%ecx
 804c25f:	0f b6 85 24 ff ff ff 	movzbl -0xdc(%ebp),%eax
 804c266:	85 c9                	test   %ecx,%ecx
 804c268:	89 8d 5c ff ff ff    	mov    %ecx,-0xa4(%ebp)
 804c26e:	88 85 65 ff ff ff    	mov    %al,-0x9b(%ebp)
 804c274:	0f 88 2c 02 00 00    	js     804c4a6 <_svfprintf_r+0x1e76>
 804c27a:	c6 85 66 ff ff ff 2b 	movb   $0x2b,-0x9a(%ebp)
 804c281:	83 f9 09             	cmp    $0x9,%ecx
 804c284:	0f 8f ea 00 00 00    	jg     804c374 <_svfprintf_r+0x1d44>
 804c28a:	83 c1 30             	add    $0x30,%ecx
 804c28d:	c6 85 67 ff ff ff 30 	movb   $0x30,-0x99(%ebp)
 804c294:	8d 85 69 ff ff ff    	lea    -0x97(%ebp),%eax
 804c29a:	88 8d 68 ff ff ff    	mov    %cl,-0x98(%ebp)
 804c2a0:	8b 9d 1c ff ff ff    	mov    -0xe4(%ebp),%ebx
 804c2a6:	8d 95 65 ff ff ff    	lea    -0x9b(%ebp),%edx
 804c2ac:	29 d0                	sub    %edx,%eax
 804c2ae:	89 85 04 ff ff ff    	mov    %eax,-0xfc(%ebp)
 804c2b4:	89 da                	mov    %ebx,%edx
 804c2b6:	01 c2                	add    %eax,%edx
 804c2b8:	83 fb 01             	cmp    $0x1,%ebx
 804c2bb:	89 95 38 ff ff ff    	mov    %edx,-0xc8(%ebp)
 804c2c1:	0f 8e 21 02 00 00    	jle    804c4e8 <_svfprintf_r+0x1eb8>
 804c2c7:	31 c0                	xor    %eax,%eax
 804c2c9:	83 85 38 ff ff ff 01 	addl   $0x1,-0xc8(%ebp)
 804c2d0:	0f 49 85 38 ff ff ff 	cmovns -0xc8(%ebp),%eax
 804c2d7:	c7 85 20 ff ff ff 00 	movl   $0x0,-0xe0(%ebp)
 804c2de:	00 00 00 
 804c2e1:	e9 60 fb ff ff       	jmp    804be46 <_svfprintf_r+0x1816>
 804c2e6:	8b 8d 48 ff ff ff    	mov    -0xb8(%ebp),%ecx
 804c2ec:	c7 85 44 ff ff ff 00 	movl   $0x0,-0xbc(%ebp)
 804c2f3:	00 00 00 
 804c2f6:	e9 68 e4 ff ff       	jmp    804a763 <_svfprintf_r+0x133>
 804c2fb:	ba 02 00 00 00       	mov    $0x2,%edx
 804c300:	e9 2d fe ff ff       	jmp    804c132 <_svfprintf_r+0x1b02>
 804c305:	d9 e0                	fchs   
 804c307:	c6 85 48 ff ff ff 2d 	movb   $0x2d,-0xb8(%ebp)
 804c30e:	e9 38 fa ff ff       	jmp    804bd4b <_svfprintf_r+0x171b>
 804c313:	8b 8d 20 ff ff ff    	mov    -0xe0(%ebp),%ecx
 804c319:	ba 01 00 00 00       	mov    $0x1,%edx
 804c31e:	85 c9                	test   %ecx,%ecx
 804c320:	0f 8e 5a 01 00 00    	jle    804c480 <_svfprintf_r+0x1e50>
 804c326:	31 c0                	xor    %eax,%eax
 804c328:	03 95 1c ff ff ff    	add    -0xe4(%ebp),%edx
 804c32e:	c7 85 24 ff ff ff 67 	movl   $0x67,-0xdc(%ebp)
 804c335:	00 00 00 
 804c338:	89 95 38 ff ff ff    	mov    %edx,-0xc8(%ebp)
 804c33e:	0f 49 c2             	cmovns %edx,%eax
 804c341:	e9 00 fb ff ff       	jmp    804be46 <_svfprintf_r+0x1816>
 804c346:	85 c0                	test   %eax,%eax
 804c348:	0f 8e 06 01 00 00    	jle    804c454 <_svfprintf_r+0x1e24>
 804c34e:	8b b5 44 ff ff ff    	mov    -0xbc(%ebp),%esi
 804c354:	85 f6                	test   %esi,%esi
 804c356:	0f 85 d4 00 00 00    	jne    804c430 <_svfprintf_r+0x1e00>
 804c35c:	f6 85 4c ff ff ff 01 	testb  $0x1,-0xb4(%ebp)
 804c363:	0f 85 c7 00 00 00    	jne    804c430 <_svfprintf_r+0x1e00>
 804c369:	89 85 38 ff ff ff    	mov    %eax,-0xc8(%ebp)
 804c36f:	e9 d2 fa ff ff       	jmp    804be46 <_svfprintf_r+0x1816>
 804c374:	8d b5 73 ff ff ff    	lea    -0x8d(%ebp),%esi
 804c37a:	89 f3                	mov    %esi,%ebx
 804c37c:	b8 67 66 66 66       	mov    $0x66666667,%eax
 804c381:	83 eb 01             	sub    $0x1,%ebx
 804c384:	f7 e9                	imul   %ecx
 804c386:	89 c8                	mov    %ecx,%eax
 804c388:	c1 f8 1f             	sar    $0x1f,%eax
 804c38b:	c1 fa 02             	sar    $0x2,%edx
 804c38e:	29 c2                	sub    %eax,%edx
 804c390:	8d 04 92             	lea    (%edx,%edx,4),%eax
 804c393:	01 c0                	add    %eax,%eax
 804c395:	29 c1                	sub    %eax,%ecx
 804c397:	83 fa 09             	cmp    $0x9,%edx
 804c39a:	8d 41 30             	lea    0x30(%ecx),%eax
 804c39d:	89 d1                	mov    %edx,%ecx
 804c39f:	88 03                	mov    %al,(%ebx)
 804c3a1:	7f d9                	jg     804c37c <_svfprintf_r+0x1d4c>
 804c3a3:	8d 43 ff             	lea    -0x1(%ebx),%eax
 804c3a6:	83 c1 30             	add    $0x30,%ecx
 804c3a9:	39 f0                	cmp    %esi,%eax
 804c3ab:	88 4b ff             	mov    %cl,-0x1(%ebx)
 804c3ae:	0f 83 6a 01 00 00    	jae    804c51e <_svfprintf_r+0x1eee>
 804c3b4:	8d 95 67 ff ff ff    	lea    -0x99(%ebp),%edx
 804c3ba:	eb 07                	jmp    804c3c3 <_svfprintf_r+0x1d93>
 804c3bc:	8d 74 26 00          	lea    0x0(%esi,%eiz,1),%esi
 804c3c0:	0f b6 08             	movzbl (%eax),%ecx
 804c3c3:	83 c0 01             	add    $0x1,%eax
 804c3c6:	83 c2 01             	add    $0x1,%edx
 804c3c9:	39 f0                	cmp    %esi,%eax
 804c3cb:	88 4a ff             	mov    %cl,-0x1(%edx)
 804c3ce:	75 f0                	jne    804c3c0 <_svfprintf_r+0x1d90>
 804c3d0:	8d 85 74 ff ff ff    	lea    -0x8c(%ebp),%eax
 804c3d6:	29 d8                	sub    %ebx,%eax
 804c3d8:	8d 95 67 ff ff ff    	lea    -0x99(%ebp),%edx
 804c3de:	01 d0                	add    %edx,%eax
 804c3e0:	e9 bb fe ff ff       	jmp    804c2a0 <_svfprintf_r+0x1c70>
 804c3e5:	d9 ee                	fldz   
 804c3e7:	d9 c9                	fxch   %st(1)
 804c3e9:	db e9                	fucomi %st(1),%st
 804c3eb:	dd d9                	fstp   %st(1)
 804c3ed:	7a 06                	jp     804c3f5 <_svfprintf_r+0x1dc5>
 804c3ef:	0f 84 b9 fd ff ff    	je     804c1ae <_svfprintf_r+0x1b7e>
 804c3f5:	b8 01 00 00 00       	mov    $0x1,%eax
 804c3fa:	2b 85 44 ff ff ff    	sub    -0xbc(%ebp),%eax
 804c400:	89 85 5c ff ff ff    	mov    %eax,-0xa4(%ebp)
 804c406:	01 c1                	add    %eax,%ecx
 804c408:	e9 ac f9 ff ff       	jmp    804bdb9 <_svfprintf_r+0x1789>
 804c40d:	8b 95 20 ff ff ff    	mov    -0xe0(%ebp),%edx
 804c413:	31 c0                	xor    %eax,%eax
 804c415:	c7 85 24 ff ff ff 67 	movl   $0x67,-0xdc(%ebp)
 804c41c:	00 00 00 
 804c41f:	83 c2 01             	add    $0x1,%edx
 804c422:	89 95 38 ff ff ff    	mov    %edx,-0xc8(%ebp)
 804c428:	0f 49 c2             	cmovns %edx,%eax
 804c42b:	e9 16 fa ff ff       	jmp    804be46 <_svfprintf_r+0x1816>
 804c430:	8b 95 20 ff ff ff    	mov    -0xe0(%ebp),%edx
 804c436:	8b 85 44 ff ff ff    	mov    -0xbc(%ebp),%eax
 804c43c:	8d 44 10 01          	lea    0x1(%eax,%edx,1),%eax
 804c440:	89 c2                	mov    %eax,%edx
 804c442:	89 85 38 ff ff ff    	mov    %eax,-0xc8(%ebp)
 804c448:	31 c0                	xor    %eax,%eax
 804c44a:	85 d2                	test   %edx,%edx
 804c44c:	0f 49 c2             	cmovns %edx,%eax
 804c44f:	e9 f2 f9 ff ff       	jmp    804be46 <_svfprintf_r+0x1816>
 804c454:	8b 9d 44 ff ff ff    	mov    -0xbc(%ebp),%ebx
 804c45a:	85 db                	test   %ebx,%ebx
 804c45c:	75 2f                	jne    804c48d <_svfprintf_r+0x1e5d>
 804c45e:	f6 85 4c ff ff ff 01 	testb  $0x1,-0xb4(%ebp)
 804c465:	75 26                	jne    804c48d <_svfprintf_r+0x1e5d>
 804c467:	b8 01 00 00 00       	mov    $0x1,%eax
 804c46c:	c7 85 38 ff ff ff 01 	movl   $0x1,-0xc8(%ebp)
 804c473:	00 00 00 
 804c476:	e9 cb f9 ff ff       	jmp    804be46 <_svfprintf_r+0x1816>
 804c47b:	90                   	nop
 804c47c:	8d 74 26 00          	lea    0x0(%esi,%eiz,1),%esi
 804c480:	b2 02                	mov    $0x2,%dl
 804c482:	2b 95 20 ff ff ff    	sub    -0xe0(%ebp),%edx
 804c488:	e9 99 fe ff ff       	jmp    804c326 <_svfprintf_r+0x1cf6>
 804c48d:	8b 95 44 ff ff ff    	mov    -0xbc(%ebp),%edx
 804c493:	31 c0                	xor    %eax,%eax
 804c495:	83 c2 02             	add    $0x2,%edx
 804c498:	89 95 38 ff ff ff    	mov    %edx,-0xc8(%ebp)
 804c49e:	0f 49 c2             	cmovns %edx,%eax
 804c4a1:	e9 a0 f9 ff ff       	jmp    804be46 <_svfprintf_r+0x1816>
 804c4a6:	f7 d9                	neg    %ecx
 804c4a8:	c6 85 66 ff ff ff 2d 	movb   $0x2d,-0x9a(%ebp)
 804c4af:	e9 cd fd ff ff       	jmp    804c281 <_svfprintf_r+0x1c51>
 804c4b4:	8b 55 14             	mov    0x14(%ebp),%edx
 804c4b7:	8b 45 14             	mov    0x14(%ebp),%eax
 804c4ba:	8b 8d 48 ff ff ff    	mov    -0xb8(%ebp),%ecx
 804c4c0:	8b 12                	mov    (%edx),%edx
 804c4c2:	83 c0 04             	add    $0x4,%eax
 804c4c5:	89 45 14             	mov    %eax,0x14(%ebp)
 804c4c8:	85 d2                	test   %edx,%edx
 804c4ca:	89 95 44 ff ff ff    	mov    %edx,-0xbc(%ebp)
 804c4d0:	0f 89 a9 e2 ff ff    	jns    804a77f <_svfprintf_r+0x14f>
 804c4d6:	c7 85 44 ff ff ff ff 	movl   $0xffffffff,-0xbc(%ebp)
 804c4dd:	ff ff ff 
 804c4e0:	89 c8                	mov    %ecx,%eax
 804c4e2:	e9 76 e2 ff ff       	jmp    804a75d <_svfprintf_r+0x12d>
 804c4e7:	90                   	nop
 804c4e8:	8b 85 4c ff ff ff    	mov    -0xb4(%ebp),%eax
 804c4ee:	83 e0 01             	and    $0x1,%eax
 804c4f1:	0f 85 d0 fd ff ff    	jne    804c2c7 <_svfprintf_r+0x1c97>
 804c4f7:	85 d2                	test   %edx,%edx
 804c4f9:	0f 49 c2             	cmovns %edx,%eax
 804c4fc:	c7 85 20 ff ff ff 00 	movl   $0x0,-0xe0(%ebp)
 804c503:	00 00 00 
 804c506:	e9 3b f9 ff ff       	jmp    804be46 <_svfprintf_r+0x1816>
 804c50b:	8b 45 08             	mov    0x8(%ebp),%eax
 804c50e:	c7 00 0c 00 00 00    	movl   $0xc,(%eax)
 804c514:	b8 ff ff ff ff       	mov    $0xffffffff,%eax
 804c519:	e9 f5 e2 ff ff       	jmp    804a813 <_svfprintf_r+0x1e3>
 804c51e:	8d 85 67 ff ff ff    	lea    -0x99(%ebp),%eax
 804c524:	e9 77 fd ff ff       	jmp    804c2a0 <_svfprintf_r+0x1c70>
 804c529:	66 90                	xchg   %ax,%ax
 804c52b:	66 90                	xchg   %ax,%ax
 804c52d:	66 90                	xchg   %ax,%ax
 804c52f:	90                   	nop

0804c530 <_vfprintf_r>:
 804c530:	55                   	push   %ebp
 804c531:	89 e5                	mov    %esp,%ebp
 804c533:	57                   	push   %edi
 804c534:	56                   	push   %esi
 804c535:	53                   	push   %ebx
 804c536:	81 ec 1c 01 00 00    	sub    $0x11c,%esp
 804c53c:	8b 45 08             	mov    0x8(%ebp),%eax
 804c53f:	89 04 24             	mov    %eax,(%esp)
 804c542:	e8 39 41 00 00       	call   8050680 <_localeconv_r>
 804c547:	8b 00                	mov    (%eax),%eax
 804c549:	89 04 24             	mov    %eax,(%esp)
 804c54c:	89 85 18 ff ff ff    	mov    %eax,-0xe8(%ebp)
 804c552:	e8 59 e0 ff ff       	call   804a5b0 <strlen>
 804c557:	8b 5d 08             	mov    0x8(%ebp),%ebx
 804c55a:	85 db                	test   %ebx,%ebx
 804c55c:	89 85 0c ff ff ff    	mov    %eax,-0xf4(%ebp)
 804c562:	74 0e                	je     804c572 <_vfprintf_r+0x42>
 804c564:	8b 45 08             	mov    0x8(%ebp),%eax
 804c567:	8b 48 38             	mov    0x38(%eax),%ecx
 804c56a:	85 c9                	test   %ecx,%ecx
 804c56c:	0f 84 56 02 00 00    	je     804c7c8 <_vfprintf_r+0x298>
 804c572:	8b 45 0c             	mov    0xc(%ebp),%eax
 804c575:	0f b7 40 0c          	movzwl 0xc(%eax),%eax
 804c579:	f6 c4 20             	test   $0x20,%ah
 804c57c:	75 11                	jne    804c58f <_vfprintf_r+0x5f>
 804c57e:	8b 55 0c             	mov    0xc(%ebp),%edx
 804c581:	80 cc 20             	or     $0x20,%ah
 804c584:	81 62 64 ff df ff ff 	andl   $0xffffdfff,0x64(%edx)
 804c58b:	66 89 42 0c          	mov    %ax,0xc(%edx)
 804c58f:	a8 08                	test   $0x8,%al
 804c591:	0f 84 59 01 00 00    	je     804c6f0 <_vfprintf_r+0x1c0>
 804c597:	8b 55 0c             	mov    0xc(%ebp),%edx
 804c59a:	8b 52 10             	mov    0x10(%edx),%edx
 804c59d:	85 d2                	test   %edx,%edx
 804c59f:	0f 84 4b 01 00 00    	je     804c6f0 <_vfprintf_r+0x1c0>
 804c5a5:	83 e0 1a             	and    $0x1a,%eax
 804c5a8:	66 83 f8 0a          	cmp    $0xa,%ax
 804c5ac:	0f 84 68 01 00 00    	je     804c71a <_vfprintf_r+0x1ea>
 804c5b2:	8d 45 a8             	lea    -0x58(%ebp),%eax
 804c5b5:	8d 55 a7             	lea    -0x59(%ebp),%edx
 804c5b8:	89 c7                	mov    %eax,%edi
 804c5ba:	89 85 74 ff ff ff    	mov    %eax,-0x8c(%ebp)
 804c5c0:	d9 ee                	fldz   
 804c5c2:	29 d0                	sub    %edx,%eax
 804c5c4:	c7 85 7c ff ff ff 00 	movl   $0x0,-0x84(%ebp)
 804c5cb:	00 00 00 
 804c5ce:	dd 9d 10 ff ff ff    	fstpl  -0xf0(%ebp)
 804c5d4:	c7 85 78 ff ff ff 00 	movl   $0x0,-0x88(%ebp)
 804c5db:	00 00 00 
 804c5de:	c7 85 1c ff ff ff 00 	movl   $0x0,-0xe4(%ebp)
 804c5e5:	00 00 00 
 804c5e8:	c7 85 08 ff ff ff 00 	movl   $0x0,-0xf8(%ebp)
 804c5ef:	00 00 00 
 804c5f2:	c7 85 04 ff ff ff 00 	movl   $0x0,-0xfc(%ebp)
 804c5f9:	00 00 00 
 804c5fc:	c7 85 28 ff ff ff 00 	movl   $0x0,-0xd8(%ebp)
 804c603:	00 00 00 
 804c606:	89 85 00 ff ff ff    	mov    %eax,-0x100(%ebp)
 804c60c:	8b 45 10             	mov    0x10(%ebp),%eax
 804c60f:	8b 5d 10             	mov    0x10(%ebp),%ebx
 804c612:	0f b6 00             	movzbl (%eax),%eax
 804c615:	3c 25                	cmp    $0x25,%al
 804c617:	74 4c                	je     804c665 <_vfprintf_r+0x135>
 804c619:	84 c0                	test   %al,%al
 804c61b:	75 07                	jne    804c624 <_vfprintf_r+0xf4>
 804c61d:	eb 46                	jmp    804c665 <_vfprintf_r+0x135>
 804c61f:	90                   	nop
 804c620:	84 c0                	test   %al,%al
 804c622:	74 0a                	je     804c62e <_vfprintf_r+0xfe>
 804c624:	83 c3 01             	add    $0x1,%ebx
 804c627:	0f b6 03             	movzbl (%ebx),%eax
 804c62a:	3c 25                	cmp    $0x25,%al
 804c62c:	75 f2                	jne    804c620 <_vfprintf_r+0xf0>
 804c62e:	89 de                	mov    %ebx,%esi
 804c630:	2b 75 10             	sub    0x10(%ebp),%esi
 804c633:	74 30                	je     804c665 <_vfprintf_r+0x135>
 804c635:	8b 45 10             	mov    0x10(%ebp),%eax
 804c638:	83 c7 08             	add    $0x8,%edi
 804c63b:	89 77 fc             	mov    %esi,-0x4(%edi)
 804c63e:	01 b5 7c ff ff ff    	add    %esi,-0x84(%ebp)
 804c644:	89 47 f8             	mov    %eax,-0x8(%edi)
 804c647:	8b 85 78 ff ff ff    	mov    -0x88(%ebp),%eax
 804c64d:	83 c0 01             	add    $0x1,%eax
 804c650:	83 f8 07             	cmp    $0x7,%eax
 804c653:	89 85 78 ff ff ff    	mov    %eax,-0x88(%ebp)
 804c659:	0f 8f f9 00 00 00    	jg     804c758 <_vfprintf_r+0x228>
 804c65f:	01 b5 28 ff ff ff    	add    %esi,-0xd8(%ebp)
 804c665:	80 3b 00             	cmpb   $0x0,(%ebx)
 804c668:	0f 84 12 01 00 00    	je     804c780 <_vfprintf_r+0x250>
 804c66e:	8d 43 01             	lea    0x1(%ebx),%eax
 804c671:	be 20 00 00 00       	mov    $0x20,%esi
 804c676:	c6 85 59 ff ff ff 00 	movb   $0x0,-0xa7(%ebp)
 804c67d:	31 db                	xor    %ebx,%ebx
 804c67f:	c7 85 44 ff ff ff ff 	movl   $0xffffffff,-0xbc(%ebp)
 804c686:	ff ff ff 
 804c689:	c7 85 40 ff ff ff 00 	movl   $0x0,-0xc0(%ebp)
 804c690:	00 00 00 
 804c693:	c7 85 4c ff ff ff 00 	movl   $0x0,-0xb4(%ebp)
 804c69a:	00 00 00 
 804c69d:	8d 48 01             	lea    0x1(%eax),%ecx
 804c6a0:	0f be 00             	movsbl (%eax),%eax
 804c6a3:	8d 50 e0             	lea    -0x20(%eax),%edx
 804c6a6:	83 fa 58             	cmp    $0x58,%edx
 804c6a9:	0f 87 f2 07 00 00    	ja     804cea1 <_vfprintf_r+0x971>
 804c6af:	ff 24 95 58 66 05 08 	jmp    *0x8056658(,%edx,4)
 804c6b6:	66 90                	xchg   %ax,%ax
 804c6b8:	83 8d 4c ff ff ff 10 	orl    $0x10,-0xb4(%ebp)
 804c6bf:	89 c8                	mov    %ecx,%eax
 804c6c1:	eb da                	jmp    804c69d <_vfprintf_r+0x16d>
 804c6c3:	8b 45 14             	mov    0x14(%ebp),%eax
 804c6c6:	8b 55 14             	mov    0x14(%ebp),%edx
 804c6c9:	8b 00                	mov    (%eax),%eax
 804c6cb:	83 c2 04             	add    $0x4,%edx
 804c6ce:	89 55 14             	mov    %edx,0x14(%ebp)
 804c6d1:	85 c0                	test   %eax,%eax
 804c6d3:	89 85 40 ff ff ff    	mov    %eax,-0xc0(%ebp)
 804c6d9:	79 e4                	jns    804c6bf <_vfprintf_r+0x18f>
 804c6db:	f7 9d 40 ff ff ff    	negl   -0xc0(%ebp)
 804c6e1:	83 8d 4c ff ff ff 04 	orl    $0x4,-0xb4(%ebp)
 804c6e8:	89 c8                	mov    %ecx,%eax
 804c6ea:	eb b1                	jmp    804c69d <_vfprintf_r+0x16d>
 804c6ec:	8d 74 26 00          	lea    0x0(%esi,%eiz,1),%esi
 804c6f0:	8b 45 0c             	mov    0xc(%ebp),%eax
 804c6f3:	89 44 24 04          	mov    %eax,0x4(%esp)
 804c6f7:	8b 45 08             	mov    0x8(%ebp),%eax
 804c6fa:	89 04 24             	mov    %eax,(%esp)
 804c6fd:	e8 ae 1e 00 00       	call   804e5b0 <__swsetup_r>
 804c702:	85 c0                	test   %eax,%eax
 804c704:	75 42                	jne    804c748 <_vfprintf_r+0x218>
 804c706:	8b 45 0c             	mov    0xc(%ebp),%eax
 804c709:	0f b7 40 0c          	movzwl 0xc(%eax),%eax
 804c70d:	83 e0 1a             	and    $0x1a,%eax
 804c710:	66 83 f8 0a          	cmp    $0xa,%ax
 804c714:	0f 85 98 fe ff ff    	jne    804c5b2 <_vfprintf_r+0x82>
 804c71a:	8b 45 0c             	mov    0xc(%ebp),%eax
 804c71d:	66 83 78 0e 00       	cmpw   $0x0,0xe(%eax)
 804c722:	0f 88 8a fe ff ff    	js     804c5b2 <_vfprintf_r+0x82>
 804c728:	8b 45 14             	mov    0x14(%ebp),%eax
 804c72b:	8b 4d 10             	mov    0x10(%ebp),%ecx
 804c72e:	8b 55 0c             	mov    0xc(%ebp),%edx
 804c731:	89 04 24             	mov    %eax,(%esp)
 804c734:	8b 45 08             	mov    0x8(%ebp),%eax
 804c737:	e8 94 1d 00 00       	call   804e4d0 <__sbprintf>
 804c73c:	81 c4 1c 01 00 00    	add    $0x11c,%esp
 804c742:	5b                   	pop    %ebx
 804c743:	5e                   	pop    %esi
 804c744:	5f                   	pop    %edi
 804c745:	5d                   	pop    %ebp
 804c746:	c3                   	ret    
 804c747:	90                   	nop
 804c748:	81 c4 1c 01 00 00    	add    $0x11c,%esp
 804c74e:	b8 ff ff ff ff       	mov    $0xffffffff,%eax
 804c753:	5b                   	pop    %ebx
 804c754:	5e                   	pop    %esi
 804c755:	5f                   	pop    %edi
 804c756:	5d                   	pop    %ebp
 804c757:	c3                   	ret    
 804c758:	8d 85 74 ff ff ff    	lea    -0x8c(%ebp),%eax
 804c75e:	89 44 24 08          	mov    %eax,0x8(%esp)
 804c762:	8b 45 0c             	mov    0xc(%ebp),%eax
 804c765:	89 44 24 04          	mov    %eax,0x4(%esp)
 804c769:	8b 45 08             	mov    0x8(%ebp),%eax
 804c76c:	89 04 24             	mov    %eax,(%esp)
 804c76f:	e8 1c 6a 00 00       	call   8053190 <__sprint_r>
 804c774:	85 c0                	test   %eax,%eax
 804c776:	75 30                	jne    804c7a8 <_vfprintf_r+0x278>
 804c778:	8d 7d a8             	lea    -0x58(%ebp),%edi
 804c77b:	e9 df fe ff ff       	jmp    804c65f <_vfprintf_r+0x12f>
 804c780:	8b 85 7c ff ff ff    	mov    -0x84(%ebp),%eax
 804c786:	85 c0                	test   %eax,%eax
 804c788:	74 1e                	je     804c7a8 <_vfprintf_r+0x278>
 804c78a:	8d 85 74 ff ff ff    	lea    -0x8c(%ebp),%eax
 804c790:	89 44 24 08          	mov    %eax,0x8(%esp)
 804c794:	8b 45 0c             	mov    0xc(%ebp),%eax
 804c797:	89 44 24 04          	mov    %eax,0x4(%esp)
 804c79b:	8b 45 08             	mov    0x8(%ebp),%eax
 804c79e:	89 04 24             	mov    %eax,(%esp)
 804c7a1:	e8 ea 69 00 00       	call   8053190 <__sprint_r>
 804c7a6:	66 90                	xchg   %ax,%ax
 804c7a8:	8b 45 0c             	mov    0xc(%ebp),%eax
 804c7ab:	f6 40 0c 40          	testb  $0x40,0xc(%eax)
 804c7af:	75 97                	jne    804c748 <_vfprintf_r+0x218>
 804c7b1:	8b 85 28 ff ff ff    	mov    -0xd8(%ebp),%eax
 804c7b7:	81 c4 1c 01 00 00    	add    $0x11c,%esp
 804c7bd:	5b                   	pop    %ebx
 804c7be:	5e                   	pop    %esi
 804c7bf:	5f                   	pop    %edi
 804c7c0:	5d                   	pop    %ebp
 804c7c1:	c3                   	ret    
 804c7c2:	8d b6 00 00 00 00    	lea    0x0(%esi),%esi
 804c7c8:	89 04 24             	mov    %eax,(%esp)
 804c7cb:	e8 50 36 00 00       	call   804fe20 <__sinit>
 804c7d0:	e9 9d fd ff ff       	jmp    804c572 <_vfprintf_r+0x42>
 804c7d5:	bb 2b 00 00 00       	mov    $0x2b,%ebx
 804c7da:	89 c8                	mov    %ecx,%eax
 804c7dc:	e9 bc fe ff ff       	jmp    804c69d <_vfprintf_r+0x16d>
 804c7e1:	89 85 24 ff ff ff    	mov    %eax,-0xdc(%ebp)
 804c7e7:	8b 45 14             	mov    0x14(%ebp),%eax
 804c7ea:	89 4d 10             	mov    %ecx,0x10(%ebp)
 804c7ed:	c6 85 59 ff ff ff 00 	movb   $0x0,-0xa7(%ebp)
 804c7f4:	8d 70 04             	lea    0x4(%eax),%esi
 804c7f7:	8b 00                	mov    (%eax),%eax
 804c7f9:	85 c0                	test   %eax,%eax
 804c7fb:	89 85 2c ff ff ff    	mov    %eax,-0xd4(%ebp)
 804c801:	0f 84 0a 18 00 00    	je     804e011 <_vfprintf_r+0x1ae1>
 804c807:	8b 85 44 ff ff ff    	mov    -0xbc(%ebp),%eax
 804c80d:	85 c0                	test   %eax,%eax
 804c80f:	0f 88 41 17 00 00    	js     804df56 <_vfprintf_r+0x1a26>
 804c815:	89 44 24 08          	mov    %eax,0x8(%esp)
 804c819:	8b 85 2c ff ff ff    	mov    -0xd4(%ebp),%eax
 804c81f:	c7 44 24 04 00 00 00 	movl   $0x0,0x4(%esp)
 804c826:	00 
 804c827:	89 04 24             	mov    %eax,(%esp)
 804c82a:	e8 31 47 00 00       	call   8050f60 <memchr>
 804c82f:	85 c0                	test   %eax,%eax
 804c831:	0f 84 2b 19 00 00    	je     804e162 <_vfprintf_r+0x1c32>
 804c837:	8b 95 44 ff ff ff    	mov    -0xbc(%ebp),%edx
 804c83d:	2b 85 2c ff ff ff    	sub    -0xd4(%ebp),%eax
 804c843:	39 d0                	cmp    %edx,%eax
 804c845:	0f 4f c2             	cmovg  %edx,%eax
 804c848:	89 c2                	mov    %eax,%edx
 804c84a:	0f b6 9d 59 ff ff ff 	movzbl -0xa7(%ebp),%ebx
 804c851:	89 85 38 ff ff ff    	mov    %eax,-0xc8(%ebp)
 804c857:	31 c0                	xor    %eax,%eax
 804c859:	85 d2                	test   %edx,%edx
 804c85b:	0f 49 c2             	cmovns %edx,%eax
 804c85e:	89 85 48 ff ff ff    	mov    %eax,-0xb8(%ebp)
 804c864:	89 75 14             	mov    %esi,0x14(%ebp)
 804c867:	c7 85 44 ff ff ff 00 	movl   $0x0,-0xbc(%ebp)
 804c86e:	00 00 00 
 804c871:	c7 85 20 ff ff ff 00 	movl   $0x0,-0xe0(%ebp)
 804c878:	00 00 00 
 804c87b:	90                   	nop
 804c87c:	8d 74 26 00          	lea    0x0(%esi,%eiz,1),%esi
 804c880:	84 db                	test   %bl,%bl
 804c882:	74 07                	je     804c88b <_vfprintf_r+0x35b>
 804c884:	83 85 48 ff ff ff 01 	addl   $0x1,-0xb8(%ebp)
 804c88b:	8b 8d 48 ff ff ff    	mov    -0xb8(%ebp),%ecx
 804c891:	8b b5 4c ff ff ff    	mov    -0xb4(%ebp),%esi
 804c897:	89 c8                	mov    %ecx,%eax
 804c899:	89 f2                	mov    %esi,%edx
 804c89b:	83 c0 02             	add    $0x2,%eax
 804c89e:	83 e2 02             	and    $0x2,%edx
 804c8a1:	89 95 34 ff ff ff    	mov    %edx,-0xcc(%ebp)
 804c8a7:	89 f2                	mov    %esi,%edx
 804c8a9:	0f 44 c1             	cmove  %ecx,%eax
 804c8ac:	81 e2 84 00 00 00    	and    $0x84,%edx
 804c8b2:	89 85 48 ff ff ff    	mov    %eax,-0xb8(%ebp)
 804c8b8:	89 95 30 ff ff ff    	mov    %edx,-0xd0(%ebp)
 804c8be:	0f 85 1c 06 00 00    	jne    804cee0 <_vfprintf_r+0x9b0>
 804c8c4:	8b b5 40 ff ff ff    	mov    -0xc0(%ebp),%esi
 804c8ca:	2b b5 48 ff ff ff    	sub    -0xb8(%ebp),%esi
 804c8d0:	85 f6                	test   %esi,%esi
 804c8d2:	0f 8e 08 06 00 00    	jle    804cee0 <_vfprintf_r+0x9b0>
 804c8d8:	83 fe 10             	cmp    $0x10,%esi
 804c8db:	8b 8d 7c ff ff ff    	mov    -0x84(%ebp),%ecx
 804c8e1:	8b 85 78 ff ff ff    	mov    -0x88(%ebp),%eax
 804c8e7:	8d 9d 74 ff ff ff    	lea    -0x8c(%ebp),%ebx
 804c8ed:	7f 11                	jg     804c900 <_vfprintf_r+0x3d0>
 804c8ef:	eb 6b                	jmp    804c95c <_vfprintf_r+0x42c>
 804c8f1:	8d b4 26 00 00 00 00 	lea    0x0(%esi,%eiz,1),%esi
 804c8f8:	83 ee 10             	sub    $0x10,%esi
 804c8fb:	83 fe 10             	cmp    $0x10,%esi
 804c8fe:	7e 5c                	jle    804c95c <_vfprintf_r+0x42c>
 804c900:	83 c0 01             	add    $0x1,%eax
 804c903:	83 c1 10             	add    $0x10,%ecx
 804c906:	c7 07 cc 67 05 08    	movl   $0x80567cc,(%edi)
 804c90c:	83 c7 08             	add    $0x8,%edi
 804c90f:	c7 47 fc 10 00 00 00 	movl   $0x10,-0x4(%edi)
 804c916:	83 f8 07             	cmp    $0x7,%eax
 804c919:	89 8d 7c ff ff ff    	mov    %ecx,-0x84(%ebp)
 804c91f:	89 85 78 ff ff ff    	mov    %eax,-0x88(%ebp)
 804c925:	7e d1                	jle    804c8f8 <_vfprintf_r+0x3c8>
 804c927:	8b 45 0c             	mov    0xc(%ebp),%eax
 804c92a:	89 5c 24 08          	mov    %ebx,0x8(%esp)
 804c92e:	89 44 24 04          	mov    %eax,0x4(%esp)
 804c932:	8b 45 08             	mov    0x8(%ebp),%eax
 804c935:	89 04 24             	mov    %eax,(%esp)
 804c938:	e8 53 68 00 00       	call   8053190 <__sprint_r>
 804c93d:	85 c0                	test   %eax,%eax
 804c93f:	0f 85 63 fe ff ff    	jne    804c7a8 <_vfprintf_r+0x278>
 804c945:	83 ee 10             	sub    $0x10,%esi
 804c948:	8b 8d 7c ff ff ff    	mov    -0x84(%ebp),%ecx
 804c94e:	83 fe 10             	cmp    $0x10,%esi
 804c951:	8b 85 78 ff ff ff    	mov    -0x88(%ebp),%eax
 804c957:	8d 7d a8             	lea    -0x58(%ebp),%edi
 804c95a:	7f a4                	jg     804c900 <_vfprintf_r+0x3d0>
 804c95c:	83 c0 01             	add    $0x1,%eax
 804c95f:	01 f1                	add    %esi,%ecx
 804c961:	83 f8 07             	cmp    $0x7,%eax
 804c964:	c7 07 cc 67 05 08    	movl   $0x80567cc,(%edi)
 804c96a:	89 77 04             	mov    %esi,0x4(%edi)
 804c96d:	89 8d 7c ff ff ff    	mov    %ecx,-0x84(%ebp)
 804c973:	89 85 78 ff ff ff    	mov    %eax,-0x88(%ebp)
 804c979:	0f 8f 16 0e 00 00    	jg     804d795 <_vfprintf_r+0x1265>
 804c97f:	83 c7 08             	add    $0x8,%edi
 804c982:	0f b6 9d 59 ff ff ff 	movzbl -0xa7(%ebp),%ebx
 804c989:	e9 58 05 00 00       	jmp    804cee6 <_vfprintf_r+0x9b6>
 804c98e:	f6 85 4c ff ff ff 10 	testb  $0x10,-0xb4(%ebp)
 804c995:	89 85 24 ff ff ff    	mov    %eax,-0xdc(%ebp)
 804c99b:	8b 45 14             	mov    0x14(%ebp),%eax
 804c99e:	89 4d 10             	mov    %ecx,0x10(%ebp)
 804c9a1:	0f 85 15 02 00 00    	jne    804cbbc <_vfprintf_r+0x68c>
 804c9a7:	f6 85 4c ff ff ff 40 	testb  $0x40,-0xb4(%ebp)
 804c9ae:	0f 84 08 02 00 00    	je     804cbbc <_vfprintf_r+0x68c>
 804c9b4:	0f b7 08             	movzwl (%eax),%ecx
 804c9b7:	83 c0 04             	add    $0x4,%eax
 804c9ba:	89 45 14             	mov    %eax,0x14(%ebp)
 804c9bd:	b8 01 00 00 00       	mov    $0x1,%eax
 804c9c2:	8d b6 00 00 00 00    	lea    0x0(%esi),%esi
 804c9c8:	c6 85 59 ff ff ff 00 	movb   $0x0,-0xa7(%ebp)
 804c9cf:	31 db                	xor    %ebx,%ebx
 804c9d1:	8b b5 4c ff ff ff    	mov    -0xb4(%ebp),%esi
 804c9d7:	89 f2                	mov    %esi,%edx
 804c9d9:	80 e2 7f             	and    $0x7f,%dl
 804c9dc:	83 bd 44 ff ff ff 00 	cmpl   $0x0,-0xbc(%ebp)
 804c9e3:	0f 48 d6             	cmovs  %esi,%edx
 804c9e6:	89 95 4c ff ff ff    	mov    %edx,-0xb4(%ebp)
 804c9ec:	8b 95 44 ff ff ff    	mov    -0xbc(%ebp),%edx
 804c9f2:	85 d2                	test   %edx,%edx
 804c9f4:	75 08                	jne    804c9fe <_vfprintf_r+0x4ce>
 804c9f6:	85 c9                	test   %ecx,%ecx
 804c9f8:	0f 84 ea 08 00 00    	je     804d2e8 <_vfprintf_r+0xdb8>
 804c9fe:	3c 01                	cmp    $0x1,%al
 804ca00:	0f 84 6a 0d 00 00    	je     804d770 <_vfprintf_r+0x1240>
 804ca06:	3c 02                	cmp    $0x2,%al
 804ca08:	8d 45 a8             	lea    -0x58(%ebp),%eax
 804ca0b:	0f 85 bf 0b 00 00    	jne    804d5d0 <_vfprintf_r+0x10a0>
 804ca11:	8b b5 08 ff ff ff    	mov    -0xf8(%ebp),%esi
 804ca17:	90                   	nop
 804ca18:	89 ca                	mov    %ecx,%edx
 804ca1a:	83 e8 01             	sub    $0x1,%eax
 804ca1d:	83 e2 0f             	and    $0xf,%edx
 804ca20:	0f b6 14 16          	movzbl (%esi,%edx,1),%edx
 804ca24:	c1 e9 04             	shr    $0x4,%ecx
 804ca27:	85 c9                	test   %ecx,%ecx
 804ca29:	88 10                	mov    %dl,(%eax)
 804ca2b:	75 eb                	jne    804ca18 <_vfprintf_r+0x4e8>
 804ca2d:	8d 55 a8             	lea    -0x58(%ebp),%edx
 804ca30:	29 c2                	sub    %eax,%edx
 804ca32:	89 85 2c ff ff ff    	mov    %eax,-0xd4(%ebp)
 804ca38:	89 95 38 ff ff ff    	mov    %edx,-0xc8(%ebp)
 804ca3e:	66 90                	xchg   %ax,%ax
 804ca40:	8b 85 44 ff ff ff    	mov    -0xbc(%ebp),%eax
 804ca46:	8b 95 38 ff ff ff    	mov    -0xc8(%ebp),%edx
 804ca4c:	c7 85 20 ff ff ff 00 	movl   $0x0,-0xe0(%ebp)
 804ca53:	00 00 00 
 804ca56:	39 c2                	cmp    %eax,%edx
 804ca58:	0f 4d c2             	cmovge %edx,%eax
 804ca5b:	89 85 48 ff ff ff    	mov    %eax,-0xb8(%ebp)
 804ca61:	e9 1a fe ff ff       	jmp    804c880 <_vfprintf_r+0x350>
 804ca66:	81 8d 4c ff ff ff 80 	orl    $0x80,-0xb4(%ebp)
 804ca6d:	00 00 00 
 804ca70:	89 c8                	mov    %ecx,%eax
 804ca72:	e9 26 fc ff ff       	jmp    804c69d <_vfprintf_r+0x16d>
 804ca77:	89 bd 48 ff ff ff    	mov    %edi,-0xb8(%ebp)
 804ca7d:	8d 50 d0             	lea    -0x30(%eax),%edx
 804ca80:	31 ff                	xor    %edi,%edi
 804ca82:	c7 85 40 ff ff ff 00 	movl   $0x0,-0xc0(%ebp)
 804ca89:	00 00 00 
 804ca8c:	8d 74 26 00          	lea    0x0(%esi,%eiz,1),%esi
 804ca90:	8d 04 bf             	lea    (%edi,%edi,4),%eax
 804ca93:	83 c1 01             	add    $0x1,%ecx
 804ca96:	8d 3c 42             	lea    (%edx,%eax,2),%edi
 804ca99:	0f be 41 ff          	movsbl -0x1(%ecx),%eax
 804ca9d:	8d 50 d0             	lea    -0x30(%eax),%edx
 804caa0:	83 fa 09             	cmp    $0x9,%edx
 804caa3:	76 eb                	jbe    804ca90 <_vfprintf_r+0x560>
 804caa5:	89 bd 40 ff ff ff    	mov    %edi,-0xc0(%ebp)
 804caab:	8b bd 48 ff ff ff    	mov    -0xb8(%ebp),%edi
 804cab1:	e9 ed fb ff ff       	jmp    804c6a3 <_vfprintf_r+0x173>
 804cab6:	8d 41 01             	lea    0x1(%ecx),%eax
 804cab9:	89 85 48 ff ff ff    	mov    %eax,-0xb8(%ebp)
 804cabf:	0f be 01             	movsbl (%ecx),%eax
 804cac2:	83 f8 2a             	cmp    $0x2a,%eax
 804cac5:	0f 84 1e 19 00 00    	je     804e3e9 <_vfprintf_r+0x1eb9>
 804cacb:	8d 50 d0             	lea    -0x30(%eax),%edx
 804cace:	31 c9                	xor    %ecx,%ecx
 804cad0:	83 fa 09             	cmp    $0x9,%edx
 804cad3:	0f 87 8d 17 00 00    	ja     804e266 <_vfprintf_r+0x1d36>
 804cad9:	89 bd 44 ff ff ff    	mov    %edi,-0xbc(%ebp)
 804cadf:	8b bd 48 ff ff ff    	mov    -0xb8(%ebp),%edi
 804cae5:	8d 76 00             	lea    0x0(%esi),%esi
 804cae8:	8d 04 89             	lea    (%ecx,%ecx,4),%eax
 804caeb:	83 c7 01             	add    $0x1,%edi
 804caee:	8d 0c 42             	lea    (%edx,%eax,2),%ecx
 804caf1:	0f be 47 ff          	movsbl -0x1(%edi),%eax
 804caf5:	8d 50 d0             	lea    -0x30(%eax),%edx
 804caf8:	83 fa 09             	cmp    $0x9,%edx
 804cafb:	76 eb                	jbe    804cae8 <_vfprintf_r+0x5b8>
 804cafd:	85 c9                	test   %ecx,%ecx
 804caff:	89 ca                	mov    %ecx,%edx
 804cb01:	b9 ff ff ff ff       	mov    $0xffffffff,%ecx
 804cb06:	0f 48 d1             	cmovs  %ecx,%edx
 804cb09:	89 bd 48 ff ff ff    	mov    %edi,-0xb8(%ebp)
 804cb0f:	8b bd 44 ff ff ff    	mov    -0xbc(%ebp),%edi
 804cb15:	8b 8d 48 ff ff ff    	mov    -0xb8(%ebp),%ecx
 804cb1b:	89 95 44 ff ff ff    	mov    %edx,-0xbc(%ebp)
 804cb21:	e9 7d fb ff ff       	jmp    804c6a3 <_vfprintf_r+0x173>
 804cb26:	8b 45 14             	mov    0x14(%ebp),%eax
 804cb29:	89 4d 10             	mov    %ecx,0x10(%ebp)
 804cb2c:	83 8d 4c ff ff ff 02 	orl    $0x2,-0xb4(%ebp)
 804cb33:	8b 08                	mov    (%eax),%ecx
 804cb35:	83 c0 04             	add    $0x4,%eax
 804cb38:	89 45 14             	mov    %eax,0x14(%ebp)
 804cb3b:	b8 02 00 00 00       	mov    $0x2,%eax
 804cb40:	c6 85 5a ff ff ff 30 	movb   $0x30,-0xa6(%ebp)
 804cb47:	c6 85 5b ff ff ff 78 	movb   $0x78,-0xa5(%ebp)
 804cb4e:	c7 85 08 ff ff ff b9 	movl   $0x80564b9,-0xf8(%ebp)
 804cb55:	64 05 08 
 804cb58:	c7 85 24 ff ff ff 78 	movl   $0x78,-0xdc(%ebp)
 804cb5f:	00 00 00 
 804cb62:	e9 61 fe ff ff       	jmp    804c9c8 <_vfprintf_r+0x498>
 804cb67:	83 8d 4c ff ff ff 10 	orl    $0x10,-0xb4(%ebp)
 804cb6e:	f6 85 4c ff ff ff 10 	testb  $0x10,-0xb4(%ebp)
 804cb75:	89 85 24 ff ff ff    	mov    %eax,-0xdc(%ebp)
 804cb7b:	8b 45 14             	mov    0x14(%ebp),%eax
 804cb7e:	89 4d 10             	mov    %ecx,0x10(%ebp)
 804cb81:	75 60                	jne    804cbe3 <_vfprintf_r+0x6b3>
 804cb83:	f6 85 4c ff ff ff 40 	testb  $0x40,-0xb4(%ebp)
 804cb8a:	74 57                	je     804cbe3 <_vfprintf_r+0x6b3>
 804cb8c:	0f b7 08             	movzwl (%eax),%ecx
 804cb8f:	83 c0 04             	add    $0x4,%eax
 804cb92:	89 45 14             	mov    %eax,0x14(%ebp)
 804cb95:	31 c0                	xor    %eax,%eax
 804cb97:	e9 2c fe ff ff       	jmp    804c9c8 <_vfprintf_r+0x498>
 804cb9c:	83 8d 4c ff ff ff 10 	orl    $0x10,-0xb4(%ebp)
 804cba3:	f6 85 4c ff ff ff 10 	testb  $0x10,-0xb4(%ebp)
 804cbaa:	89 85 24 ff ff ff    	mov    %eax,-0xdc(%ebp)
 804cbb0:	8b 45 14             	mov    0x14(%ebp),%eax
 804cbb3:	89 4d 10             	mov    %ecx,0x10(%ebp)
 804cbb6:	0f 84 eb fd ff ff    	je     804c9a7 <_vfprintf_r+0x477>
 804cbbc:	8b 08                	mov    (%eax),%ecx
 804cbbe:	83 c0 04             	add    $0x4,%eax
 804cbc1:	89 45 14             	mov    %eax,0x14(%ebp)
 804cbc4:	b8 01 00 00 00       	mov    $0x1,%eax
 804cbc9:	e9 fa fd ff ff       	jmp    804c9c8 <_vfprintf_r+0x498>
 804cbce:	f6 85 4c ff ff ff 10 	testb  $0x10,-0xb4(%ebp)
 804cbd5:	89 85 24 ff ff ff    	mov    %eax,-0xdc(%ebp)
 804cbdb:	8b 45 14             	mov    0x14(%ebp),%eax
 804cbde:	89 4d 10             	mov    %ecx,0x10(%ebp)
 804cbe1:	74 a0                	je     804cb83 <_vfprintf_r+0x653>
 804cbe3:	8b 08                	mov    (%eax),%ecx
 804cbe5:	83 c0 04             	add    $0x4,%eax
 804cbe8:	89 45 14             	mov    %eax,0x14(%ebp)
 804cbeb:	31 c0                	xor    %eax,%eax
 804cbed:	e9 d6 fd ff ff       	jmp    804c9c8 <_vfprintf_r+0x498>
 804cbf2:	83 8d 4c ff ff ff 10 	orl    $0x10,-0xb4(%ebp)
 804cbf9:	f6 85 4c ff ff ff 10 	testb  $0x10,-0xb4(%ebp)
 804cc00:	89 85 24 ff ff ff    	mov    %eax,-0xdc(%ebp)
 804cc06:	8b 45 14             	mov    0x14(%ebp),%eax
 804cc09:	89 4d 10             	mov    %ecx,0x10(%ebp)
 804cc0c:	88 9d 59 ff ff ff    	mov    %bl,-0xa7(%ebp)
 804cc12:	0f 85 d3 01 00 00    	jne    804cdeb <_vfprintf_r+0x8bb>
 804cc18:	f6 85 4c ff ff ff 40 	testb  $0x40,-0xb4(%ebp)
 804cc1f:	0f 84 c6 01 00 00    	je     804cdeb <_vfprintf_r+0x8bb>
 804cc25:	0f bf 08             	movswl (%eax),%ecx
 804cc28:	83 c0 04             	add    $0x4,%eax
 804cc2b:	89 45 14             	mov    %eax,0x14(%ebp)
 804cc2e:	85 c9                	test   %ecx,%ecx
 804cc30:	0f 88 9b 0e 00 00    	js     804dad1 <_vfprintf_r+0x15a1>
 804cc36:	0f b6 9d 59 ff ff ff 	movzbl -0xa7(%ebp),%ebx
 804cc3d:	b8 01 00 00 00       	mov    $0x1,%eax
 804cc42:	e9 8a fd ff ff       	jmp    804c9d1 <_vfprintf_r+0x4a1>
 804cc47:	f6 85 4c ff ff ff 08 	testb  $0x8,-0xb4(%ebp)
 804cc4e:	89 85 24 ff ff ff    	mov    %eax,-0xdc(%ebp)
 804cc54:	8b 45 14             	mov    0x14(%ebp),%eax
 804cc57:	89 4d 10             	mov    %ecx,0x10(%ebp)
 804cc5a:	88 9d 59 ff ff ff    	mov    %bl,-0xa7(%ebp)
 804cc60:	0f 84 2a 10 00 00    	je     804dc90 <_vfprintf_r+0x1760>
 804cc66:	db 28                	fldt   (%eax)
 804cc68:	83 c0 0c             	add    $0xc,%eax
 804cc6b:	89 45 14             	mov    %eax,0x14(%ebp)
 804cc6e:	dd 9d 10 ff ff ff    	fstpl  -0xf0(%ebp)
 804cc74:	dd 85 10 ff ff ff    	fldl   -0xf0(%ebp)
 804cc7a:	dd 1c 24             	fstpl  (%esp)
 804cc7d:	e8 fe 51 00 00       	call   8051e80 <__fpclassifyd>
 804cc82:	83 f8 01             	cmp    $0x1,%eax
 804cc85:	0f 85 5e 0e 00 00    	jne    804dae9 <_vfprintf_r+0x15b9>
 804cc8b:	d9 ee                	fldz   
 804cc8d:	dd 85 10 ff ff ff    	fldl   -0xf0(%ebp)
 804cc93:	d9 c9                	fxch   %st(1)
 804cc95:	df e9                	fucomip %st(1),%st
 804cc97:	dd d8                	fstp   %st(0)
 804cc99:	0f 87 4d 14 00 00    	ja     804e0ec <_vfprintf_r+0x1bbc>
 804cc9f:	0f b6 9d 59 ff ff ff 	movzbl -0xa7(%ebp),%ebx
 804cca6:	83 bd 24 ff ff ff 47 	cmpl   $0x47,-0xdc(%ebp)
 804ccad:	ba 98 64 05 08       	mov    $0x8056498,%edx
 804ccb2:	b8 9c 64 05 08       	mov    $0x805649c,%eax
 804ccb7:	c7 85 48 ff ff ff 03 	movl   $0x3,-0xb8(%ebp)
 804ccbe:	00 00 00 
 804ccc1:	0f 4e c2             	cmovle %edx,%eax
 804ccc4:	89 85 2c ff ff ff    	mov    %eax,-0xd4(%ebp)
 804ccca:	81 a5 4c ff ff ff 7f 	andl   $0xffffff7f,-0xb4(%ebp)
 804ccd1:	ff ff ff 
 804ccd4:	c7 85 38 ff ff ff 03 	movl   $0x3,-0xc8(%ebp)
 804ccdb:	00 00 00 
 804ccde:	c7 85 44 ff ff ff 00 	movl   $0x0,-0xbc(%ebp)
 804cce5:	00 00 00 
 804cce8:	c7 85 20 ff ff ff 00 	movl   $0x0,-0xe0(%ebp)
 804ccef:	00 00 00 
 804ccf2:	e9 89 fb ff ff       	jmp    804c880 <_vfprintf_r+0x350>
 804ccf7:	83 8d 4c ff ff ff 08 	orl    $0x8,-0xb4(%ebp)
 804ccfe:	89 c8                	mov    %ecx,%eax
 804cd00:	e9 98 f9 ff ff       	jmp    804c69d <_vfprintf_r+0x16d>
 804cd05:	f6 85 4c ff ff ff 10 	testb  $0x10,-0xb4(%ebp)
 804cd0c:	89 85 24 ff ff ff    	mov    %eax,-0xdc(%ebp)
 804cd12:	8b 45 14             	mov    0x14(%ebp),%eax
 804cd15:	89 4d 10             	mov    %ecx,0x10(%ebp)
 804cd18:	88 9d 59 ff ff ff    	mov    %bl,-0xa7(%ebp)
 804cd1e:	c7 85 08 ff ff ff b9 	movl   $0x80564b9,-0xf8(%ebp)
 804cd25:	64 05 08 
 804cd28:	0f 85 0d 01 00 00    	jne    804ce3b <_vfprintf_r+0x90b>
 804cd2e:	f6 85 4c ff ff ff 40 	testb  $0x40,-0xb4(%ebp)
 804cd35:	0f 84 00 01 00 00    	je     804ce3b <_vfprintf_r+0x90b>
 804cd3b:	0f b7 08             	movzwl (%eax),%ecx
 804cd3e:	83 c0 04             	add    $0x4,%eax
 804cd41:	89 45 14             	mov    %eax,0x14(%ebp)
 804cd44:	f6 85 4c ff ff ff 01 	testb  $0x1,-0xb4(%ebp)
 804cd4b:	b8 02 00 00 00       	mov    $0x2,%eax
 804cd50:	0f 84 72 fc ff ff    	je     804c9c8 <_vfprintf_r+0x498>
 804cd56:	85 c9                	test   %ecx,%ecx
 804cd58:	0f 84 6a fc ff ff    	je     804c9c8 <_vfprintf_r+0x498>
 804cd5e:	0f b6 95 24 ff ff ff 	movzbl -0xdc(%ebp),%edx
 804cd65:	c6 85 5a ff ff ff 30 	movb   $0x30,-0xa6(%ebp)
 804cd6c:	83 8d 4c ff ff ff 02 	orl    $0x2,-0xb4(%ebp)
 804cd73:	88 95 5b ff ff ff    	mov    %dl,-0xa5(%ebp)
 804cd79:	e9 4a fc ff ff       	jmp    804c9c8 <_vfprintf_r+0x498>
 804cd7e:	f6 85 4c ff ff ff 10 	testb  $0x10,-0xb4(%ebp)
 804cd85:	89 4d 10             	mov    %ecx,0x10(%ebp)
 804cd88:	88 9d 59 ff ff ff    	mov    %bl,-0xa7(%ebp)
 804cd8e:	0f 85 30 01 00 00    	jne    804cec4 <_vfprintf_r+0x994>
 804cd94:	f6 85 4c ff ff ff 40 	testb  $0x40,-0xb4(%ebp)
 804cd9b:	0f 84 23 01 00 00    	je     804cec4 <_vfprintf_r+0x994>
 804cda1:	8b 45 14             	mov    0x14(%ebp),%eax
 804cda4:	0f b7 95 28 ff ff ff 	movzwl -0xd8(%ebp),%edx
 804cdab:	8b 00                	mov    (%eax),%eax
 804cdad:	66 89 10             	mov    %dx,(%eax)
 804cdb0:	8b 45 14             	mov    0x14(%ebp),%eax
 804cdb3:	83 c0 04             	add    $0x4,%eax
 804cdb6:	89 45 14             	mov    %eax,0x14(%ebp)
 804cdb9:	e9 4e f8 ff ff       	jmp    804c60c <_vfprintf_r+0xdc>
 804cdbe:	83 8d 4c ff ff ff 40 	orl    $0x40,-0xb4(%ebp)
 804cdc5:	89 c8                	mov    %ecx,%eax
 804cdc7:	e9 d1 f8 ff ff       	jmp    804c69d <_vfprintf_r+0x16d>
 804cdcc:	f6 85 4c ff ff ff 10 	testb  $0x10,-0xb4(%ebp)
 804cdd3:	89 85 24 ff ff ff    	mov    %eax,-0xdc(%ebp)
 804cdd9:	8b 45 14             	mov    0x14(%ebp),%eax
 804cddc:	89 4d 10             	mov    %ecx,0x10(%ebp)
 804cddf:	88 9d 59 ff ff ff    	mov    %bl,-0xa7(%ebp)
 804cde5:	0f 84 2d fe ff ff    	je     804cc18 <_vfprintf_r+0x6e8>
 804cdeb:	8b 08                	mov    (%eax),%ecx
 804cded:	83 c0 04             	add    $0x4,%eax
 804cdf0:	89 45 14             	mov    %eax,0x14(%ebp)
 804cdf3:	e9 36 fe ff ff       	jmp    804cc2e <_vfprintf_r+0x6fe>
 804cdf8:	84 db                	test   %bl,%bl
 804cdfa:	89 c8                	mov    %ecx,%eax
 804cdfc:	0f 44 de             	cmove  %esi,%ebx
 804cdff:	e9 99 f8 ff ff       	jmp    804c69d <_vfprintf_r+0x16d>
 804ce04:	83 8d 4c ff ff ff 01 	orl    $0x1,-0xb4(%ebp)
 804ce0b:	89 c8                	mov    %ecx,%eax
 804ce0d:	e9 8b f8 ff ff       	jmp    804c69d <_vfprintf_r+0x16d>
 804ce12:	f6 85 4c ff ff ff 10 	testb  $0x10,-0xb4(%ebp)
 804ce19:	89 85 24 ff ff ff    	mov    %eax,-0xdc(%ebp)
 804ce1f:	8b 45 14             	mov    0x14(%ebp),%eax
 804ce22:	89 4d 10             	mov    %ecx,0x10(%ebp)
 804ce25:	88 9d 59 ff ff ff    	mov    %bl,-0xa7(%ebp)
 804ce2b:	c7 85 08 ff ff ff a8 	movl   $0x80564a8,-0xf8(%ebp)
 804ce32:	64 05 08 
 804ce35:	0f 84 f3 fe ff ff    	je     804cd2e <_vfprintf_r+0x7fe>
 804ce3b:	8b 08                	mov    (%eax),%ecx
 804ce3d:	83 c0 04             	add    $0x4,%eax
 804ce40:	89 45 14             	mov    %eax,0x14(%ebp)
 804ce43:	e9 fc fe ff ff       	jmp    804cd44 <_vfprintf_r+0x814>
 804ce48:	89 85 24 ff ff ff    	mov    %eax,-0xdc(%ebp)
 804ce4e:	8b 45 14             	mov    0x14(%ebp),%eax
 804ce51:	89 4d 10             	mov    %ecx,0x10(%ebp)
 804ce54:	c6 85 59 ff ff ff 00 	movb   $0x0,-0xa7(%ebp)
 804ce5b:	8b 00                	mov    (%eax),%eax
 804ce5d:	88 45 80             	mov    %al,-0x80(%ebp)
 804ce60:	8b 45 14             	mov    0x14(%ebp),%eax
 804ce63:	83 c0 04             	add    $0x4,%eax
 804ce66:	89 45 14             	mov    %eax,0x14(%ebp)
 804ce69:	8d 45 80             	lea    -0x80(%ebp),%eax
 804ce6c:	31 db                	xor    %ebx,%ebx
 804ce6e:	c7 85 48 ff ff ff 01 	movl   $0x1,-0xb8(%ebp)
 804ce75:	00 00 00 
 804ce78:	c7 85 38 ff ff ff 01 	movl   $0x1,-0xc8(%ebp)
 804ce7f:	00 00 00 
 804ce82:	c7 85 44 ff ff ff 00 	movl   $0x0,-0xbc(%ebp)
 804ce89:	00 00 00 
 804ce8c:	c7 85 20 ff ff ff 00 	movl   $0x0,-0xe0(%ebp)
 804ce93:	00 00 00 
 804ce96:	89 85 2c ff ff ff    	mov    %eax,-0xd4(%ebp)
 804ce9c:	e9 ea f9 ff ff       	jmp    804c88b <_vfprintf_r+0x35b>
 804cea1:	85 c0                	test   %eax,%eax
 804cea3:	89 85 24 ff ff ff    	mov    %eax,-0xdc(%ebp)
 804cea9:	89 4d 10             	mov    %ecx,0x10(%ebp)
 804ceac:	88 9d 59 ff ff ff    	mov    %bl,-0xa7(%ebp)
 804ceb2:	0f 84 c8 f8 ff ff    	je     804c780 <_vfprintf_r+0x250>
 804ceb8:	88 45 80             	mov    %al,-0x80(%ebp)
 804cebb:	c6 85 59 ff ff ff 00 	movb   $0x0,-0xa7(%ebp)
 804cec2:	eb a5                	jmp    804ce69 <_vfprintf_r+0x939>
 804cec4:	8b 45 14             	mov    0x14(%ebp),%eax
 804cec7:	8b 95 28 ff ff ff    	mov    -0xd8(%ebp),%edx
 804cecd:	8b 00                	mov    (%eax),%eax
 804cecf:	89 10                	mov    %edx,(%eax)
 804ced1:	8b 45 14             	mov    0x14(%ebp),%eax
 804ced4:	83 c0 04             	add    $0x4,%eax
 804ced7:	89 45 14             	mov    %eax,0x14(%ebp)
 804ceda:	e9 2d f7 ff ff       	jmp    804c60c <_vfprintf_r+0xdc>
 804cedf:	90                   	nop
 804cee0:	8b 8d 7c ff ff ff    	mov    -0x84(%ebp),%ecx
 804cee6:	84 db                	test   %bl,%bl
 804cee8:	74 33                	je     804cf1d <_vfprintf_r+0x9ed>
 804ceea:	8d 85 59 ff ff ff    	lea    -0xa7(%ebp),%eax
 804cef0:	83 c1 01             	add    $0x1,%ecx
 804cef3:	89 07                	mov    %eax,(%edi)
 804cef5:	8b 85 78 ff ff ff    	mov    -0x88(%ebp),%eax
 804cefb:	83 c7 08             	add    $0x8,%edi
 804cefe:	c7 47 fc 01 00 00 00 	movl   $0x1,-0x4(%edi)
 804cf05:	89 8d 7c ff ff ff    	mov    %ecx,-0x84(%ebp)
 804cf0b:	83 c0 01             	add    $0x1,%eax
 804cf0e:	83 f8 07             	cmp    $0x7,%eax
 804cf11:	89 85 78 ff ff ff    	mov    %eax,-0x88(%ebp)
 804cf17:	0f 8f 43 06 00 00    	jg     804d560 <_vfprintf_r+0x1030>
 804cf1d:	8b 9d 34 ff ff ff    	mov    -0xcc(%ebp),%ebx
 804cf23:	85 db                	test   %ebx,%ebx
 804cf25:	74 33                	je     804cf5a <_vfprintf_r+0xa2a>
 804cf27:	8d 85 5a ff ff ff    	lea    -0xa6(%ebp),%eax
 804cf2d:	83 c1 02             	add    $0x2,%ecx
 804cf30:	89 07                	mov    %eax,(%edi)
 804cf32:	8b 85 78 ff ff ff    	mov    -0x88(%ebp),%eax
 804cf38:	83 c7 08             	add    $0x8,%edi
 804cf3b:	c7 47 fc 02 00 00 00 	movl   $0x2,-0x4(%edi)
 804cf42:	89 8d 7c ff ff ff    	mov    %ecx,-0x84(%ebp)
 804cf48:	83 c0 01             	add    $0x1,%eax
 804cf4b:	83 f8 07             	cmp    $0x7,%eax
 804cf4e:	89 85 78 ff ff ff    	mov    %eax,-0x88(%ebp)
 804cf54:	0f 8f 3e 06 00 00    	jg     804d598 <_vfprintf_r+0x1068>
 804cf5a:	81 bd 30 ff ff ff 80 	cmpl   $0x80,-0xd0(%ebp)
 804cf61:	00 00 00 
 804cf64:	0f 84 c6 03 00 00    	je     804d330 <_vfprintf_r+0xe00>
 804cf6a:	8b b5 44 ff ff ff    	mov    -0xbc(%ebp),%esi
 804cf70:	2b b5 38 ff ff ff    	sub    -0xc8(%ebp),%esi
 804cf76:	85 f6                	test   %esi,%esi
 804cf78:	0f 8e d2 00 00 00    	jle    804d050 <_vfprintf_r+0xb20>
 804cf7e:	83 fe 10             	cmp    $0x10,%esi
 804cf81:	8b 85 78 ff ff ff    	mov    -0x88(%ebp),%eax
 804cf87:	8d 9d 74 ff ff ff    	lea    -0x8c(%ebp),%ebx
 804cf8d:	7f 11                	jg     804cfa0 <_vfprintf_r+0xa70>
 804cf8f:	eb 6b                	jmp    804cffc <_vfprintf_r+0xacc>
 804cf91:	8d b4 26 00 00 00 00 	lea    0x0(%esi,%eiz,1),%esi
 804cf98:	83 ee 10             	sub    $0x10,%esi
 804cf9b:	83 fe 10             	cmp    $0x10,%esi
 804cf9e:	7e 5c                	jle    804cffc <_vfprintf_r+0xacc>
 804cfa0:	83 c0 01             	add    $0x1,%eax
 804cfa3:	83 c1 10             	add    $0x10,%ecx
 804cfa6:	c7 07 bc 67 05 08    	movl   $0x80567bc,(%edi)
 804cfac:	83 c7 08             	add    $0x8,%edi
 804cfaf:	c7 47 fc 10 00 00 00 	movl   $0x10,-0x4(%edi)
 804cfb6:	83 f8 07             	cmp    $0x7,%eax
 804cfb9:	89 8d 7c ff ff ff    	mov    %ecx,-0x84(%ebp)
 804cfbf:	89 85 78 ff ff ff    	mov    %eax,-0x88(%ebp)
 804cfc5:	7e d1                	jle    804cf98 <_vfprintf_r+0xa68>
 804cfc7:	8b 45 0c             	mov    0xc(%ebp),%eax
 804cfca:	89 5c 24 08          	mov    %ebx,0x8(%esp)
 804cfce:	89 44 24 04          	mov    %eax,0x4(%esp)
 804cfd2:	8b 45 08             	mov    0x8(%ebp),%eax
 804cfd5:	89 04 24             	mov    %eax,(%esp)
 804cfd8:	e8 b3 61 00 00       	call   8053190 <__sprint_r>
 804cfdd:	85 c0                	test   %eax,%eax
 804cfdf:	0f 85 c3 f7 ff ff    	jne    804c7a8 <_vfprintf_r+0x278>
 804cfe5:	83 ee 10             	sub    $0x10,%esi
 804cfe8:	8b 8d 7c ff ff ff    	mov    -0x84(%ebp),%ecx
 804cfee:	83 fe 10             	cmp    $0x10,%esi
 804cff1:	8b 85 78 ff ff ff    	mov    -0x88(%ebp),%eax
 804cff7:	8d 7d a8             	lea    -0x58(%ebp),%edi
 804cffa:	7f a4                	jg     804cfa0 <_vfprintf_r+0xa70>
 804cffc:	83 c0 01             	add    $0x1,%eax
 804cfff:	01 f1                	add    %esi,%ecx
 804d001:	c7 07 bc 67 05 08    	movl   $0x80567bc,(%edi)
 804d007:	83 c7 08             	add    $0x8,%edi
 804d00a:	89 77 fc             	mov    %esi,-0x4(%edi)
 804d00d:	83 f8 07             	cmp    $0x7,%eax
 804d010:	89 8d 7c ff ff ff    	mov    %ecx,-0x84(%ebp)
 804d016:	89 85 78 ff ff ff    	mov    %eax,-0x88(%ebp)
 804d01c:	7e 32                	jle    804d050 <_vfprintf_r+0xb20>
 804d01e:	8d 85 74 ff ff ff    	lea    -0x8c(%ebp),%eax
 804d024:	89 44 24 08          	mov    %eax,0x8(%esp)
 804d028:	8b 45 0c             	mov    0xc(%ebp),%eax
 804d02b:	89 44 24 04          	mov    %eax,0x4(%esp)
 804d02f:	8b 45 08             	mov    0x8(%ebp),%eax
 804d032:	89 04 24             	mov    %eax,(%esp)
 804d035:	e8 56 61 00 00       	call   8053190 <__sprint_r>
 804d03a:	85 c0                	test   %eax,%eax
 804d03c:	0f 85 66 f7 ff ff    	jne    804c7a8 <_vfprintf_r+0x278>
 804d042:	8b 8d 7c ff ff ff    	mov    -0x84(%ebp),%ecx
 804d048:	8d 7d a8             	lea    -0x58(%ebp),%edi
 804d04b:	90                   	nop
 804d04c:	8d 74 26 00          	lea    0x0(%esi,%eiz,1),%esi
 804d050:	f7 85 4c ff ff ff 00 	testl  $0x100,-0xb4(%ebp)
 804d057:	01 00 00 
 804d05a:	0f 85 50 01 00 00    	jne    804d1b0 <_vfprintf_r+0xc80>
 804d060:	8b 85 2c ff ff ff    	mov    -0xd4(%ebp),%eax
 804d066:	89 07                	mov    %eax,(%edi)
 804d068:	8b 85 38 ff ff ff    	mov    -0xc8(%ebp),%eax
 804d06e:	01 c1                	add    %eax,%ecx
 804d070:	89 47 04             	mov    %eax,0x4(%edi)
 804d073:	8b 85 78 ff ff ff    	mov    -0x88(%ebp),%eax
 804d079:	89 8d 7c ff ff ff    	mov    %ecx,-0x84(%ebp)
 804d07f:	83 c0 01             	add    $0x1,%eax
 804d082:	83 f8 07             	cmp    $0x7,%eax
 804d085:	89 85 78 ff ff ff    	mov    %eax,-0x88(%ebp)
 804d08b:	0f 8f 6a 04 00 00    	jg     804d4fb <_vfprintf_r+0xfcb>
 804d091:	83 c7 08             	add    $0x8,%edi
 804d094:	f6 85 4c ff ff ff 04 	testb  $0x4,-0xb4(%ebp)
 804d09b:	0f 84 d7 00 00 00    	je     804d178 <_vfprintf_r+0xc48>
 804d0a1:	8b b5 40 ff ff ff    	mov    -0xc0(%ebp),%esi
 804d0a7:	2b b5 48 ff ff ff    	sub    -0xb8(%ebp),%esi
 804d0ad:	85 f6                	test   %esi,%esi
 804d0af:	0f 8e c3 00 00 00    	jle    804d178 <_vfprintf_r+0xc48>
 804d0b5:	83 fe 10             	cmp    $0x10,%esi
 804d0b8:	8b 85 78 ff ff ff    	mov    -0x88(%ebp),%eax
 804d0be:	8d 9d 74 ff ff ff    	lea    -0x8c(%ebp),%ebx
 804d0c4:	7f 0a                	jg     804d0d0 <_vfprintf_r+0xba0>
 804d0c6:	eb 64                	jmp    804d12c <_vfprintf_r+0xbfc>
 804d0c8:	83 ee 10             	sub    $0x10,%esi
 804d0cb:	83 fe 10             	cmp    $0x10,%esi
 804d0ce:	7e 5c                	jle    804d12c <_vfprintf_r+0xbfc>
 804d0d0:	83 c0 01             	add    $0x1,%eax
 804d0d3:	83 c1 10             	add    $0x10,%ecx
 804d0d6:	c7 07 cc 67 05 08    	movl   $0x80567cc,(%edi)
 804d0dc:	83 c7 08             	add    $0x8,%edi
 804d0df:	c7 47 fc 10 00 00 00 	movl   $0x10,-0x4(%edi)
 804d0e6:	83 f8 07             	cmp    $0x7,%eax
 804d0e9:	89 8d 7c ff ff ff    	mov    %ecx,-0x84(%ebp)
 804d0ef:	89 85 78 ff ff ff    	mov    %eax,-0x88(%ebp)
 804d0f5:	7e d1                	jle    804d0c8 <_vfprintf_r+0xb98>
 804d0f7:	8b 45 0c             	mov    0xc(%ebp),%eax
 804d0fa:	89 5c 24 08          	mov    %ebx,0x8(%esp)
 804d0fe:	89 44 24 04          	mov    %eax,0x4(%esp)
 804d102:	8b 45 08             	mov    0x8(%ebp),%eax
 804d105:	89 04 24             	mov    %eax,(%esp)
 804d108:	e8 83 60 00 00       	call   8053190 <__sprint_r>
 804d10d:	85 c0                	test   %eax,%eax
 804d10f:	0f 85 93 f6 ff ff    	jne    804c7a8 <_vfprintf_r+0x278>
 804d115:	83 ee 10             	sub    $0x10,%esi
 804d118:	8b 8d 7c ff ff ff    	mov    -0x84(%ebp),%ecx
 804d11e:	83 fe 10             	cmp    $0x10,%esi
 804d121:	8b 85 78 ff ff ff    	mov    -0x88(%ebp),%eax
 804d127:	8d 7d a8             	lea    -0x58(%ebp),%edi
 804d12a:	7f a4                	jg     804d0d0 <_vfprintf_r+0xba0>
 804d12c:	83 c0 01             	add    $0x1,%eax
 804d12f:	01 f1                	add    %esi,%ecx
 804d131:	83 f8 07             	cmp    $0x7,%eax
 804d134:	c7 07 cc 67 05 08    	movl   $0x80567cc,(%edi)
 804d13a:	89 77 04             	mov    %esi,0x4(%edi)
 804d13d:	89 8d 7c ff ff ff    	mov    %ecx,-0x84(%ebp)
 804d143:	89 85 78 ff ff ff    	mov    %eax,-0x88(%ebp)
 804d149:	7e 2d                	jle    804d178 <_vfprintf_r+0xc48>
 804d14b:	8d 85 74 ff ff ff    	lea    -0x8c(%ebp),%eax
 804d151:	89 44 24 08          	mov    %eax,0x8(%esp)
 804d155:	8b 45 0c             	mov    0xc(%ebp),%eax
 804d158:	89 44 24 04          	mov    %eax,0x4(%esp)
 804d15c:	8b 45 08             	mov    0x8(%ebp),%eax
 804d15f:	89 04 24             	mov    %eax,(%esp)
 804d162:	e8 29 60 00 00       	call   8053190 <__sprint_r>
 804d167:	85 c0                	test   %eax,%eax
 804d169:	0f 85 39 f6 ff ff    	jne    804c7a8 <_vfprintf_r+0x278>
 804d16f:	8b 8d 7c ff ff ff    	mov    -0x84(%ebp),%ecx
 804d175:	8d 76 00             	lea    0x0(%esi),%esi
 804d178:	8b 85 40 ff ff ff    	mov    -0xc0(%ebp),%eax
 804d17e:	8b 95 48 ff ff ff    	mov    -0xb8(%ebp),%edx
 804d184:	39 c2                	cmp    %eax,%edx
 804d186:	0f 4d c2             	cmovge %edx,%eax
 804d189:	01 85 28 ff ff ff    	add    %eax,-0xd8(%ebp)
 804d18f:	85 c9                	test   %ecx,%ecx
 804d191:	0f 85 99 03 00 00    	jne    804d530 <_vfprintf_r+0x1000>
 804d197:	c7 85 78 ff ff ff 00 	movl   $0x0,-0x88(%ebp)
 804d19e:	00 00 00 
 804d1a1:	8d 7d a8             	lea    -0x58(%ebp),%edi
 804d1a4:	e9 63 f4 ff ff       	jmp    804c60c <_vfprintf_r+0xdc>
 804d1a9:	8d b4 26 00 00 00 00 	lea    0x0(%esi,%eiz,1),%esi
 804d1b0:	83 bd 24 ff ff ff 65 	cmpl   $0x65,-0xdc(%ebp)
 804d1b7:	0f 8e 5b 02 00 00    	jle    804d418 <_vfprintf_r+0xee8>
 804d1bd:	d9 ee                	fldz   
 804d1bf:	dd 85 10 ff ff ff    	fldl   -0xf0(%ebp)
 804d1c5:	df e9                	fucomip %st(1),%st
 804d1c7:	dd d8                	fstp   %st(0)
 804d1c9:	0f 8a 59 04 00 00    	jp     804d628 <_vfprintf_r+0x10f8>
 804d1cf:	0f 85 53 04 00 00    	jne    804d628 <_vfprintf_r+0x10f8>
 804d1d5:	8b 85 78 ff ff ff    	mov    -0x88(%ebp),%eax
 804d1db:	83 c1 01             	add    $0x1,%ecx
 804d1de:	83 c7 08             	add    $0x8,%edi
 804d1e1:	c7 47 f8 d1 64 05 08 	movl   $0x80564d1,-0x8(%edi)
 804d1e8:	c7 47 fc 01 00 00 00 	movl   $0x1,-0x4(%edi)
 804d1ef:	89 8d 7c ff ff ff    	mov    %ecx,-0x84(%ebp)
 804d1f5:	83 c0 01             	add    $0x1,%eax
 804d1f8:	83 f8 07             	cmp    $0x7,%eax
 804d1fb:	89 85 78 ff ff ff    	mov    %eax,-0x88(%ebp)
 804d201:	0f 8f 9c 0a 00 00    	jg     804dca3 <_vfprintf_r+0x1773>
 804d207:	8b 85 1c ff ff ff    	mov    -0xe4(%ebp),%eax
 804d20d:	39 85 5c ff ff ff    	cmp    %eax,-0xa4(%ebp)
 804d213:	7c 0d                	jl     804d222 <_vfprintf_r+0xcf2>
 804d215:	f6 85 4c ff ff ff 01 	testb  $0x1,-0xb4(%ebp)
 804d21c:	0f 84 72 fe ff ff    	je     804d094 <_vfprintf_r+0xb64>
 804d222:	8b 85 18 ff ff ff    	mov    -0xe8(%ebp),%eax
 804d228:	83 c7 08             	add    $0x8,%edi
 804d22b:	89 47 f8             	mov    %eax,-0x8(%edi)
 804d22e:	8b 85 0c ff ff ff    	mov    -0xf4(%ebp),%eax
 804d234:	89 47 fc             	mov    %eax,-0x4(%edi)
 804d237:	01 c1                	add    %eax,%ecx
 804d239:	8b 85 78 ff ff ff    	mov    -0x88(%ebp),%eax
 804d23f:	89 8d 7c ff ff ff    	mov    %ecx,-0x84(%ebp)
 804d245:	83 c0 01             	add    $0x1,%eax
 804d248:	83 f8 07             	cmp    $0x7,%eax
 804d24b:	89 85 78 ff ff ff    	mov    %eax,-0x88(%ebp)
 804d251:	0f 8f 43 0c 00 00    	jg     804de9a <_vfprintf_r+0x196a>
 804d257:	8b 85 1c ff ff ff    	mov    -0xe4(%ebp),%eax
 804d25d:	8d 70 ff             	lea    -0x1(%eax),%esi
 804d260:	85 f6                	test   %esi,%esi
 804d262:	0f 8e 2c fe ff ff    	jle    804d094 <_vfprintf_r+0xb64>
 804d268:	83 fe 10             	cmp    $0x10,%esi
 804d26b:	8b 85 78 ff ff ff    	mov    -0x88(%ebp),%eax
 804d271:	8d 9d 74 ff ff ff    	lea    -0x8c(%ebp),%ebx
 804d277:	7f 13                	jg     804d28c <_vfprintf_r+0xd5c>
 804d279:	e9 d4 05 00 00       	jmp    804d852 <_vfprintf_r+0x1322>
 804d27e:	66 90                	xchg   %ax,%ax
 804d280:	83 ee 10             	sub    $0x10,%esi
 804d283:	83 fe 10             	cmp    $0x10,%esi
 804d286:	0f 8e c6 05 00 00    	jle    804d852 <_vfprintf_r+0x1322>
 804d28c:	83 c0 01             	add    $0x1,%eax
 804d28f:	83 c1 10             	add    $0x10,%ecx
 804d292:	c7 07 bc 67 05 08    	movl   $0x80567bc,(%edi)
 804d298:	83 c7 08             	add    $0x8,%edi
 804d29b:	c7 47 fc 10 00 00 00 	movl   $0x10,-0x4(%edi)
 804d2a2:	83 f8 07             	cmp    $0x7,%eax
 804d2a5:	89 8d 7c ff ff ff    	mov    %ecx,-0x84(%ebp)
 804d2ab:	89 85 78 ff ff ff    	mov    %eax,-0x88(%ebp)
 804d2b1:	7e cd                	jle    804d280 <_vfprintf_r+0xd50>
 804d2b3:	8b 45 0c             	mov    0xc(%ebp),%eax
 804d2b6:	89 5c 24 08          	mov    %ebx,0x8(%esp)
 804d2ba:	89 44 24 04          	mov    %eax,0x4(%esp)
 804d2be:	8b 45 08             	mov    0x8(%ebp),%eax
 804d2c1:	89 04 24             	mov    %eax,(%esp)
 804d2c4:	e8 c7 5e 00 00       	call   8053190 <__sprint_r>
 804d2c9:	85 c0                	test   %eax,%eax
 804d2cb:	0f 85 d7 f4 ff ff    	jne    804c7a8 <_vfprintf_r+0x278>
 804d2d1:	8b 8d 7c ff ff ff    	mov    -0x84(%ebp),%ecx
 804d2d7:	8d 7d a8             	lea    -0x58(%ebp),%edi
 804d2da:	8b 85 78 ff ff ff    	mov    -0x88(%ebp),%eax
 804d2e0:	eb 9e                	jmp    804d280 <_vfprintf_r+0xd50>
 804d2e2:	8d b6 00 00 00 00    	lea    0x0(%esi),%esi
 804d2e8:	84 c0                	test   %al,%al
 804d2ea:	75 2c                	jne    804d318 <_vfprintf_r+0xde8>
 804d2ec:	f6 85 4c ff ff ff 01 	testb  $0x1,-0xb4(%ebp)
 804d2f3:	74 23                	je     804d318 <_vfprintf_r+0xde8>
 804d2f5:	8b 85 00 ff ff ff    	mov    -0x100(%ebp),%eax
 804d2fb:	c6 45 a7 30          	movb   $0x30,-0x59(%ebp)
 804d2ff:	89 85 38 ff ff ff    	mov    %eax,-0xc8(%ebp)
 804d305:	8d 45 a7             	lea    -0x59(%ebp),%eax
 804d308:	89 85 2c ff ff ff    	mov    %eax,-0xd4(%ebp)
 804d30e:	e9 2d f7 ff ff       	jmp    804ca40 <_vfprintf_r+0x510>
 804d313:	90                   	nop
 804d314:	8d 74 26 00          	lea    0x0(%esi,%eiz,1),%esi
 804d318:	8d 45 a8             	lea    -0x58(%ebp),%eax
 804d31b:	c7 85 38 ff ff ff 00 	movl   $0x0,-0xc8(%ebp)
 804d322:	00 00 00 
 804d325:	89 85 2c ff ff ff    	mov    %eax,-0xd4(%ebp)
 804d32b:	e9 10 f7 ff ff       	jmp    804ca40 <_vfprintf_r+0x510>
 804d330:	8b b5 40 ff ff ff    	mov    -0xc0(%ebp),%esi
 804d336:	2b b5 48 ff ff ff    	sub    -0xb8(%ebp),%esi
 804d33c:	85 f6                	test   %esi,%esi
 804d33e:	0f 8e 26 fc ff ff    	jle    804cf6a <_vfprintf_r+0xa3a>
 804d344:	83 fe 10             	cmp    $0x10,%esi
 804d347:	8b 85 78 ff ff ff    	mov    -0x88(%ebp),%eax
 804d34d:	8d 9d 74 ff ff ff    	lea    -0x8c(%ebp),%ebx
 804d353:	7f 0b                	jg     804d360 <_vfprintf_r+0xe30>
 804d355:	eb 65                	jmp    804d3bc <_vfprintf_r+0xe8c>
 804d357:	90                   	nop
 804d358:	83 ee 10             	sub    $0x10,%esi
 804d35b:	83 fe 10             	cmp    $0x10,%esi
 804d35e:	7e 5c                	jle    804d3bc <_vfprintf_r+0xe8c>
 804d360:	83 c0 01             	add    $0x1,%eax
 804d363:	83 c1 10             	add    $0x10,%ecx
 804d366:	c7 07 bc 67 05 08    	movl   $0x80567bc,(%edi)
 804d36c:	83 c7 08             	add    $0x8,%edi
 804d36f:	c7 47 fc 10 00 00 00 	movl   $0x10,-0x4(%edi)
 804d376:	83 f8 07             	cmp    $0x7,%eax
 804d379:	89 8d 7c ff ff ff    	mov    %ecx,-0x84(%ebp)
 804d37f:	89 85 78 ff ff ff    	mov    %eax,-0x88(%ebp)
 804d385:	7e d1                	jle    804d358 <_vfprintf_r+0xe28>
 804d387:	8b 45 0c             	mov    0xc(%ebp),%eax
 804d38a:	89 5c 24 08          	mov    %ebx,0x8(%esp)
 804d38e:	89 44 24 04          	mov    %eax,0x4(%esp)
 804d392:	8b 45 08             	mov    0x8(%ebp),%eax
 804d395:	89 04 24             	mov    %eax,(%esp)
 804d398:	e8 f3 5d 00 00       	call   8053190 <__sprint_r>
 804d39d:	85 c0                	test   %eax,%eax
 804d39f:	0f 85 03 f4 ff ff    	jne    804c7a8 <_vfprintf_r+0x278>
 804d3a5:	83 ee 10             	sub    $0x10,%esi
 804d3a8:	8b 8d 7c ff ff ff    	mov    -0x84(%ebp),%ecx
 804d3ae:	83 fe 10             	cmp    $0x10,%esi
 804d3b1:	8b 85 78 ff ff ff    	mov    -0x88(%ebp),%eax
 804d3b7:	8d 7d a8             	lea    -0x58(%ebp),%edi
 804d3ba:	7f a4                	jg     804d360 <_vfprintf_r+0xe30>
 804d3bc:	83 c0 01             	add    $0x1,%eax
 804d3bf:	01 f1                	add    %esi,%ecx
 804d3c1:	c7 07 bc 67 05 08    	movl   $0x80567bc,(%edi)
 804d3c7:	83 c7 08             	add    $0x8,%edi
 804d3ca:	89 77 fc             	mov    %esi,-0x4(%edi)
 804d3cd:	83 f8 07             	cmp    $0x7,%eax
 804d3d0:	89 8d 7c ff ff ff    	mov    %ecx,-0x84(%ebp)
 804d3d6:	89 85 78 ff ff ff    	mov    %eax,-0x88(%ebp)
 804d3dc:	0f 8e 88 fb ff ff    	jle    804cf6a <_vfprintf_r+0xa3a>
 804d3e2:	8d 85 74 ff ff ff    	lea    -0x8c(%ebp),%eax
 804d3e8:	89 44 24 08          	mov    %eax,0x8(%esp)
 804d3ec:	8b 45 0c             	mov    0xc(%ebp),%eax
 804d3ef:	89 44 24 04          	mov    %eax,0x4(%esp)
 804d3f3:	8b 45 08             	mov    0x8(%ebp),%eax
 804d3f6:	89 04 24             	mov    %eax,(%esp)
 804d3f9:	e8 92 5d 00 00       	call   8053190 <__sprint_r>
 804d3fe:	85 c0                	test   %eax,%eax
 804d400:	0f 85 a2 f3 ff ff    	jne    804c7a8 <_vfprintf_r+0x278>
 804d406:	8b 8d 7c ff ff ff    	mov    -0x84(%ebp),%ecx
 804d40c:	8d 7d a8             	lea    -0x58(%ebp),%edi
 804d40f:	e9 56 fb ff ff       	jmp    804cf6a <_vfprintf_r+0xa3a>
 804d414:	8d 74 26 00          	lea    0x0(%esi,%eiz,1),%esi
 804d418:	83 bd 1c ff ff ff 01 	cmpl   $0x1,-0xe4(%ebp)
 804d41f:	8b 85 2c ff ff ff    	mov    -0xd4(%ebp),%eax
 804d425:	0f 8e b7 05 00 00    	jle    804d9e2 <_vfprintf_r+0x14b2>
 804d42b:	89 07                	mov    %eax,(%edi)
 804d42d:	8b 85 78 ff ff ff    	mov    -0x88(%ebp),%eax
 804d433:	8d 51 01             	lea    0x1(%ecx),%edx
 804d436:	c7 47 04 01 00 00 00 	movl   $0x1,0x4(%edi)
 804d43d:	83 c7 08             	add    $0x8,%edi
 804d440:	89 95 7c ff ff ff    	mov    %edx,-0x84(%ebp)
 804d446:	83 c0 01             	add    $0x1,%eax
 804d449:	83 f8 07             	cmp    $0x7,%eax
 804d44c:	89 85 78 ff ff ff    	mov    %eax,-0x88(%ebp)
 804d452:	0f 8f f9 05 00 00    	jg     804da51 <_vfprintf_r+0x1521>
 804d458:	8b 9d 18 ff ff ff    	mov    -0xe8(%ebp),%ebx
 804d45e:	83 c0 01             	add    $0x1,%eax
 804d461:	83 c7 08             	add    $0x8,%edi
 804d464:	89 85 78 ff ff ff    	mov    %eax,-0x88(%ebp)
 804d46a:	89 5f f8             	mov    %ebx,-0x8(%edi)
 804d46d:	8b 9d 0c ff ff ff    	mov    -0xf4(%ebp),%ebx
 804d473:	89 5f fc             	mov    %ebx,-0x4(%edi)
 804d476:	01 da                	add    %ebx,%edx
 804d478:	83 f8 07             	cmp    $0x7,%eax
 804d47b:	89 95 7c ff ff ff    	mov    %edx,-0x84(%ebp)
 804d481:	0f 8f 12 06 00 00    	jg     804da99 <_vfprintf_r+0x1569>
 804d487:	d9 ee                	fldz   
 804d489:	dd 85 10 ff ff ff    	fldl   -0xf0(%ebp)
 804d48f:	df e9                	fucomip %st(1),%st
 804d491:	dd d8                	fstp   %st(0)
 804d493:	7a 06                	jp     804d49b <_vfprintf_r+0xf6b>
 804d495:	0f 84 33 03 00 00    	je     804d7ce <_vfprintf_r+0x129e>
 804d49b:	8b 8d 2c ff ff ff    	mov    -0xd4(%ebp),%ecx
 804d4a1:	8b 9d 1c ff ff ff    	mov    -0xe4(%ebp),%ebx
 804d4a7:	83 c1 01             	add    $0x1,%ecx
 804d4aa:	89 0f                	mov    %ecx,(%edi)
 804d4ac:	8d 4b ff             	lea    -0x1(%ebx),%ecx
 804d4af:	89 4f 04             	mov    %ecx,0x4(%edi)
 804d4b2:	01 ca                	add    %ecx,%edx
 804d4b4:	83 c0 01             	add    $0x1,%eax
 804d4b7:	83 f8 07             	cmp    $0x7,%eax
 804d4ba:	89 95 7c ff ff ff    	mov    %edx,-0x84(%ebp)
 804d4c0:	89 85 78 ff ff ff    	mov    %eax,-0x88(%ebp)
 804d4c6:	0f 8f 4d 05 00 00    	jg     804da19 <_vfprintf_r+0x14e9>
 804d4cc:	83 c7 08             	add    $0x8,%edi
 804d4cf:	8b 9d 04 ff ff ff    	mov    -0xfc(%ebp),%ebx
 804d4d5:	8d 8d 65 ff ff ff    	lea    -0x9b(%ebp),%ecx
 804d4db:	89 0f                	mov    %ecx,(%edi)
 804d4dd:	89 5f 04             	mov    %ebx,0x4(%edi)
 804d4e0:	8d 0c 1a             	lea    (%edx,%ebx,1),%ecx
 804d4e3:	83 c0 01             	add    $0x1,%eax
 804d4e6:	83 f8 07             	cmp    $0x7,%eax
 804d4e9:	89 8d 7c ff ff ff    	mov    %ecx,-0x84(%ebp)
 804d4ef:	89 85 78 ff ff ff    	mov    %eax,-0x88(%ebp)
 804d4f5:	0f 8e 96 fb ff ff    	jle    804d091 <_vfprintf_r+0xb61>
 804d4fb:	8d 85 74 ff ff ff    	lea    -0x8c(%ebp),%eax
 804d501:	89 44 24 08          	mov    %eax,0x8(%esp)
 804d505:	8b 45 0c             	mov    0xc(%ebp),%eax
 804d508:	89 44 24 04          	mov    %eax,0x4(%esp)
 804d50c:	8b 45 08             	mov    0x8(%ebp),%eax
 804d50f:	89 04 24             	mov    %eax,(%esp)
 804d512:	e8 79 5c 00 00       	call   8053190 <__sprint_r>
 804d517:	85 c0                	test   %eax,%eax
 804d519:	0f 85 89 f2 ff ff    	jne    804c7a8 <_vfprintf_r+0x278>
 804d51f:	8b 8d 7c ff ff ff    	mov    -0x84(%ebp),%ecx
 804d525:	8d 7d a8             	lea    -0x58(%ebp),%edi
 804d528:	e9 67 fb ff ff       	jmp    804d094 <_vfprintf_r+0xb64>
 804d52d:	8d 76 00             	lea    0x0(%esi),%esi
 804d530:	8d 85 74 ff ff ff    	lea    -0x8c(%ebp),%eax
 804d536:	89 44 24 08          	mov    %eax,0x8(%esp)
 804d53a:	8b 45 0c             	mov    0xc(%ebp),%eax
 804d53d:	89 44 24 04          	mov    %eax,0x4(%esp)
 804d541:	8b 45 08             	mov    0x8(%ebp),%eax
 804d544:	89 04 24             	mov    %eax,(%esp)
 804d547:	e8 44 5c 00 00       	call   8053190 <__sprint_r>
 804d54c:	85 c0                	test   %eax,%eax
 804d54e:	0f 84 43 fc ff ff    	je     804d197 <_vfprintf_r+0xc67>
 804d554:	e9 4f f2 ff ff       	jmp    804c7a8 <_vfprintf_r+0x278>
 804d559:	8d b4 26 00 00 00 00 	lea    0x0(%esi,%eiz,1),%esi
 804d560:	8d 85 74 ff ff ff    	lea    -0x8c(%ebp),%eax
 804d566:	89 44 24 08          	mov    %eax,0x8(%esp)
 804d56a:	8b 45 0c             	mov    0xc(%ebp),%eax
 804d56d:	89 44 24 04          	mov    %eax,0x4(%esp)
 804d571:	8b 45 08             	mov    0x8(%ebp),%eax
 804d574:	89 04 24             	mov    %eax,(%esp)
 804d577:	e8 14 5c 00 00       	call   8053190 <__sprint_r>
 804d57c:	85 c0                	test   %eax,%eax
 804d57e:	0f 85 24 f2 ff ff    	jne    804c7a8 <_vfprintf_r+0x278>
 804d584:	8b 8d 7c ff ff ff    	mov    -0x84(%ebp),%ecx
 804d58a:	8d 7d a8             	lea    -0x58(%ebp),%edi
 804d58d:	e9 8b f9 ff ff       	jmp    804cf1d <_vfprintf_r+0x9ed>
 804d592:	8d b6 00 00 00 00    	lea    0x0(%esi),%esi
 804d598:	8d 85 74 ff ff ff    	lea    -0x8c(%ebp),%eax
 804d59e:	89 44 24 08          	mov    %eax,0x8(%esp)
 804d5a2:	8b 45 0c             	mov    0xc(%ebp),%eax
 804d5a5:	89 44 24 04          	mov    %eax,0x4(%esp)
 804d5a9:	8b 45 08             	mov    0x8(%ebp),%eax
 804d5ac:	89 04 24             	mov    %eax,(%esp)
 804d5af:	e8 dc 5b 00 00       	call   8053190 <__sprint_r>
 804d5b4:	85 c0                	test   %eax,%eax
 804d5b6:	0f 85 ec f1 ff ff    	jne    804c7a8 <_vfprintf_r+0x278>
 804d5bc:	8b 8d 7c ff ff ff    	mov    -0x84(%ebp),%ecx
 804d5c2:	8d 7d a8             	lea    -0x58(%ebp),%edi
 804d5c5:	e9 90 f9 ff ff       	jmp    804cf5a <_vfprintf_r+0xa2a>
 804d5ca:	8d b6 00 00 00 00    	lea    0x0(%esi),%esi
 804d5d0:	89 c2                	mov    %eax,%edx
 804d5d2:	8d b6 00 00 00 00    	lea    0x0(%esi),%esi
 804d5d8:	89 c8                	mov    %ecx,%eax
 804d5da:	83 ea 01             	sub    $0x1,%edx
 804d5dd:	83 e0 07             	and    $0x7,%eax
 804d5e0:	c1 e9 03             	shr    $0x3,%ecx
 804d5e3:	83 c0 30             	add    $0x30,%eax
 804d5e6:	85 c9                	test   %ecx,%ecx
 804d5e8:	88 02                	mov    %al,(%edx)
 804d5ea:	75 ec                	jne    804d5d8 <_vfprintf_r+0x10a8>
 804d5ec:	f6 85 4c ff ff ff 01 	testb  $0x1,-0xb4(%ebp)
 804d5f3:	89 95 2c ff ff ff    	mov    %edx,-0xd4(%ebp)
 804d5f9:	0f 84 5b 01 00 00    	je     804d75a <_vfprintf_r+0x122a>
 804d5ff:	3c 30                	cmp    $0x30,%al
 804d601:	74 0b                	je     804d60e <_vfprintf_r+0x10de>
 804d603:	83 ad 2c ff ff ff 01 	subl   $0x1,-0xd4(%ebp)
 804d60a:	c6 42 ff 30          	movb   $0x30,-0x1(%edx)
 804d60e:	8d 45 a8             	lea    -0x58(%ebp),%eax
 804d611:	2b 85 2c ff ff ff    	sub    -0xd4(%ebp),%eax
 804d617:	89 85 38 ff ff ff    	mov    %eax,-0xc8(%ebp)
 804d61d:	e9 1e f4 ff ff       	jmp    804ca40 <_vfprintf_r+0x510>
 804d622:	8d b6 00 00 00 00    	lea    0x0(%esi),%esi
 804d628:	8b 9d 5c ff ff ff    	mov    -0xa4(%ebp),%ebx
 804d62e:	85 db                	test   %ebx,%ebx
 804d630:	0f 8e 9f 06 00 00    	jle    804dcd5 <_vfprintf_r+0x17a5>
 804d636:	8b 95 2c ff ff ff    	mov    -0xd4(%ebp),%edx
 804d63c:	8b 85 1c ff ff ff    	mov    -0xe4(%ebp),%eax
 804d642:	01 d0                	add    %edx,%eax
 804d644:	89 c3                	mov    %eax,%ebx
 804d646:	29 d3                	sub    %edx,%ebx
 804d648:	89 85 44 ff ff ff    	mov    %eax,-0xbc(%ebp)
 804d64e:	89 d0                	mov    %edx,%eax
 804d650:	8b 95 20 ff ff ff    	mov    -0xe0(%ebp),%edx
 804d656:	39 d3                	cmp    %edx,%ebx
 804d658:	0f 4f da             	cmovg  %edx,%ebx
 804d65b:	85 db                	test   %ebx,%ebx
 804d65d:	7e 28                	jle    804d687 <_vfprintf_r+0x1157>
 804d65f:	89 07                	mov    %eax,(%edi)
 804d661:	8b 85 78 ff ff ff    	mov    -0x88(%ebp),%eax
 804d667:	01 d9                	add    %ebx,%ecx
 804d669:	89 5f 04             	mov    %ebx,0x4(%edi)
 804d66c:	83 c7 08             	add    $0x8,%edi
 804d66f:	89 8d 7c ff ff ff    	mov    %ecx,-0x84(%ebp)
 804d675:	83 c0 01             	add    $0x1,%eax
 804d678:	83 f8 07             	cmp    $0x7,%eax
 804d67b:	89 85 78 ff ff ff    	mov    %eax,-0x88(%ebp)
 804d681:	0f 8f e2 08 00 00    	jg     804df69 <_vfprintf_r+0x1a39>
 804d687:	8b b5 20 ff ff ff    	mov    -0xe0(%ebp),%esi
 804d68d:	31 c0                	xor    %eax,%eax
 804d68f:	85 db                	test   %ebx,%ebx
 804d691:	0f 49 c3             	cmovns %ebx,%eax
 804d694:	29 c6                	sub    %eax,%esi
 804d696:	85 f6                	test   %esi,%esi
 804d698:	0f 8e 13 02 00 00    	jle    804d8b1 <_vfprintf_r+0x1381>
 804d69e:	83 fe 10             	cmp    $0x10,%esi
 804d6a1:	8b 85 78 ff ff ff    	mov    -0x88(%ebp),%eax
 804d6a7:	8d 9d 74 ff ff ff    	lea    -0x8c(%ebp),%ebx
 804d6ad:	7f 15                	jg     804d6c4 <_vfprintf_r+0x1194>
 804d6af:	e9 ae 01 00 00       	jmp    804d862 <_vfprintf_r+0x1332>
 804d6b4:	8d 74 26 00          	lea    0x0(%esi,%eiz,1),%esi
 804d6b8:	83 ee 10             	sub    $0x10,%esi
 804d6bb:	83 fe 10             	cmp    $0x10,%esi
 804d6be:	0f 8e 9e 01 00 00    	jle    804d862 <_vfprintf_r+0x1332>
 804d6c4:	83 c0 01             	add    $0x1,%eax
 804d6c7:	83 c1 10             	add    $0x10,%ecx
 804d6ca:	c7 07 bc 67 05 08    	movl   $0x80567bc,(%edi)
 804d6d0:	83 c7 08             	add    $0x8,%edi
 804d6d3:	c7 47 fc 10 00 00 00 	movl   $0x10,-0x4(%edi)
 804d6da:	83 f8 07             	cmp    $0x7,%eax
 804d6dd:	89 8d 7c ff ff ff    	mov    %ecx,-0x84(%ebp)
 804d6e3:	89 85 78 ff ff ff    	mov    %eax,-0x88(%ebp)
 804d6e9:	7e cd                	jle    804d6b8 <_vfprintf_r+0x1188>
 804d6eb:	8b 45 0c             	mov    0xc(%ebp),%eax
 804d6ee:	89 5c 24 08          	mov    %ebx,0x8(%esp)
 804d6f2:	89 44 24 04          	mov    %eax,0x4(%esp)
 804d6f6:	8b 45 08             	mov    0x8(%ebp),%eax
 804d6f9:	89 04 24             	mov    %eax,(%esp)
 804d6fc:	e8 8f 5a 00 00       	call   8053190 <__sprint_r>
 804d701:	85 c0                	test   %eax,%eax
 804d703:	0f 85 9f f0 ff ff    	jne    804c7a8 <_vfprintf_r+0x278>
 804d709:	8b 8d 7c ff ff ff    	mov    -0x84(%ebp),%ecx
 804d70f:	8d 7d a8             	lea    -0x58(%ebp),%edi
 804d712:	8b 85 78 ff ff ff    	mov    -0x88(%ebp),%eax
 804d718:	eb 9e                	jmp    804d6b8 <_vfprintf_r+0x1188>
 804d71a:	8d 45 a8             	lea    -0x58(%ebp),%eax
 804d71d:	be cd cc cc cc       	mov    $0xcccccccd,%esi
 804d722:	89 bd 48 ff ff ff    	mov    %edi,-0xb8(%ebp)
 804d728:	89 c7                	mov    %eax,%edi
 804d72a:	8d b6 00 00 00 00    	lea    0x0(%esi),%esi
 804d730:	89 c8                	mov    %ecx,%eax
 804d732:	83 ef 01             	sub    $0x1,%edi
 804d735:	f7 e6                	mul    %esi
 804d737:	c1 ea 03             	shr    $0x3,%edx
 804d73a:	8d 04 92             	lea    (%edx,%edx,4),%eax
 804d73d:	01 c0                	add    %eax,%eax
 804d73f:	29 c1                	sub    %eax,%ecx
 804d741:	83 c1 30             	add    $0x30,%ecx
 804d744:	85 d2                	test   %edx,%edx
 804d746:	88 0f                	mov    %cl,(%edi)
 804d748:	89 d1                	mov    %edx,%ecx
 804d74a:	75 e4                	jne    804d730 <_vfprintf_r+0x1200>
 804d74c:	89 fa                	mov    %edi,%edx
 804d74e:	89 bd 2c ff ff ff    	mov    %edi,-0xd4(%ebp)
 804d754:	8b bd 48 ff ff ff    	mov    -0xb8(%ebp),%edi
 804d75a:	8d 45 a8             	lea    -0x58(%ebp),%eax
 804d75d:	29 d0                	sub    %edx,%eax
 804d75f:	89 85 38 ff ff ff    	mov    %eax,-0xc8(%ebp)
 804d765:	e9 d6 f2 ff ff       	jmp    804ca40 <_vfprintf_r+0x510>
 804d76a:	8d b6 00 00 00 00    	lea    0x0(%esi),%esi
 804d770:	83 f9 09             	cmp    $0x9,%ecx
 804d773:	77 a5                	ja     804d71a <_vfprintf_r+0x11ea>
 804d775:	8b 85 00 ff ff ff    	mov    -0x100(%ebp),%eax
 804d77b:	83 c1 30             	add    $0x30,%ecx
 804d77e:	88 4d a7             	mov    %cl,-0x59(%ebp)
 804d781:	89 85 38 ff ff ff    	mov    %eax,-0xc8(%ebp)
 804d787:	8d 45 a7             	lea    -0x59(%ebp),%eax
 804d78a:	89 85 2c ff ff ff    	mov    %eax,-0xd4(%ebp)
 804d790:	e9 ab f2 ff ff       	jmp    804ca40 <_vfprintf_r+0x510>
 804d795:	8d 85 74 ff ff ff    	lea    -0x8c(%ebp),%eax
 804d79b:	89 44 24 08          	mov    %eax,0x8(%esp)
 804d79f:	8b 45 0c             	mov    0xc(%ebp),%eax
 804d7a2:	89 44 24 04          	mov    %eax,0x4(%esp)
 804d7a6:	8b 45 08             	mov    0x8(%ebp),%eax
 804d7a9:	89 04 24             	mov    %eax,(%esp)
 804d7ac:	e8 df 59 00 00       	call   8053190 <__sprint_r>
 804d7b1:	85 c0                	test   %eax,%eax
 804d7b3:	0f 85 ef ef ff ff    	jne    804c7a8 <_vfprintf_r+0x278>
 804d7b9:	0f b6 9d 59 ff ff ff 	movzbl -0xa7(%ebp),%ebx
 804d7c0:	8d 7d a8             	lea    -0x58(%ebp),%edi
 804d7c3:	8b 8d 7c ff ff ff    	mov    -0x84(%ebp),%ecx
 804d7c9:	e9 18 f7 ff ff       	jmp    804cee6 <_vfprintf_r+0x9b6>
 804d7ce:	8b 9d 1c ff ff ff    	mov    -0xe4(%ebp),%ebx
 804d7d4:	8d 73 ff             	lea    -0x1(%ebx),%esi
 804d7d7:	85 f6                	test   %esi,%esi
 804d7d9:	0f 8e f0 fc ff ff    	jle    804d4cf <_vfprintf_r+0xf9f>
 804d7df:	83 fe 10             	cmp    $0x10,%esi
 804d7e2:	0f 8e a1 02 00 00    	jle    804da89 <_vfprintf_r+0x1559>
 804d7e8:	8d 9d 74 ff ff ff    	lea    -0x8c(%ebp),%ebx
 804d7ee:	eb 0c                	jmp    804d7fc <_vfprintf_r+0x12cc>
 804d7f0:	83 ee 10             	sub    $0x10,%esi
 804d7f3:	83 fe 10             	cmp    $0x10,%esi
 804d7f6:	0f 8e 8d 02 00 00    	jle    804da89 <_vfprintf_r+0x1559>
 804d7fc:	83 c0 01             	add    $0x1,%eax
 804d7ff:	83 c2 10             	add    $0x10,%edx
 804d802:	c7 07 bc 67 05 08    	movl   $0x80567bc,(%edi)
 804d808:	83 c7 08             	add    $0x8,%edi
 804d80b:	c7 47 fc 10 00 00 00 	movl   $0x10,-0x4(%edi)
 804d812:	83 f8 07             	cmp    $0x7,%eax
 804d815:	89 95 7c ff ff ff    	mov    %edx,-0x84(%ebp)
 804d81b:	89 85 78 ff ff ff    	mov    %eax,-0x88(%ebp)
 804d821:	7e cd                	jle    804d7f0 <_vfprintf_r+0x12c0>
 804d823:	8b 45 0c             	mov    0xc(%ebp),%eax
 804d826:	89 5c 24 08          	mov    %ebx,0x8(%esp)
 804d82a:	89 44 24 04          	mov    %eax,0x4(%esp)
 804d82e:	8b 45 08             	mov    0x8(%ebp),%eax
 804d831:	89 04 24             	mov    %eax,(%esp)
 804d834:	e8 57 59 00 00       	call   8053190 <__sprint_r>
 804d839:	85 c0                	test   %eax,%eax
 804d83b:	0f 85 67 ef ff ff    	jne    804c7a8 <_vfprintf_r+0x278>
 804d841:	8b 95 7c ff ff ff    	mov    -0x84(%ebp),%edx
 804d847:	8d 7d a8             	lea    -0x58(%ebp),%edi
 804d84a:	8b 85 78 ff ff ff    	mov    -0x88(%ebp),%eax
 804d850:	eb 9e                	jmp    804d7f0 <_vfprintf_r+0x12c0>
 804d852:	c7 07 bc 67 05 08    	movl   $0x80567bc,(%edi)
 804d858:	01 f1                	add    %esi,%ecx
 804d85a:	89 77 04             	mov    %esi,0x4(%edi)
 804d85d:	e9 81 fc ff ff       	jmp    804d4e3 <_vfprintf_r+0xfb3>
 804d862:	83 c0 01             	add    $0x1,%eax
 804d865:	01 f1                	add    %esi,%ecx
 804d867:	c7 07 bc 67 05 08    	movl   $0x80567bc,(%edi)
 804d86d:	83 c7 08             	add    $0x8,%edi
 804d870:	89 77 fc             	mov    %esi,-0x4(%edi)
 804d873:	83 f8 07             	cmp    $0x7,%eax
 804d876:	89 8d 7c ff ff ff    	mov    %ecx,-0x84(%ebp)
 804d87c:	89 85 78 ff ff ff    	mov    %eax,-0x88(%ebp)
 804d882:	7e 2d                	jle    804d8b1 <_vfprintf_r+0x1381>
 804d884:	8d 85 74 ff ff ff    	lea    -0x8c(%ebp),%eax
 804d88a:	89 44 24 08          	mov    %eax,0x8(%esp)
 804d88e:	8b 45 0c             	mov    0xc(%ebp),%eax
 804d891:	89 44 24 04          	mov    %eax,0x4(%esp)
 804d895:	8b 45 08             	mov    0x8(%ebp),%eax
 804d898:	89 04 24             	mov    %eax,(%esp)
 804d89b:	e8 f0 58 00 00       	call   8053190 <__sprint_r>
 804d8a0:	85 c0                	test   %eax,%eax
 804d8a2:	0f 85 00 ef ff ff    	jne    804c7a8 <_vfprintf_r+0x278>
 804d8a8:	8b 8d 7c ff ff ff    	mov    -0x84(%ebp),%ecx
 804d8ae:	8d 7d a8             	lea    -0x58(%ebp),%edi
 804d8b1:	8b 85 2c ff ff ff    	mov    -0xd4(%ebp),%eax
 804d8b7:	8b 95 5c ff ff ff    	mov    -0xa4(%ebp),%edx
 804d8bd:	03 85 20 ff ff ff    	add    -0xe0(%ebp),%eax
 804d8c3:	3b 95 1c ff ff ff    	cmp    -0xe4(%ebp),%edx
 804d8c9:	89 c6                	mov    %eax,%esi
 804d8cb:	7c 0d                	jl     804d8da <_vfprintf_r+0x13aa>
 804d8cd:	f6 85 4c ff ff ff 01 	testb  $0x1,-0xb4(%ebp)
 804d8d4:	0f 84 61 05 00 00    	je     804de3b <_vfprintf_r+0x190b>
 804d8da:	8b 85 18 ff ff ff    	mov    -0xe8(%ebp),%eax
 804d8e0:	89 07                	mov    %eax,(%edi)
 804d8e2:	8b 85 0c ff ff ff    	mov    -0xf4(%ebp),%eax
 804d8e8:	01 c1                	add    %eax,%ecx
 804d8ea:	89 47 04             	mov    %eax,0x4(%edi)
 804d8ed:	8b 85 78 ff ff ff    	mov    -0x88(%ebp),%eax
 804d8f3:	89 8d 7c ff ff ff    	mov    %ecx,-0x84(%ebp)
 804d8f9:	83 c0 01             	add    $0x1,%eax
 804d8fc:	83 f8 07             	cmp    $0x7,%eax
 804d8ff:	89 85 78 ff ff ff    	mov    %eax,-0x88(%ebp)
 804d905:	0f 8f 90 06 00 00    	jg     804df9b <_vfprintf_r+0x1a6b>
 804d90b:	83 c7 08             	add    $0x8,%edi
 804d90e:	89 d0                	mov    %edx,%eax
 804d910:	8b 9d 44 ff ff ff    	mov    -0xbc(%ebp),%ebx
 804d916:	89 f2                	mov    %esi,%edx
 804d918:	29 f3                	sub    %esi,%ebx
 804d91a:	8b b5 1c ff ff ff    	mov    -0xe4(%ebp),%esi
 804d920:	29 c6                	sub    %eax,%esi
 804d922:	39 de                	cmp    %ebx,%esi
 804d924:	0f 4e de             	cmovle %esi,%ebx
 804d927:	85 db                	test   %ebx,%ebx
 804d929:	7e 29                	jle    804d954 <_vfprintf_r+0x1424>
 804d92b:	8b 85 78 ff ff ff    	mov    -0x88(%ebp),%eax
 804d931:	01 d9                	add    %ebx,%ecx
 804d933:	83 c7 08             	add    $0x8,%edi
 804d936:	89 57 f8             	mov    %edx,-0x8(%edi)
 804d939:	89 5f fc             	mov    %ebx,-0x4(%edi)
 804d93c:	89 8d 7c ff ff ff    	mov    %ecx,-0x84(%ebp)
 804d942:	83 c0 01             	add    $0x1,%eax
 804d945:	83 f8 07             	cmp    $0x7,%eax
 804d948:	89 85 78 ff ff ff    	mov    %eax,-0x88(%ebp)
 804d94e:	0f 8f 7f 06 00 00    	jg     804dfd3 <_vfprintf_r+0x1aa3>
 804d954:	31 c0                	xor    %eax,%eax
 804d956:	85 db                	test   %ebx,%ebx
 804d958:	0f 49 c3             	cmovns %ebx,%eax
 804d95b:	29 c6                	sub    %eax,%esi
 804d95d:	85 f6                	test   %esi,%esi
 804d95f:	0f 8e 2f f7 ff ff    	jle    804d094 <_vfprintf_r+0xb64>
 804d965:	83 fe 10             	cmp    $0x10,%esi
 804d968:	8b 85 78 ff ff ff    	mov    -0x88(%ebp),%eax
 804d96e:	8d 9d 74 ff ff ff    	lea    -0x8c(%ebp),%ebx
 804d974:	7f 16                	jg     804d98c <_vfprintf_r+0x145c>
 804d976:	e9 d7 fe ff ff       	jmp    804d852 <_vfprintf_r+0x1322>
 804d97b:	90                   	nop
 804d97c:	8d 74 26 00          	lea    0x0(%esi,%eiz,1),%esi
 804d980:	83 ee 10             	sub    $0x10,%esi
 804d983:	83 fe 10             	cmp    $0x10,%esi
 804d986:	0f 8e c6 fe ff ff    	jle    804d852 <_vfprintf_r+0x1322>
 804d98c:	83 c0 01             	add    $0x1,%eax
 804d98f:	83 c1 10             	add    $0x10,%ecx
 804d992:	c7 07 bc 67 05 08    	movl   $0x80567bc,(%edi)
 804d998:	83 c7 08             	add    $0x8,%edi
 804d99b:	c7 47 fc 10 00 00 00 	movl   $0x10,-0x4(%edi)
 804d9a2:	83 f8 07             	cmp    $0x7,%eax
 804d9a5:	89 8d 7c ff ff ff    	mov    %ecx,-0x84(%ebp)
 804d9ab:	89 85 78 ff ff ff    	mov    %eax,-0x88(%ebp)
 804d9b1:	7e cd                	jle    804d980 <_vfprintf_r+0x1450>
 804d9b3:	8b 45 0c             	mov    0xc(%ebp),%eax
 804d9b6:	89 5c 24 08          	mov    %ebx,0x8(%esp)
 804d9ba:	89 44 24 04          	mov    %eax,0x4(%esp)
 804d9be:	8b 45 08             	mov    0x8(%ebp),%eax
 804d9c1:	89 04 24             	mov    %eax,(%esp)
 804d9c4:	e8 c7 57 00 00       	call   8053190 <__sprint_r>
 804d9c9:	85 c0                	test   %eax,%eax
 804d9cb:	0f 85 d7 ed ff ff    	jne    804c7a8 <_vfprintf_r+0x278>
 804d9d1:	8b 8d 7c ff ff ff    	mov    -0x84(%ebp),%ecx
 804d9d7:	8d 7d a8             	lea    -0x58(%ebp),%edi
 804d9da:	8b 85 78 ff ff ff    	mov    -0x88(%ebp),%eax
 804d9e0:	eb 9e                	jmp    804d980 <_vfprintf_r+0x1450>
 804d9e2:	f6 85 4c ff ff ff 01 	testb  $0x1,-0xb4(%ebp)
 804d9e9:	0f 85 3c fa ff ff    	jne    804d42b <_vfprintf_r+0xefb>
 804d9ef:	89 07                	mov    %eax,(%edi)
 804d9f1:	8b 85 78 ff ff ff    	mov    -0x88(%ebp),%eax
 804d9f7:	8d 51 01             	lea    0x1(%ecx),%edx
 804d9fa:	c7 47 04 01 00 00 00 	movl   $0x1,0x4(%edi)
 804da01:	89 95 7c ff ff ff    	mov    %edx,-0x84(%ebp)
 804da07:	83 c0 01             	add    $0x1,%eax
 804da0a:	83 f8 07             	cmp    $0x7,%eax
 804da0d:	89 85 78 ff ff ff    	mov    %eax,-0x88(%ebp)
 804da13:	0f 8e b3 fa ff ff    	jle    804d4cc <_vfprintf_r+0xf9c>
 804da19:	8d 85 74 ff ff ff    	lea    -0x8c(%ebp),%eax
 804da1f:	89 44 24 08          	mov    %eax,0x8(%esp)
 804da23:	8b 45 0c             	mov    0xc(%ebp),%eax
 804da26:	89 44 24 04          	mov    %eax,0x4(%esp)
 804da2a:	8b 45 08             	mov    0x8(%ebp),%eax
 804da2d:	89 04 24             	mov    %eax,(%esp)
 804da30:	e8 5b 57 00 00       	call   8053190 <__sprint_r>
 804da35:	85 c0                	test   %eax,%eax
 804da37:	0f 85 6b ed ff ff    	jne    804c7a8 <_vfprintf_r+0x278>
 804da3d:	8b 95 7c ff ff ff    	mov    -0x84(%ebp),%edx
 804da43:	8d 7d a8             	lea    -0x58(%ebp),%edi
 804da46:	8b 85 78 ff ff ff    	mov    -0x88(%ebp),%eax
 804da4c:	e9 7e fa ff ff       	jmp    804d4cf <_vfprintf_r+0xf9f>
 804da51:	8d 85 74 ff ff ff    	lea    -0x8c(%ebp),%eax
 804da57:	89 44 24 08          	mov    %eax,0x8(%esp)
 804da5b:	8b 45 0c             	mov    0xc(%ebp),%eax
 804da5e:	89 44 24 04          	mov    %eax,0x4(%esp)
 804da62:	8b 45 08             	mov    0x8(%ebp),%eax
 804da65:	89 04 24             	mov    %eax,(%esp)
 804da68:	e8 23 57 00 00       	call   8053190 <__sprint_r>
 804da6d:	85 c0                	test   %eax,%eax
 804da6f:	0f 85 33 ed ff ff    	jne    804c7a8 <_vfprintf_r+0x278>
 804da75:	8b 95 7c ff ff ff    	mov    -0x84(%ebp),%edx
 804da7b:	8d 7d a8             	lea    -0x58(%ebp),%edi
 804da7e:	8b 85 78 ff ff ff    	mov    -0x88(%ebp),%eax
 804da84:	e9 cf f9 ff ff       	jmp    804d458 <_vfprintf_r+0xf28>
 804da89:	c7 07 bc 67 05 08    	movl   $0x80567bc,(%edi)
 804da8f:	01 f2                	add    %esi,%edx
 804da91:	89 77 04             	mov    %esi,0x4(%edi)
 804da94:	e9 1b fa ff ff       	jmp    804d4b4 <_vfprintf_r+0xf84>
 804da99:	8d 85 74 ff ff ff    	lea    -0x8c(%ebp),%eax
 804da9f:	89 44 24 08          	mov    %eax,0x8(%esp)
 804daa3:	8b 45 0c             	mov    0xc(%ebp),%eax
 804daa6:	89 44 24 04          	mov    %eax,0x4(%esp)
 804daaa:	8b 45 08             	mov    0x8(%ebp),%eax
 804daad:	89 04 24             	mov    %eax,(%esp)
 804dab0:	e8 db 56 00 00       	call   8053190 <__sprint_r>
 804dab5:	85 c0                	test   %eax,%eax
 804dab7:	0f 85 eb ec ff ff    	jne    804c7a8 <_vfprintf_r+0x278>
 804dabd:	8b 95 7c ff ff ff    	mov    -0x84(%ebp),%edx
 804dac3:	8d 7d a8             	lea    -0x58(%ebp),%edi
 804dac6:	8b 85 78 ff ff ff    	mov    -0x88(%ebp),%eax
 804dacc:	e9 b6 f9 ff ff       	jmp    804d487 <_vfprintf_r+0xf57>
 804dad1:	f7 d9                	neg    %ecx
 804dad3:	bb 2d 00 00 00       	mov    $0x2d,%ebx
 804dad8:	c6 85 59 ff ff ff 2d 	movb   $0x2d,-0xa7(%ebp)
 804dadf:	b8 01 00 00 00       	mov    $0x1,%eax
 804dae4:	e9 e8 ee ff ff       	jmp    804c9d1 <_vfprintf_r+0x4a1>
 804dae9:	dd 85 10 ff ff ff    	fldl   -0xf0(%ebp)
 804daef:	dd 1c 24             	fstpl  (%esp)
 804daf2:	e8 89 43 00 00       	call   8051e80 <__fpclassifyd>
 804daf7:	85 c0                	test   %eax,%eax
 804daf9:	0f 84 e4 02 00 00    	je     804dde3 <_vfprintf_r+0x18b3>
 804daff:	8b 9d 24 ff ff ff    	mov    -0xdc(%ebp),%ebx
 804db05:	83 e3 df             	and    $0xffffffdf,%ebx
 804db08:	83 bd 44 ff ff ff ff 	cmpl   $0xffffffff,-0xbc(%ebp)
 804db0f:	0f 84 b1 07 00 00    	je     804e2c6 <_vfprintf_r+0x1d96>
 804db15:	83 fb 47             	cmp    $0x47,%ebx
 804db18:	75 16                	jne    804db30 <_vfprintf_r+0x1600>
 804db1a:	8b 95 44 ff ff ff    	mov    -0xbc(%ebp),%edx
 804db20:	b8 01 00 00 00       	mov    $0x1,%eax
 804db25:	85 d2                	test   %edx,%edx
 804db27:	0f 45 c2             	cmovne %edx,%eax
 804db2a:	89 85 44 ff ff ff    	mov    %eax,-0xbc(%ebp)
 804db30:	8b 85 4c ff ff ff    	mov    -0xb4(%ebp),%eax
 804db36:	dd 85 10 ff ff ff    	fldl   -0xf0(%ebp)
 804db3c:	dd 95 38 ff ff ff    	fstl   -0xc8(%ebp)
 804db42:	80 cc 01             	or     $0x1,%ah
 804db45:	89 85 34 ff ff ff    	mov    %eax,-0xcc(%ebp)
 804db4b:	8b 85 3c ff ff ff    	mov    -0xc4(%ebp),%eax
 804db51:	c6 85 48 ff ff ff 00 	movb   $0x0,-0xb8(%ebp)
 804db58:	85 c0                	test   %eax,%eax
 804db5a:	0f 88 58 07 00 00    	js     804e2b8 <_vfprintf_r+0x1d88>
 804db60:	83 fb 46             	cmp    $0x46,%ebx
 804db63:	0f 94 c0             	sete   %al
 804db66:	89 c6                	mov    %eax,%esi
 804db68:	0f 84 f0 04 00 00    	je     804e05e <_vfprintf_r+0x1b2e>
 804db6e:	83 fb 45             	cmp    $0x45,%ebx
 804db71:	0f 85 37 07 00 00    	jne    804e2ae <_vfprintf_r+0x1d7e>
 804db77:	8b 85 44 ff ff ff    	mov    -0xbc(%ebp),%eax
 804db7d:	dd 54 24 04          	fstl   0x4(%esp)
 804db81:	c7 44 24 0c 02 00 00 	movl   $0x2,0xc(%esp)
 804db88:	00 
 804db89:	dd 9d 38 ff ff ff    	fstpl  -0xc8(%ebp)
 804db8f:	8d 70 01             	lea    0x1(%eax),%esi
 804db92:	8d 85 6c ff ff ff    	lea    -0x94(%ebp),%eax
 804db98:	89 44 24 1c          	mov    %eax,0x1c(%esp)
 804db9c:	8d 85 60 ff ff ff    	lea    -0xa0(%ebp),%eax
 804dba2:	89 44 24 18          	mov    %eax,0x18(%esp)
 804dba6:	8d 85 5c ff ff ff    	lea    -0xa4(%ebp),%eax
 804dbac:	89 44 24 14          	mov    %eax,0x14(%esp)
 804dbb0:	8b 45 08             	mov    0x8(%ebp),%eax
 804dbb3:	89 74 24 10          	mov    %esi,0x10(%esp)
 804dbb7:	89 04 24             	mov    %eax,(%esp)
 804dbba:	e8 f1 0c 00 00       	call   804e8b0 <_dtoa_r>
 804dbbf:	89 85 2c ff ff ff    	mov    %eax,-0xd4(%ebp)
 804dbc5:	8d 0c 30             	lea    (%eax,%esi,1),%ecx
 804dbc8:	dd 85 38 ff ff ff    	fldl   -0xc8(%ebp)
 804dbce:	d9 ee                	fldz   
 804dbd0:	d9 c9                	fxch   %st(1)
 804dbd2:	df e9                	fucomip %st(1),%st
 804dbd4:	dd d8                	fstp   %st(0)
 804dbd6:	0f 8a f8 01 00 00    	jp     804ddd4 <_vfprintf_r+0x18a4>
 804dbdc:	89 c8                	mov    %ecx,%eax
 804dbde:	0f 85 f0 01 00 00    	jne    804ddd4 <_vfprintf_r+0x18a4>
 804dbe4:	2b 85 2c ff ff ff    	sub    -0xd4(%ebp),%eax
 804dbea:	83 fb 47             	cmp    $0x47,%ebx
 804dbed:	89 85 1c ff ff ff    	mov    %eax,-0xe4(%ebp)
 804dbf3:	0f 84 4b 05 00 00    	je     804e144 <_vfprintf_r+0x1c14>
 804dbf9:	83 bd 24 ff ff ff 65 	cmpl   $0x65,-0xdc(%ebp)
 804dc00:	8b 85 5c ff ff ff    	mov    -0xa4(%ebp),%eax
 804dc06:	0f 8e 92 05 00 00    	jle    804e19e <_vfprintf_r+0x1c6e>
 804dc0c:	83 bd 24 ff ff ff 66 	cmpl   $0x66,-0xdc(%ebp)
 804dc13:	89 85 20 ff ff ff    	mov    %eax,-0xe0(%ebp)
 804dc19:	0f 84 b6 06 00 00    	je     804e2d5 <_vfprintf_r+0x1da5>
 804dc1f:	8b 85 20 ff ff ff    	mov    -0xe0(%ebp),%eax
 804dc25:	39 85 1c ff ff ff    	cmp    %eax,-0xe4(%ebp)
 804dc2b:	0f 8f 4a 06 00 00    	jg     804e27b <_vfprintf_r+0x1d4b>
 804dc31:	8b 85 4c ff ff ff    	mov    -0xb4(%ebp),%eax
 804dc37:	83 e0 01             	and    $0x1,%eax
 804dc3a:	0f 85 79 07 00 00    	jne    804e3b9 <_vfprintf_r+0x1e89>
 804dc40:	8b 95 20 ff ff ff    	mov    -0xe0(%ebp),%edx
 804dc46:	c7 85 24 ff ff ff 67 	movl   $0x67,-0xdc(%ebp)
 804dc4d:	00 00 00 
 804dc50:	85 d2                	test   %edx,%edx
 804dc52:	0f 49 c2             	cmovns %edx,%eax
 804dc55:	89 95 38 ff ff ff    	mov    %edx,-0xc8(%ebp)
 804dc5b:	80 bd 48 ff ff ff 00 	cmpb   $0x0,-0xb8(%ebp)
 804dc62:	0f 85 95 04 00 00    	jne    804e0fd <_vfprintf_r+0x1bcd>
 804dc68:	89 85 48 ff ff ff    	mov    %eax,-0xb8(%ebp)
 804dc6e:	8b 85 34 ff ff ff    	mov    -0xcc(%ebp),%eax
 804dc74:	0f b6 9d 59 ff ff ff 	movzbl -0xa7(%ebp),%ebx
 804dc7b:	c7 85 44 ff ff ff 00 	movl   $0x0,-0xbc(%ebp)
 804dc82:	00 00 00 
 804dc85:	89 85 4c ff ff ff    	mov    %eax,-0xb4(%ebp)
 804dc8b:	e9 f0 eb ff ff       	jmp    804c880 <_vfprintf_r+0x350>
 804dc90:	dd 00                	fldl   (%eax)
 804dc92:	83 c0 08             	add    $0x8,%eax
 804dc95:	dd 9d 10 ff ff ff    	fstpl  -0xf0(%ebp)
 804dc9b:	89 45 14             	mov    %eax,0x14(%ebp)
 804dc9e:	e9 d1 ef ff ff       	jmp    804cc74 <_vfprintf_r+0x744>
 804dca3:	8d 85 74 ff ff ff    	lea    -0x8c(%ebp),%eax
 804dca9:	89 44 24 08          	mov    %eax,0x8(%esp)
 804dcad:	8b 45 0c             	mov    0xc(%ebp),%eax
 804dcb0:	89 44 24 04          	mov    %eax,0x4(%esp)
 804dcb4:	8b 45 08             	mov    0x8(%ebp),%eax
 804dcb7:	89 04 24             	mov    %eax,(%esp)
 804dcba:	e8 d1 54 00 00       	call   8053190 <__sprint_r>
 804dcbf:	85 c0                	test   %eax,%eax
 804dcc1:	0f 85 e1 ea ff ff    	jne    804c7a8 <_vfprintf_r+0x278>
 804dcc7:	8b 8d 7c ff ff ff    	mov    -0x84(%ebp),%ecx
 804dccd:	8d 7d a8             	lea    -0x58(%ebp),%edi
 804dcd0:	e9 32 f5 ff ff       	jmp    804d207 <_vfprintf_r+0xcd7>
 804dcd5:	8b 85 78 ff ff ff    	mov    -0x88(%ebp),%eax
 804dcdb:	83 c1 01             	add    $0x1,%ecx
 804dcde:	83 c7 08             	add    $0x8,%edi
 804dce1:	c7 47 f8 d1 64 05 08 	movl   $0x80564d1,-0x8(%edi)
 804dce8:	c7 47 fc 01 00 00 00 	movl   $0x1,-0x4(%edi)
 804dcef:	89 8d 7c ff ff ff    	mov    %ecx,-0x84(%ebp)
 804dcf5:	83 c0 01             	add    $0x1,%eax
 804dcf8:	83 f8 07             	cmp    $0x7,%eax
 804dcfb:	89 85 78 ff ff ff    	mov    %eax,-0x88(%ebp)
 804dd01:	0f 8f 5b 01 00 00    	jg     804de62 <_vfprintf_r+0x1932>
 804dd07:	85 db                	test   %ebx,%ebx
 804dd09:	0f 84 33 01 00 00    	je     804de42 <_vfprintf_r+0x1912>
 804dd0f:	8b 85 18 ff ff ff    	mov    -0xe8(%ebp),%eax
 804dd15:	83 c7 08             	add    $0x8,%edi
 804dd18:	89 47 f8             	mov    %eax,-0x8(%edi)
 804dd1b:	8b 85 0c ff ff ff    	mov    -0xf4(%ebp),%eax
 804dd21:	89 47 fc             	mov    %eax,-0x4(%edi)
 804dd24:	8d 14 01             	lea    (%ecx,%eax,1),%edx
 804dd27:	8b 85 78 ff ff ff    	mov    -0x88(%ebp),%eax
 804dd2d:	89 95 7c ff ff ff    	mov    %edx,-0x84(%ebp)
 804dd33:	83 c0 01             	add    $0x1,%eax
 804dd36:	83 f8 07             	cmp    $0x7,%eax
 804dd39:	89 85 78 ff ff ff    	mov    %eax,-0x88(%ebp)
 804dd3f:	0f 8f e3 04 00 00    	jg     804e228 <_vfprintf_r+0x1cf8>
 804dd45:	f7 db                	neg    %ebx
 804dd47:	85 db                	test   %ebx,%ebx
 804dd49:	0f 8e d2 01 00 00    	jle    804df21 <_vfprintf_r+0x19f1>
 804dd4f:	83 fb 10             	cmp    $0x10,%ebx
 804dd52:	0f 8e 74 01 00 00    	jle    804decc <_vfprintf_r+0x199c>
 804dd58:	8d b5 74 ff ff ff    	lea    -0x8c(%ebp),%esi
 804dd5e:	eb 0c                	jmp    804dd6c <_vfprintf_r+0x183c>
 804dd60:	83 eb 10             	sub    $0x10,%ebx
 804dd63:	83 fb 10             	cmp    $0x10,%ebx
 804dd66:	0f 8e 60 01 00 00    	jle    804decc <_vfprintf_r+0x199c>
 804dd6c:	83 c0 01             	add    $0x1,%eax
 804dd6f:	83 c2 10             	add    $0x10,%edx
 804dd72:	c7 07 bc 67 05 08    	movl   $0x80567bc,(%edi)
 804dd78:	83 c7 08             	add    $0x8,%edi
 804dd7b:	c7 47 fc 10 00 00 00 	movl   $0x10,-0x4(%edi)
 804dd82:	83 f8 07             	cmp    $0x7,%eax
 804dd85:	89 95 7c ff ff ff    	mov    %edx,-0x84(%ebp)
 804dd8b:	89 85 78 ff ff ff    	mov    %eax,-0x88(%ebp)
 804dd91:	7e cd                	jle    804dd60 <_vfprintf_r+0x1830>
 804dd93:	8b 45 0c             	mov    0xc(%ebp),%eax
 804dd96:	89 74 24 08          	mov    %esi,0x8(%esp)
 804dd9a:	89 44 24 04          	mov    %eax,0x4(%esp)
 804dd9e:	8b 45 08             	mov    0x8(%ebp),%eax
 804dda1:	89 04 24             	mov    %eax,(%esp)
 804dda4:	e8 e7 53 00 00       	call   8053190 <__sprint_r>
 804dda9:	85 c0                	test   %eax,%eax
 804ddab:	0f 85 f7 e9 ff ff    	jne    804c7a8 <_vfprintf_r+0x278>
 804ddb1:	8b 95 7c ff ff ff    	mov    -0x84(%ebp),%edx
 804ddb7:	8d 7d a8             	lea    -0x58(%ebp),%edi
 804ddba:	8b 85 78 ff ff ff    	mov    -0x88(%ebp),%eax
 804ddc0:	eb 9e                	jmp    804dd60 <_vfprintf_r+0x1830>
 804ddc2:	8d b6 00 00 00 00    	lea    0x0(%esi),%esi
 804ddc8:	8d 50 01             	lea    0x1(%eax),%edx
 804ddcb:	89 95 6c ff ff ff    	mov    %edx,-0x94(%ebp)
 804ddd1:	c6 00 30             	movb   $0x30,(%eax)
 804ddd4:	8b 85 6c ff ff ff    	mov    -0x94(%ebp),%eax
 804ddda:	39 c1                	cmp    %eax,%ecx
 804dddc:	77 ea                	ja     804ddc8 <_vfprintf_r+0x1898>
 804ddde:	e9 01 fe ff ff       	jmp    804dbe4 <_vfprintf_r+0x16b4>
 804dde3:	83 bd 24 ff ff ff 47 	cmpl   $0x47,-0xdc(%ebp)
 804ddea:	ba a0 64 05 08       	mov    $0x80564a0,%edx
 804ddef:	b8 a4 64 05 08       	mov    $0x80564a4,%eax
 804ddf4:	0f b6 9d 59 ff ff ff 	movzbl -0xa7(%ebp),%ebx
 804ddfb:	c7 85 48 ff ff ff 03 	movl   $0x3,-0xb8(%ebp)
 804de02:	00 00 00 
 804de05:	0f 4e c2             	cmovle %edx,%eax
 804de08:	89 85 2c ff ff ff    	mov    %eax,-0xd4(%ebp)
 804de0e:	81 a5 4c ff ff ff 7f 	andl   $0xffffff7f,-0xb4(%ebp)
 804de15:	ff ff ff 
 804de18:	c7 85 38 ff ff ff 03 	movl   $0x3,-0xc8(%ebp)
 804de1f:	00 00 00 
 804de22:	c7 85 44 ff ff ff 00 	movl   $0x0,-0xbc(%ebp)
 804de29:	00 00 00 
 804de2c:	c7 85 20 ff ff ff 00 	movl   $0x0,-0xe0(%ebp)
 804de33:	00 00 00 
 804de36:	e9 45 ea ff ff       	jmp    804c880 <_vfprintf_r+0x350>
 804de3b:	89 d0                	mov    %edx,%eax
 804de3d:	e9 ce fa ff ff       	jmp    804d910 <_vfprintf_r+0x13e0>
 804de42:	8b 95 1c ff ff ff    	mov    -0xe4(%ebp),%edx
 804de48:	85 d2                	test   %edx,%edx
 804de4a:	0f 85 bf fe ff ff    	jne    804dd0f <_vfprintf_r+0x17df>
 804de50:	f6 85 4c ff ff ff 01 	testb  $0x1,-0xb4(%ebp)
 804de57:	0f 84 37 f2 ff ff    	je     804d094 <_vfprintf_r+0xb64>
 804de5d:	e9 ad fe ff ff       	jmp    804dd0f <_vfprintf_r+0x17df>
 804de62:	8d 85 74 ff ff ff    	lea    -0x8c(%ebp),%eax
 804de68:	89 44 24 08          	mov    %eax,0x8(%esp)
 804de6c:	8b 45 0c             	mov    0xc(%ebp),%eax
 804de6f:	89 44 24 04          	mov    %eax,0x4(%esp)
 804de73:	8b 45 08             	mov    0x8(%ebp),%eax
 804de76:	89 04 24             	mov    %eax,(%esp)
 804de79:	e8 12 53 00 00       	call   8053190 <__sprint_r>
 804de7e:	85 c0                	test   %eax,%eax
 804de80:	0f 85 22 e9 ff ff    	jne    804c7a8 <_vfprintf_r+0x278>
 804de86:	8b 9d 5c ff ff ff    	mov    -0xa4(%ebp),%ebx
 804de8c:	8d 7d a8             	lea    -0x58(%ebp),%edi
 804de8f:	8b 8d 7c ff ff ff    	mov    -0x84(%ebp),%ecx
 804de95:	e9 6d fe ff ff       	jmp    804dd07 <_vfprintf_r+0x17d7>
 804de9a:	8d 85 74 ff ff ff    	lea    -0x8c(%ebp),%eax
 804dea0:	89 44 24 08          	mov    %eax,0x8(%esp)
 804dea4:	8b 45 0c             	mov    0xc(%ebp),%eax
 804dea7:	89 44 24 04          	mov    %eax,0x4(%esp)
 804deab:	8b 45 08             	mov    0x8(%ebp),%eax
 804deae:	89 04 24             	mov    %eax,(%esp)
 804deb1:	e8 da 52 00 00       	call   8053190 <__sprint_r>
 804deb6:	85 c0                	test   %eax,%eax
 804deb8:	0f 85 ea e8 ff ff    	jne    804c7a8 <_vfprintf_r+0x278>
 804debe:	8b 8d 7c ff ff ff    	mov    -0x84(%ebp),%ecx
 804dec4:	8d 7d a8             	lea    -0x58(%ebp),%edi
 804dec7:	e9 8b f3 ff ff       	jmp    804d257 <_vfprintf_r+0xd27>
 804decc:	83 c0 01             	add    $0x1,%eax
 804decf:	01 da                	add    %ebx,%edx
 804ded1:	c7 07 bc 67 05 08    	movl   $0x80567bc,(%edi)
 804ded7:	83 c7 08             	add    $0x8,%edi
 804deda:	89 5f fc             	mov    %ebx,-0x4(%edi)
 804dedd:	83 f8 07             	cmp    $0x7,%eax
 804dee0:	89 95 7c ff ff ff    	mov    %edx,-0x84(%ebp)
 804dee6:	89 85 78 ff ff ff    	mov    %eax,-0x88(%ebp)
 804deec:	7e 33                	jle    804df21 <_vfprintf_r+0x19f1>
 804deee:	8d 85 74 ff ff ff    	lea    -0x8c(%ebp),%eax
 804def4:	89 44 24 08          	mov    %eax,0x8(%esp)
 804def8:	8b 45 0c             	mov    0xc(%ebp),%eax
 804defb:	89 44 24 04          	mov    %eax,0x4(%esp)
 804deff:	8b 45 08             	mov    0x8(%ebp),%eax
 804df02:	89 04 24             	mov    %eax,(%esp)
 804df05:	e8 86 52 00 00       	call   8053190 <__sprint_r>
 804df0a:	85 c0                	test   %eax,%eax
 804df0c:	0f 85 96 e8 ff ff    	jne    804c7a8 <_vfprintf_r+0x278>
 804df12:	8b 95 7c ff ff ff    	mov    -0x84(%ebp),%edx
 804df18:	8d 7d a8             	lea    -0x58(%ebp),%edi
 804df1b:	8b 85 78 ff ff ff    	mov    -0x88(%ebp),%eax
 804df21:	8b 9d 2c ff ff ff    	mov    -0xd4(%ebp),%ebx
 804df27:	83 c0 01             	add    $0x1,%eax
 804df2a:	89 85 78 ff ff ff    	mov    %eax,-0x88(%ebp)
 804df30:	89 1f                	mov    %ebx,(%edi)
 804df32:	8b 9d 1c ff ff ff    	mov    -0xe4(%ebp),%ebx
 804df38:	01 da                	add    %ebx,%edx
 804df3a:	83 f8 07             	cmp    $0x7,%eax
 804df3d:	89 5f 04             	mov    %ebx,0x4(%edi)
 804df40:	89 95 7c ff ff ff    	mov    %edx,-0x84(%ebp)
 804df46:	0f 8f af f5 ff ff    	jg     804d4fb <_vfprintf_r+0xfcb>
 804df4c:	83 c7 08             	add    $0x8,%edi
 804df4f:	89 d1                	mov    %edx,%ecx
 804df51:	e9 3e f1 ff ff       	jmp    804d094 <_vfprintf_r+0xb64>
 804df56:	8b 85 2c ff ff ff    	mov    -0xd4(%ebp),%eax
 804df5c:	89 04 24             	mov    %eax,(%esp)
 804df5f:	e8 4c c6 ff ff       	call   804a5b0 <strlen>
 804df64:	e9 df e8 ff ff       	jmp    804c848 <_vfprintf_r+0x318>
 804df69:	8d 85 74 ff ff ff    	lea    -0x8c(%ebp),%eax
 804df6f:	89 44 24 08          	mov    %eax,0x8(%esp)
 804df73:	8b 45 0c             	mov    0xc(%ebp),%eax
 804df76:	89 44 24 04          	mov    %eax,0x4(%esp)
 804df7a:	8b 45 08             	mov    0x8(%ebp),%eax
 804df7d:	89 04 24             	mov    %eax,(%esp)
 804df80:	e8 0b 52 00 00       	call   8053190 <__sprint_r>
 804df85:	85 c0                	test   %eax,%eax
 804df87:	0f 85 1b e8 ff ff    	jne    804c7a8 <_vfprintf_r+0x278>
 804df8d:	8b 8d 7c ff ff ff    	mov    -0x84(%ebp),%ecx
 804df93:	8d 7d a8             	lea    -0x58(%ebp),%edi
 804df96:	e9 ec f6 ff ff       	jmp    804d687 <_vfprintf_r+0x1157>
 804df9b:	8d 85 74 ff ff ff    	lea    -0x8c(%ebp),%eax
 804dfa1:	89 44 24 08          	mov    %eax,0x8(%esp)
 804dfa5:	8b 45 0c             	mov    0xc(%ebp),%eax
 804dfa8:	89 44 24 04          	mov    %eax,0x4(%esp)
 804dfac:	8b 45 08             	mov    0x8(%ebp),%eax
 804dfaf:	89 04 24             	mov    %eax,(%esp)
 804dfb2:	e8 d9 51 00 00       	call   8053190 <__sprint_r>
 804dfb7:	85 c0                	test   %eax,%eax
 804dfb9:	0f 85 e9 e7 ff ff    	jne    804c7a8 <_vfprintf_r+0x278>
 804dfbf:	8b 85 5c ff ff ff    	mov    -0xa4(%ebp),%eax
 804dfc5:	8d 7d a8             	lea    -0x58(%ebp),%edi
 804dfc8:	8b 8d 7c ff ff ff    	mov    -0x84(%ebp),%ecx
 804dfce:	e9 3d f9 ff ff       	jmp    804d910 <_vfprintf_r+0x13e0>
 804dfd3:	8d 85 74 ff ff ff    	lea    -0x8c(%ebp),%eax
 804dfd9:	89 44 24 08          	mov    %eax,0x8(%esp)
 804dfdd:	8b 45 0c             	mov    0xc(%ebp),%eax
 804dfe0:	89 44 24 04          	mov    %eax,0x4(%esp)
 804dfe4:	8b 45 08             	mov    0x8(%ebp),%eax
 804dfe7:	89 04 24             	mov    %eax,(%esp)
 804dfea:	e8 a1 51 00 00       	call   8053190 <__sprint_r>
 804dfef:	85 c0                	test   %eax,%eax
 804dff1:	0f 85 b1 e7 ff ff    	jne    804c7a8 <_vfprintf_r+0x278>
 804dff7:	8b b5 1c ff ff ff    	mov    -0xe4(%ebp),%esi
 804dffd:	8d 7d a8             	lea    -0x58(%ebp),%edi
 804e000:	2b b5 5c ff ff ff    	sub    -0xa4(%ebp),%esi
 804e006:	8b 8d 7c ff ff ff    	mov    -0x84(%ebp),%ecx
 804e00c:	e9 43 f9 ff ff       	jmp    804d954 <_vfprintf_r+0x1424>
 804e011:	8b 95 44 ff ff ff    	mov    -0xbc(%ebp),%edx
 804e017:	b0 06                	mov    $0x6,%al
 804e019:	89 75 14             	mov    %esi,0x14(%ebp)
 804e01c:	c7 85 44 ff ff ff 00 	movl   $0x0,-0xbc(%ebp)
 804e023:	00 00 00 
 804e026:	c7 85 20 ff ff ff 00 	movl   $0x0,-0xe0(%ebp)
 804e02d:	00 00 00 
 804e030:	83 fa 06             	cmp    $0x6,%edx
 804e033:	0f 46 c2             	cmovbe %edx,%eax
 804e036:	8b 95 2c ff ff ff    	mov    -0xd4(%ebp),%edx
 804e03c:	85 c0                	test   %eax,%eax
 804e03e:	89 85 38 ff ff ff    	mov    %eax,-0xc8(%ebp)
 804e044:	c7 85 2c ff ff ff ca 	movl   $0x80564ca,-0xd4(%ebp)
 804e04b:	64 05 08 
 804e04e:	0f 49 d0             	cmovns %eax,%edx
 804e051:	31 db                	xor    %ebx,%ebx
 804e053:	89 95 48 ff ff ff    	mov    %edx,-0xb8(%ebp)
 804e059:	e9 2d e8 ff ff       	jmp    804c88b <_vfprintf_r+0x35b>
 804e05e:	ba 03 00 00 00       	mov    $0x3,%edx
 804e063:	8d 85 6c ff ff ff    	lea    -0x94(%ebp),%eax
 804e069:	89 44 24 1c          	mov    %eax,0x1c(%esp)
 804e06d:	8d 85 60 ff ff ff    	lea    -0xa0(%ebp),%eax
 804e073:	89 44 24 18          	mov    %eax,0x18(%esp)
 804e077:	8d 85 5c ff ff ff    	lea    -0xa4(%ebp),%eax
 804e07d:	89 44 24 14          	mov    %eax,0x14(%esp)
 804e081:	8b 85 44 ff ff ff    	mov    -0xbc(%ebp),%eax
 804e087:	dd 54 24 04          	fstl   0x4(%esp)
 804e08b:	89 54 24 0c          	mov    %edx,0xc(%esp)
 804e08f:	dd 9d 38 ff ff ff    	fstpl  -0xc8(%ebp)
 804e095:	89 44 24 10          	mov    %eax,0x10(%esp)
 804e099:	8b 45 08             	mov    0x8(%ebp),%eax
 804e09c:	89 04 24             	mov    %eax,(%esp)
 804e09f:	e8 0c 08 00 00       	call   804e8b0 <_dtoa_r>
 804e0a4:	83 fb 47             	cmp    $0x47,%ebx
 804e0a7:	89 85 2c ff ff ff    	mov    %eax,-0xd4(%ebp)
 804e0ad:	dd 85 38 ff ff ff    	fldl   -0xc8(%ebp)
 804e0b3:	75 09                	jne    804e0be <_vfprintf_r+0x1b8e>
 804e0b5:	f6 85 4c ff ff ff 01 	testb  $0x1,-0xb4(%ebp)
 804e0bc:	74 6c                	je     804e12a <_vfprintf_r+0x1bfa>
 804e0be:	8b 95 2c ff ff ff    	mov    -0xd4(%ebp),%edx
 804e0c4:	89 f0                	mov    %esi,%eax
 804e0c6:	8b 8d 44 ff ff ff    	mov    -0xbc(%ebp),%ecx
 804e0cc:	01 d1                	add    %edx,%ecx
 804e0ce:	84 c0                	test   %al,%al
 804e0d0:	0f 84 f8 fa ff ff    	je     804dbce <_vfprintf_r+0x169e>
 804e0d6:	80 3a 30             	cmpb   $0x30,(%edx)
 804e0d9:	0f 84 b2 02 00 00    	je     804e391 <_vfprintf_r+0x1e61>
 804e0df:	8b 85 5c ff ff ff    	mov    -0xa4(%ebp),%eax
 804e0e5:	01 c1                	add    %eax,%ecx
 804e0e7:	e9 e2 fa ff ff       	jmp    804dbce <_vfprintf_r+0x169e>
 804e0ec:	c6 85 59 ff ff ff 2d 	movb   $0x2d,-0xa7(%ebp)
 804e0f3:	bb 2d 00 00 00       	mov    $0x2d,%ebx
 804e0f8:	e9 a9 eb ff ff       	jmp    804cca6 <_vfprintf_r+0x776>
 804e0fd:	89 85 48 ff ff ff    	mov    %eax,-0xb8(%ebp)
 804e103:	8b 85 34 ff ff ff    	mov    -0xcc(%ebp),%eax
 804e109:	bb 2d 00 00 00       	mov    $0x2d,%ebx
 804e10e:	c6 85 59 ff ff ff 2d 	movb   $0x2d,-0xa7(%ebp)
 804e115:	c7 85 44 ff ff ff 00 	movl   $0x0,-0xbc(%ebp)
 804e11c:	00 00 00 
 804e11f:	89 85 4c ff ff ff    	mov    %eax,-0xb4(%ebp)
 804e125:	e9 5a e7 ff ff       	jmp    804c884 <_vfprintf_r+0x354>
 804e12a:	dd d8                	fstp   %st(0)
 804e12c:	8b 85 6c ff ff ff    	mov    -0x94(%ebp),%eax
 804e132:	89 85 1c ff ff ff    	mov    %eax,-0xe4(%ebp)
 804e138:	8b 85 2c ff ff ff    	mov    -0xd4(%ebp),%eax
 804e13e:	29 85 1c ff ff ff    	sub    %eax,-0xe4(%ebp)
 804e144:	8b 85 5c ff ff ff    	mov    -0xa4(%ebp),%eax
 804e14a:	83 f8 fd             	cmp    $0xfffffffd,%eax
 804e14d:	7c 48                	jl     804e197 <_vfprintf_r+0x1c67>
 804e14f:	39 85 44 ff ff ff    	cmp    %eax,-0xbc(%ebp)
 804e155:	7c 40                	jl     804e197 <_vfprintf_r+0x1c67>
 804e157:	89 85 20 ff ff ff    	mov    %eax,-0xe0(%ebp)
 804e15d:	e9 bd fa ff ff       	jmp    804dc1f <_vfprintf_r+0x16ef>
 804e162:	8b 85 44 ff ff ff    	mov    -0xbc(%ebp),%eax
 804e168:	0f b6 9d 59 ff ff ff 	movzbl -0xa7(%ebp),%ebx
 804e16f:	89 75 14             	mov    %esi,0x14(%ebp)
 804e172:	c7 85 44 ff ff ff 00 	movl   $0x0,-0xbc(%ebp)
 804e179:	00 00 00 
 804e17c:	89 85 48 ff ff ff    	mov    %eax,-0xb8(%ebp)
 804e182:	89 85 38 ff ff ff    	mov    %eax,-0xc8(%ebp)
 804e188:	c7 85 20 ff ff ff 00 	movl   $0x0,-0xe0(%ebp)
 804e18f:	00 00 00 
 804e192:	e9 e9 e6 ff ff       	jmp    804c880 <_vfprintf_r+0x350>
 804e197:	83 ad 24 ff ff ff 02 	subl   $0x2,-0xdc(%ebp)
 804e19e:	8d 48 ff             	lea    -0x1(%eax),%ecx
 804e1a1:	0f b6 85 24 ff ff ff 	movzbl -0xdc(%ebp),%eax
 804e1a8:	85 c9                	test   %ecx,%ecx
 804e1aa:	89 8d 5c ff ff ff    	mov    %ecx,-0xa4(%ebp)
 804e1b0:	88 85 65 ff ff ff    	mov    %al,-0x9b(%ebp)
 804e1b6:	0f 88 af 02 00 00    	js     804e46b <_vfprintf_r+0x1f3b>
 804e1bc:	c6 85 66 ff ff ff 2b 	movb   $0x2b,-0x9a(%ebp)
 804e1c3:	83 f9 09             	cmp    $0x9,%ecx
 804e1c6:	0f 8f 33 01 00 00    	jg     804e2ff <_vfprintf_r+0x1dcf>
 804e1cc:	83 c1 30             	add    $0x30,%ecx
 804e1cf:	c6 85 67 ff ff ff 30 	movb   $0x30,-0x99(%ebp)
 804e1d6:	8d 85 69 ff ff ff    	lea    -0x97(%ebp),%eax
 804e1dc:	88 8d 68 ff ff ff    	mov    %cl,-0x98(%ebp)
 804e1e2:	8b 9d 1c ff ff ff    	mov    -0xe4(%ebp),%ebx
 804e1e8:	8d 95 65 ff ff ff    	lea    -0x9b(%ebp),%edx
 804e1ee:	29 d0                	sub    %edx,%eax
 804e1f0:	89 85 04 ff ff ff    	mov    %eax,-0xfc(%ebp)
 804e1f6:	89 da                	mov    %ebx,%edx
 804e1f8:	01 c2                	add    %eax,%edx
 804e1fa:	83 fb 01             	cmp    $0x1,%ebx
 804e1fd:	89 95 38 ff ff ff    	mov    %edx,-0xc8(%ebp)
 804e203:	0f 8e 3f 02 00 00    	jle    804e448 <_vfprintf_r+0x1f18>
 804e209:	31 c0                	xor    %eax,%eax
 804e20b:	83 85 38 ff ff ff 01 	addl   $0x1,-0xc8(%ebp)
 804e212:	0f 49 85 38 ff ff ff 	cmovns -0xc8(%ebp),%eax
 804e219:	c7 85 20 ff ff ff 00 	movl   $0x0,-0xe0(%ebp)
 804e220:	00 00 00 
 804e223:	e9 33 fa ff ff       	jmp    804dc5b <_vfprintf_r+0x172b>
 804e228:	8d 85 74 ff ff ff    	lea    -0x8c(%ebp),%eax
 804e22e:	89 44 24 08          	mov    %eax,0x8(%esp)
 804e232:	8b 45 0c             	mov    0xc(%ebp),%eax
 804e235:	89 44 24 04          	mov    %eax,0x4(%esp)
 804e239:	8b 45 08             	mov    0x8(%ebp),%eax
 804e23c:	89 04 24             	mov    %eax,(%esp)
 804e23f:	e8 4c 4f 00 00       	call   8053190 <__sprint_r>
 804e244:	85 c0                	test   %eax,%eax
 804e246:	0f 85 5c e5 ff ff    	jne    804c7a8 <_vfprintf_r+0x278>
 804e24c:	8b 9d 5c ff ff ff    	mov    -0xa4(%ebp),%ebx
 804e252:	8d 7d a8             	lea    -0x58(%ebp),%edi
 804e255:	8b 95 7c ff ff ff    	mov    -0x84(%ebp),%edx
 804e25b:	8b 85 78 ff ff ff    	mov    -0x88(%ebp),%eax
 804e261:	e9 df fa ff ff       	jmp    804dd45 <_vfprintf_r+0x1815>
 804e266:	8b 8d 48 ff ff ff    	mov    -0xb8(%ebp),%ecx
 804e26c:	c7 85 44 ff ff ff 00 	movl   $0x0,-0xbc(%ebp)
 804e273:	00 00 00 
 804e276:	e9 28 e4 ff ff       	jmp    804c6a3 <_vfprintf_r+0x173>
 804e27b:	8b 8d 20 ff ff ff    	mov    -0xe0(%ebp),%ecx
 804e281:	ba 01 00 00 00       	mov    $0x1,%edx
 804e286:	85 c9                	test   %ecx,%ecx
 804e288:	0f 8e 4e 01 00 00    	jle    804e3dc <_vfprintf_r+0x1eac>
 804e28e:	31 c0                	xor    %eax,%eax
 804e290:	03 95 1c ff ff ff    	add    -0xe4(%ebp),%edx
 804e296:	c7 85 24 ff ff ff 67 	movl   $0x67,-0xdc(%ebp)
 804e29d:	00 00 00 
 804e2a0:	89 95 38 ff ff ff    	mov    %edx,-0xc8(%ebp)
 804e2a6:	0f 49 c2             	cmovns %edx,%eax
 804e2a9:	e9 ad f9 ff ff       	jmp    804dc5b <_vfprintf_r+0x172b>
 804e2ae:	ba 02 00 00 00       	mov    $0x2,%edx
 804e2b3:	e9 ab fd ff ff       	jmp    804e063 <_vfprintf_r+0x1b33>
 804e2b8:	d9 e0                	fchs   
 804e2ba:	c6 85 48 ff ff ff 2d 	movb   $0x2d,-0xb8(%ebp)
 804e2c1:	e9 9a f8 ff ff       	jmp    804db60 <_vfprintf_r+0x1630>
 804e2c6:	c7 85 44 ff ff ff 06 	movl   $0x6,-0xbc(%ebp)
 804e2cd:	00 00 00 
 804e2d0:	e9 5b f8 ff ff       	jmp    804db30 <_vfprintf_r+0x1600>
 804e2d5:	85 c0                	test   %eax,%eax
 804e2d7:	0f 8e 43 01 00 00    	jle    804e420 <_vfprintf_r+0x1ef0>
 804e2dd:	8b b5 44 ff ff ff    	mov    -0xbc(%ebp),%esi
 804e2e3:	85 f6                	test   %esi,%esi
 804e2e5:	0f 85 82 00 00 00    	jne    804e36d <_vfprintf_r+0x1e3d>
 804e2eb:	f6 85 4c ff ff ff 01 	testb  $0x1,-0xb4(%ebp)
 804e2f2:	75 79                	jne    804e36d <_vfprintf_r+0x1e3d>
 804e2f4:	89 85 38 ff ff ff    	mov    %eax,-0xc8(%ebp)
 804e2fa:	e9 5c f9 ff ff       	jmp    804dc5b <_vfprintf_r+0x172b>
 804e2ff:	8d b5 73 ff ff ff    	lea    -0x8d(%ebp),%esi
 804e305:	89 f3                	mov    %esi,%ebx
 804e307:	b8 67 66 66 66       	mov    $0x66666667,%eax
 804e30c:	83 eb 01             	sub    $0x1,%ebx
 804e30f:	f7 e9                	imul   %ecx
 804e311:	89 c8                	mov    %ecx,%eax
 804e313:	c1 f8 1f             	sar    $0x1f,%eax
 804e316:	c1 fa 02             	sar    $0x2,%edx
 804e319:	29 c2                	sub    %eax,%edx
 804e31b:	8d 04 92             	lea    (%edx,%edx,4),%eax
 804e31e:	01 c0                	add    %eax,%eax
 804e320:	29 c1                	sub    %eax,%ecx
 804e322:	83 fa 09             	cmp    $0x9,%edx
 804e325:	8d 41 30             	lea    0x30(%ecx),%eax
 804e328:	89 d1                	mov    %edx,%ecx
 804e32a:	88 03                	mov    %al,(%ebx)
 804e32c:	7f d9                	jg     804e307 <_vfprintf_r+0x1dd7>
 804e32e:	8d 43 ff             	lea    -0x1(%ebx),%eax
 804e331:	83 c1 30             	add    $0x30,%ecx
 804e334:	39 f0                	cmp    %esi,%eax
 804e336:	88 4b ff             	mov    %cl,-0x1(%ebx)
 804e339:	0f 83 53 01 00 00    	jae    804e492 <_vfprintf_r+0x1f62>
 804e33f:	8d 95 67 ff ff ff    	lea    -0x99(%ebp),%edx
 804e345:	eb 04                	jmp    804e34b <_vfprintf_r+0x1e1b>
 804e347:	90                   	nop
 804e348:	0f b6 08             	movzbl (%eax),%ecx
 804e34b:	83 c0 01             	add    $0x1,%eax
 804e34e:	83 c2 01             	add    $0x1,%edx
 804e351:	39 f0                	cmp    %esi,%eax
 804e353:	88 4a ff             	mov    %cl,-0x1(%edx)
 804e356:	75 f0                	jne    804e348 <_vfprintf_r+0x1e18>
 804e358:	8d 85 74 ff ff ff    	lea    -0x8c(%ebp),%eax
 804e35e:	29 d8                	sub    %ebx,%eax
 804e360:	8d 95 67 ff ff ff    	lea    -0x99(%ebp),%edx
 804e366:	01 d0                	add    %edx,%eax
 804e368:	e9 75 fe ff ff       	jmp    804e1e2 <_vfprintf_r+0x1cb2>
 804e36d:	8b 95 20 ff ff ff    	mov    -0xe0(%ebp),%edx
 804e373:	8b 85 44 ff ff ff    	mov    -0xbc(%ebp),%eax
 804e379:	8d 44 10 01          	lea    0x1(%eax,%edx,1),%eax
 804e37d:	89 c2                	mov    %eax,%edx
 804e37f:	89 85 38 ff ff ff    	mov    %eax,-0xc8(%ebp)
 804e385:	31 c0                	xor    %eax,%eax
 804e387:	85 d2                	test   %edx,%edx
 804e389:	0f 49 c2             	cmovns %edx,%eax
 804e38c:	e9 ca f8 ff ff       	jmp    804dc5b <_vfprintf_r+0x172b>
 804e391:	d9 ee                	fldz   
 804e393:	d9 c9                	fxch   %st(1)
 804e395:	db e9                	fucomi %st(1),%st
 804e397:	dd d9                	fstp   %st(1)
 804e399:	7a 06                	jp     804e3a1 <_vfprintf_r+0x1e71>
 804e39b:	0f 84 3e fd ff ff    	je     804e0df <_vfprintf_r+0x1baf>
 804e3a1:	b8 01 00 00 00       	mov    $0x1,%eax
 804e3a6:	2b 85 44 ff ff ff    	sub    -0xbc(%ebp),%eax
 804e3ac:	89 85 5c ff ff ff    	mov    %eax,-0xa4(%ebp)
 804e3b2:	01 c1                	add    %eax,%ecx
 804e3b4:	e9 15 f8 ff ff       	jmp    804dbce <_vfprintf_r+0x169e>
 804e3b9:	8b 95 20 ff ff ff    	mov    -0xe0(%ebp),%edx
 804e3bf:	31 c0                	xor    %eax,%eax
 804e3c1:	c7 85 24 ff ff ff 67 	movl   $0x67,-0xdc(%ebp)
 804e3c8:	00 00 00 
 804e3cb:	83 c2 01             	add    $0x1,%edx
 804e3ce:	89 95 38 ff ff ff    	mov    %edx,-0xc8(%ebp)
 804e3d4:	0f 49 c2             	cmovns %edx,%eax
 804e3d7:	e9 7f f8 ff ff       	jmp    804dc5b <_vfprintf_r+0x172b>
 804e3dc:	b2 02                	mov    $0x2,%dl
 804e3de:	2b 95 20 ff ff ff    	sub    -0xe0(%ebp),%edx
 804e3e4:	e9 a5 fe ff ff       	jmp    804e28e <_vfprintf_r+0x1d5e>
 804e3e9:	8b 55 14             	mov    0x14(%ebp),%edx
 804e3ec:	8b 45 14             	mov    0x14(%ebp),%eax
 804e3ef:	8b 8d 48 ff ff ff    	mov    -0xb8(%ebp),%ecx
 804e3f5:	8b 12                	mov    (%edx),%edx
 804e3f7:	83 c0 04             	add    $0x4,%eax
 804e3fa:	89 45 14             	mov    %eax,0x14(%ebp)
 804e3fd:	85 d2                	test   %edx,%edx
 804e3ff:	89 95 44 ff ff ff    	mov    %edx,-0xbc(%ebp)
 804e405:	0f 89 b4 e2 ff ff    	jns    804c6bf <_vfprintf_r+0x18f>
 804e40b:	c7 85 44 ff ff ff ff 	movl   $0xffffffff,-0xbc(%ebp)
 804e412:	ff ff ff 
 804e415:	89 c8                	mov    %ecx,%eax
 804e417:	e9 81 e2 ff ff       	jmp    804c69d <_vfprintf_r+0x16d>
 804e41c:	8d 74 26 00          	lea    0x0(%esi,%eiz,1),%esi
 804e420:	8b 9d 44 ff ff ff    	mov    -0xbc(%ebp),%ebx
 804e426:	85 db                	test   %ebx,%ebx
 804e428:	75 4f                	jne    804e479 <_vfprintf_r+0x1f49>
 804e42a:	f6 85 4c ff ff ff 01 	testb  $0x1,-0xb4(%ebp)
 804e431:	75 46                	jne    804e479 <_vfprintf_r+0x1f49>
 804e433:	b8 01 00 00 00       	mov    $0x1,%eax
 804e438:	c7 85 38 ff ff ff 01 	movl   $0x1,-0xc8(%ebp)
 804e43f:	00 00 00 
 804e442:	e9 14 f8 ff ff       	jmp    804dc5b <_vfprintf_r+0x172b>
 804e447:	90                   	nop
 804e448:	8b 85 4c ff ff ff    	mov    -0xb4(%ebp),%eax
 804e44e:	83 e0 01             	and    $0x1,%eax
 804e451:	0f 85 b2 fd ff ff    	jne    804e209 <_vfprintf_r+0x1cd9>
 804e457:	85 d2                	test   %edx,%edx
 804e459:	0f 49 c2             	cmovns %edx,%eax
 804e45c:	c7 85 20 ff ff ff 00 	movl   $0x0,-0xe0(%ebp)
 804e463:	00 00 00 
 804e466:	e9 f0 f7 ff ff       	jmp    804dc5b <_vfprintf_r+0x172b>
 804e46b:	f7 d9                	neg    %ecx
 804e46d:	c6 85 66 ff ff ff 2d 	movb   $0x2d,-0x9a(%ebp)
 804e474:	e9 4a fd ff ff       	jmp    804e1c3 <_vfprintf_r+0x1c93>
 804e479:	8b 95 44 ff ff ff    	mov    -0xbc(%ebp),%edx
 804e47f:	31 c0                	xor    %eax,%eax
 804e481:	83 c2 02             	add    $0x2,%edx
 804e484:	89 95 38 ff ff ff    	mov    %edx,-0xc8(%ebp)
 804e48a:	0f 49 c2             	cmovns %edx,%eax
 804e48d:	e9 c9 f7 ff ff       	jmp    804dc5b <_vfprintf_r+0x172b>
 804e492:	8d 85 67 ff ff ff    	lea    -0x99(%ebp),%eax
 804e498:	e9 45 fd ff ff       	jmp    804e1e2 <_vfprintf_r+0x1cb2>
 804e49d:	8d 76 00             	lea    0x0(%esi),%esi

0804e4a0 <vfprintf>:
 804e4a0:	55                   	push   %ebp
 804e4a1:	89 e5                	mov    %esp,%ebp
 804e4a3:	83 ec 18             	sub    $0x18,%esp
 804e4a6:	e8 15 21 00 00       	call   80505c0 <__getreent>
 804e4ab:	8b 55 10             	mov    0x10(%ebp),%edx
 804e4ae:	89 54 24 0c          	mov    %edx,0xc(%esp)
 804e4b2:	8b 55 0c             	mov    0xc(%ebp),%edx
 804e4b5:	89 04 24             	mov    %eax,(%esp)
 804e4b8:	89 54 24 08          	mov    %edx,0x8(%esp)
 804e4bc:	8b 55 08             	mov    0x8(%ebp),%edx
 804e4bf:	89 54 24 04          	mov    %edx,0x4(%esp)
 804e4c3:	e8 68 e0 ff ff       	call   804c530 <_vfprintf_r>
 804e4c8:	c9                   	leave  
 804e4c9:	c3                   	ret    
 804e4ca:	8d b6 00 00 00 00    	lea    0x0(%esi),%esi

0804e4d0 <__sbprintf>:
 804e4d0:	55                   	push   %ebp
 804e4d1:	89 e5                	mov    %esp,%ebp
 804e4d3:	57                   	push   %edi
 804e4d4:	89 c7                	mov    %eax,%edi
 804e4d6:	56                   	push   %esi
 804e4d7:	53                   	push   %ebx
 804e4d8:	89 d3                	mov    %edx,%ebx
 804e4da:	81 ec 9c 04 00 00    	sub    $0x49c,%esp
 804e4e0:	0f b7 42 0c          	movzwl 0xc(%edx),%eax
 804e4e4:	c7 85 88 fb ff ff 00 	movl   $0x400,-0x478(%ebp)
 804e4eb:	04 00 00 
 804e4ee:	c7 85 94 fb ff ff 00 	movl   $0x400,-0x46c(%ebp)
 804e4f5:	04 00 00 
 804e4f8:	c7 85 98 fb ff ff 00 	movl   $0x0,-0x468(%ebp)
 804e4ff:	00 00 00 
 804e502:	83 e0 fd             	and    $0xfffffffd,%eax
 804e505:	66 89 85 8c fb ff ff 	mov    %ax,-0x474(%ebp)
 804e50c:	8b 42 64             	mov    0x64(%edx),%eax
 804e50f:	89 85 e4 fb ff ff    	mov    %eax,-0x41c(%ebp)
 804e515:	0f b7 42 0e          	movzwl 0xe(%edx),%eax
 804e519:	66 89 85 8e fb ff ff 	mov    %ax,-0x472(%ebp)
 804e520:	8b 42 1c             	mov    0x1c(%edx),%eax
 804e523:	89 85 9c fb ff ff    	mov    %eax,-0x464(%ebp)
 804e529:	8b 42 24             	mov    0x24(%edx),%eax
 804e52c:	8d 95 80 fb ff ff    	lea    -0x480(%ebp),%edx
 804e532:	89 4c 24 08          	mov    %ecx,0x8(%esp)
 804e536:	89 54 24 04          	mov    %edx,0x4(%esp)
 804e53a:	89 3c 24             	mov    %edi,(%esp)
 804e53d:	89 85 a4 fb ff ff    	mov    %eax,-0x45c(%ebp)
 804e543:	8d 85 e8 fb ff ff    	lea    -0x418(%ebp),%eax
 804e549:	89 85 80 fb ff ff    	mov    %eax,-0x480(%ebp)
 804e54f:	89 85 90 fb ff ff    	mov    %eax,-0x470(%ebp)
 804e555:	8b 45 08             	mov    0x8(%ebp),%eax
 804e558:	89 95 74 fb ff ff    	mov    %edx,-0x48c(%ebp)
 804e55e:	89 44 24 0c          	mov    %eax,0xc(%esp)
 804e562:	e8 c9 df ff ff       	call   804c530 <_vfprintf_r>
 804e567:	85 c0                	test   %eax,%eax
 804e569:	89 c6                	mov    %eax,%esi
 804e56b:	78 1c                	js     804e589 <__sbprintf+0xb9>
 804e56d:	8b 95 74 fb ff ff    	mov    -0x48c(%ebp),%edx
 804e573:	89 3c 24             	mov    %edi,(%esp)
 804e576:	89 54 24 04          	mov    %edx,0x4(%esp)
 804e57a:	e8 31 17 00 00       	call   804fcb0 <_fflush_r>
 804e57f:	85 c0                	test   %eax,%eax
 804e581:	b8 ff ff ff ff       	mov    $0xffffffff,%eax
 804e586:	0f 45 f0             	cmovne %eax,%esi
 804e589:	f6 85 8c fb ff ff 40 	testb  $0x40,-0x474(%ebp)
 804e590:	74 05                	je     804e597 <__sbprintf+0xc7>
 804e592:	66 83 4b 0c 40       	orw    $0x40,0xc(%ebx)
 804e597:	81 c4 9c 04 00 00    	add    $0x49c,%esp
 804e59d:	89 f0                	mov    %esi,%eax
 804e59f:	5b                   	pop    %ebx
 804e5a0:	5e                   	pop    %esi
 804e5a1:	5f                   	pop    %edi
 804e5a2:	5d                   	pop    %ebp
 804e5a3:	c3                   	ret    
 804e5a4:	66 90                	xchg   %ax,%ax
 804e5a6:	66 90                	xchg   %ax,%ax
 804e5a8:	66 90                	xchg   %ax,%ax
 804e5aa:	66 90                	xchg   %ax,%ax
 804e5ac:	66 90                	xchg   %ax,%ax
 804e5ae:	66 90                	xchg   %ax,%ax

0804e5b0 <__swsetup_r>:
 804e5b0:	55                   	push   %ebp
 804e5b1:	89 e5                	mov    %esp,%ebp
 804e5b3:	53                   	push   %ebx
 804e5b4:	83 ec 14             	sub    $0x14,%esp
 804e5b7:	8b 5d 0c             	mov    0xc(%ebp),%ebx
 804e5ba:	e8 01 20 00 00       	call   80505c0 <__getreent>
 804e5bf:	85 c0                	test   %eax,%eax
 804e5c1:	74 0b                	je     804e5ce <__swsetup_r+0x1e>
 804e5c3:	8b 50 38             	mov    0x38(%eax),%edx
 804e5c6:	85 d2                	test   %edx,%edx
 804e5c8:	0f 84 a2 00 00 00    	je     804e670 <__swsetup_r+0xc0>
 804e5ce:	0f b7 43 0c          	movzwl 0xc(%ebx),%eax
 804e5d2:	a8 08                	test   $0x8,%al
 804e5d4:	74 2a                	je     804e600 <__swsetup_r+0x50>
 804e5d6:	8b 53 10             	mov    0x10(%ebx),%edx
 804e5d9:	85 d2                	test   %edx,%edx
 804e5db:	74 3d                	je     804e61a <__swsetup_r+0x6a>
 804e5dd:	a8 01                	test   $0x1,%al
 804e5df:	75 5f                	jne    804e640 <__swsetup_r+0x90>
 804e5e1:	31 c9                	xor    %ecx,%ecx
 804e5e3:	a8 02                	test   $0x2,%al
 804e5e5:	75 03                	jne    804e5ea <__swsetup_r+0x3a>
 804e5e7:	8b 4b 14             	mov    0x14(%ebx),%ecx
 804e5ea:	31 c0                	xor    %eax,%eax
 804e5ec:	85 d2                	test   %edx,%edx
 804e5ee:	89 4b 08             	mov    %ecx,0x8(%ebx)
 804e5f1:	74 62                	je     804e655 <__swsetup_r+0xa5>
 804e5f3:	83 c4 14             	add    $0x14,%esp
 804e5f6:	5b                   	pop    %ebx
 804e5f7:	5d                   	pop    %ebp
 804e5f8:	c3                   	ret    
 804e5f9:	8d b4 26 00 00 00 00 	lea    0x0(%esi,%eiz,1),%esi
 804e600:	a8 10                	test   $0x10,%al
 804e602:	0f 84 b8 00 00 00    	je     804e6c0 <__swsetup_r+0x110>
 804e608:	a8 04                	test   $0x4,%al
 804e60a:	75 74                	jne    804e680 <__swsetup_r+0xd0>
 804e60c:	8b 53 10             	mov    0x10(%ebx),%edx
 804e60f:	83 c8 08             	or     $0x8,%eax
 804e612:	85 d2                	test   %edx,%edx
 804e614:	66 89 43 0c          	mov    %ax,0xc(%ebx)
 804e618:	75 c3                	jne    804e5dd <__swsetup_r+0x2d>
 804e61a:	89 c1                	mov    %eax,%ecx
 804e61c:	66 81 e1 80 02       	and    $0x280,%cx
 804e621:	66 81 f9 00 02       	cmp    $0x200,%cx
 804e626:	74 b5                	je     804e5dd <__swsetup_r+0x2d>
 804e628:	8b 45 08             	mov    0x8(%ebp),%eax
 804e62b:	89 5c 24 04          	mov    %ebx,0x4(%esp)
 804e62f:	89 04 24             	mov    %eax,(%esp)
 804e632:	e8 a9 20 00 00       	call   80506e0 <__smakebuf_r>
 804e637:	0f b7 43 0c          	movzwl 0xc(%ebx),%eax
 804e63b:	8b 53 10             	mov    0x10(%ebx),%edx
 804e63e:	eb 9d                	jmp    804e5dd <__swsetup_r+0x2d>
 804e640:	8b 43 14             	mov    0x14(%ebx),%eax
 804e643:	c7 43 08 00 00 00 00 	movl   $0x0,0x8(%ebx)
 804e64a:	f7 d8                	neg    %eax
 804e64c:	89 43 18             	mov    %eax,0x18(%ebx)
 804e64f:	31 c0                	xor    %eax,%eax
 804e651:	85 d2                	test   %edx,%edx
 804e653:	75 9e                	jne    804e5f3 <__swsetup_r+0x43>
 804e655:	0f b7 53 0c          	movzwl 0xc(%ebx),%edx
 804e659:	f6 c2 80             	test   $0x80,%dl
 804e65c:	74 95                	je     804e5f3 <__swsetup_r+0x43>
 804e65e:	83 ca 40             	or     $0x40,%edx
 804e661:	b8 ff ff ff ff       	mov    $0xffffffff,%eax
 804e666:	66 89 53 0c          	mov    %dx,0xc(%ebx)
 804e66a:	eb 87                	jmp    804e5f3 <__swsetup_r+0x43>
 804e66c:	8d 74 26 00          	lea    0x0(%esi,%eiz,1),%esi
 804e670:	89 04 24             	mov    %eax,(%esp)
 804e673:	e8 a8 17 00 00       	call   804fe20 <__sinit>
 804e678:	e9 51 ff ff ff       	jmp    804e5ce <__swsetup_r+0x1e>
 804e67d:	8d 76 00             	lea    0x0(%esi),%esi
 804e680:	8b 53 30             	mov    0x30(%ebx),%edx
 804e683:	85 d2                	test   %edx,%edx
 804e685:	74 21                	je     804e6a8 <__swsetup_r+0xf8>
 804e687:	8d 4b 40             	lea    0x40(%ebx),%ecx
 804e68a:	39 ca                	cmp    %ecx,%edx
 804e68c:	74 13                	je     804e6a1 <__swsetup_r+0xf1>
 804e68e:	8b 45 08             	mov    0x8(%ebp),%eax
 804e691:	89 54 24 04          	mov    %edx,0x4(%esp)
 804e695:	89 04 24             	mov    %eax,(%esp)
 804e698:	e8 d3 1b 00 00       	call   8050270 <_free_r>
 804e69d:	0f b7 43 0c          	movzwl 0xc(%ebx),%eax
 804e6a1:	c7 43 30 00 00 00 00 	movl   $0x0,0x30(%ebx)
 804e6a8:	8b 53 10             	mov    0x10(%ebx),%edx
 804e6ab:	83 e0 db             	and    $0xffffffdb,%eax
 804e6ae:	c7 43 04 00 00 00 00 	movl   $0x0,0x4(%ebx)
 804e6b5:	89 13                	mov    %edx,(%ebx)
 804e6b7:	e9 53 ff ff ff       	jmp    804e60f <__swsetup_r+0x5f>
 804e6bc:	8d 74 26 00          	lea    0x0(%esi,%eiz,1),%esi
 804e6c0:	8b 4d 08             	mov    0x8(%ebp),%ecx
 804e6c3:	83 c8 40             	or     $0x40,%eax
 804e6c6:	c7 01 09 00 00 00    	movl   $0x9,(%ecx)
 804e6cc:	66 89 43 0c          	mov    %ax,0xc(%ebx)
 804e6d0:	b8 ff ff ff ff       	mov    $0xffffffff,%eax
 804e6d5:	e9 19 ff ff ff       	jmp    804e5f3 <__swsetup_r+0x43>
 804e6da:	66 90                	xchg   %ax,%ax
 804e6dc:	66 90                	xchg   %ax,%ax
 804e6de:	66 90                	xchg   %ax,%ax

0804e6e0 <quorem>:
 804e6e0:	55                   	push   %ebp
 804e6e1:	89 c1                	mov    %eax,%ecx
 804e6e3:	89 e5                	mov    %esp,%ebp
 804e6e5:	57                   	push   %edi
 804e6e6:	89 d7                	mov    %edx,%edi
 804e6e8:	56                   	push   %esi
 804e6e9:	53                   	push   %ebx
 804e6ea:	83 ec 3c             	sub    $0x3c,%esp
 804e6ed:	89 45 d0             	mov    %eax,-0x30(%ebp)
 804e6f0:	8b 42 10             	mov    0x10(%edx),%eax
 804e6f3:	3b 41 10             	cmp    0x10(%ecx),%eax
 804e6f6:	89 55 c8             	mov    %edx,-0x38(%ebp)
 804e6f9:	89 ca                	mov    %ecx,%edx
 804e6fb:	0f 8f 9f 01 00 00    	jg     804e8a0 <quorem+0x1c0>
 804e701:	83 e8 01             	sub    $0x1,%eax
 804e704:	83 c7 14             	add    $0x14,%edi
 804e707:	89 45 d4             	mov    %eax,-0x2c(%ebp)
 804e70a:	c1 e0 02             	shl    $0x2,%eax
 804e70d:	83 c2 14             	add    $0x14,%edx
 804e710:	8d 1c 07             	lea    (%edi,%eax,1),%ebx
 804e713:	01 d0                	add    %edx,%eax
 804e715:	89 55 d8             	mov    %edx,-0x28(%ebp)
 804e718:	8b 13                	mov    (%ebx),%edx
 804e71a:	89 45 c4             	mov    %eax,-0x3c(%ebp)
 804e71d:	8b 00                	mov    (%eax),%eax
 804e71f:	89 5d e4             	mov    %ebx,-0x1c(%ebp)
 804e722:	8d 4a 01             	lea    0x1(%edx),%ecx
 804e725:	31 d2                	xor    %edx,%edx
 804e727:	f7 f1                	div    %ecx
 804e729:	85 c0                	test   %eax,%eax
 804e72b:	89 45 e0             	mov    %eax,-0x20(%ebp)
 804e72e:	89 45 cc             	mov    %eax,-0x34(%ebp)
 804e731:	0f 84 b5 00 00 00    	je     804e7ec <quorem+0x10c>
 804e737:	8b 45 d8             	mov    -0x28(%ebp),%eax
 804e73a:	31 f6                	xor    %esi,%esi
 804e73c:	89 fa                	mov    %edi,%edx
 804e73e:	89 7d c0             	mov    %edi,-0x40(%ebp)
 804e741:	89 f7                	mov    %esi,%edi
 804e743:	c7 45 dc 00 00 00 00 	movl   $0x0,-0x24(%ebp)
 804e74a:	8d b6 00 00 00 00    	lea    0x0(%esi),%esi
 804e750:	83 c2 04             	add    $0x4,%edx
 804e753:	8b 72 fc             	mov    -0x4(%edx),%esi
 804e756:	83 c0 04             	add    $0x4,%eax
 804e759:	0f b7 ce             	movzwl %si,%ecx
 804e75c:	0f af 4d e0          	imul   -0x20(%ebp),%ecx
 804e760:	03 4d dc             	add    -0x24(%ebp),%ecx
 804e763:	c1 ee 10             	shr    $0x10,%esi
 804e766:	0f af 75 e0          	imul   -0x20(%ebp),%esi
 804e76a:	89 cb                	mov    %ecx,%ebx
 804e76c:	0f b7 c9             	movzwl %cx,%ecx
 804e76f:	c1 eb 10             	shr    $0x10,%ebx
 804e772:	29 cf                	sub    %ecx,%edi
 804e774:	01 f3                	add    %esi,%ebx
 804e776:	89 de                	mov    %ebx,%esi
 804e778:	0f b7 db             	movzwl %bx,%ebx
 804e77b:	c1 ee 10             	shr    $0x10,%esi
 804e77e:	89 75 dc             	mov    %esi,-0x24(%ebp)
 804e781:	8b 70 fc             	mov    -0x4(%eax),%esi
 804e784:	0f b7 ce             	movzwl %si,%ecx
 804e787:	01 f9                	add    %edi,%ecx
 804e789:	c1 ee 10             	shr    $0x10,%esi
 804e78c:	29 de                	sub    %ebx,%esi
 804e78e:	89 cb                	mov    %ecx,%ebx
 804e790:	c1 fb 10             	sar    $0x10,%ebx
 804e793:	0f b7 c9             	movzwl %cx,%ecx
 804e796:	01 de                	add    %ebx,%esi
 804e798:	89 f7                	mov    %esi,%edi
 804e79a:	c1 e6 10             	shl    $0x10,%esi
 804e79d:	09 ce                	or     %ecx,%esi
 804e79f:	c1 ff 10             	sar    $0x10,%edi
 804e7a2:	39 55 e4             	cmp    %edx,-0x1c(%ebp)
 804e7a5:	89 70 fc             	mov    %esi,-0x4(%eax)
 804e7a8:	73 a6                	jae    804e750 <quorem+0x70>
 804e7aa:	8b 45 c4             	mov    -0x3c(%ebp),%eax
 804e7ad:	8b 7d c0             	mov    -0x40(%ebp),%edi
 804e7b0:	8b 10                	mov    (%eax),%edx
 804e7b2:	85 d2                	test   %edx,%edx
 804e7b4:	75 36                	jne    804e7ec <quorem+0x10c>
 804e7b6:	8b 4d d8             	mov    -0x28(%ebp),%ecx
 804e7b9:	89 c2                	mov    %eax,%edx
 804e7bb:	83 e8 04             	sub    $0x4,%eax
 804e7be:	39 c1                	cmp    %eax,%ecx
 804e7c0:	73 21                	jae    804e7e3 <quorem+0x103>
 804e7c2:	8b 72 fc             	mov    -0x4(%edx),%esi
 804e7c5:	85 f6                	test   %esi,%esi
 804e7c7:	75 1a                	jne    804e7e3 <quorem+0x103>
 804e7c9:	8b 55 d4             	mov    -0x2c(%ebp),%edx
 804e7cc:	eb 08                	jmp    804e7d6 <quorem+0xf6>
 804e7ce:	66 90                	xchg   %ax,%ax
 804e7d0:	8b 18                	mov    (%eax),%ebx
 804e7d2:	85 db                	test   %ebx,%ebx
 804e7d4:	75 0a                	jne    804e7e0 <quorem+0x100>
 804e7d6:	83 e8 04             	sub    $0x4,%eax
 804e7d9:	83 ea 01             	sub    $0x1,%edx
 804e7dc:	39 c1                	cmp    %eax,%ecx
 804e7de:	72 f0                	jb     804e7d0 <quorem+0xf0>
 804e7e0:	89 55 d4             	mov    %edx,-0x2c(%ebp)
 804e7e3:	8b 45 d0             	mov    -0x30(%ebp),%eax
 804e7e6:	8b 55 d4             	mov    -0x2c(%ebp),%edx
 804e7e9:	89 50 10             	mov    %edx,0x10(%eax)
 804e7ec:	8b 45 c8             	mov    -0x38(%ebp),%eax
 804e7ef:	89 44 24 04          	mov    %eax,0x4(%esp)
 804e7f3:	8b 45 d0             	mov    -0x30(%ebp),%eax
 804e7f6:	89 04 24             	mov    %eax,(%esp)
 804e7f9:	e8 22 30 00 00       	call   8051820 <__mcmp>
 804e7fe:	85 c0                	test   %eax,%eax
 804e800:	0f 88 8e 00 00 00    	js     804e894 <quorem+0x1b4>
 804e806:	8b 45 e0             	mov    -0x20(%ebp),%eax
 804e809:	31 f6                	xor    %esi,%esi
 804e80b:	83 c0 01             	add    $0x1,%eax
 804e80e:	89 45 cc             	mov    %eax,-0x34(%ebp)
 804e811:	8b 45 d8             	mov    -0x28(%ebp),%eax
 804e814:	8d 74 26 00          	lea    0x0(%esi,%eiz,1),%esi
 804e818:	83 c7 04             	add    $0x4,%edi
 804e81b:	8b 4f fc             	mov    -0x4(%edi),%ecx
 804e81e:	83 c0 04             	add    $0x4,%eax
 804e821:	8b 58 fc             	mov    -0x4(%eax),%ebx
 804e824:	0f b7 d1             	movzwl %cx,%edx
 804e827:	29 d6                	sub    %edx,%esi
 804e829:	0f b7 d3             	movzwl %bx,%edx
 804e82c:	01 f2                	add    %esi,%edx
 804e82e:	c1 e9 10             	shr    $0x10,%ecx
 804e831:	c1 eb 10             	shr    $0x10,%ebx
 804e834:	29 cb                	sub    %ecx,%ebx
 804e836:	89 d1                	mov    %edx,%ecx
 804e838:	c1 f9 10             	sar    $0x10,%ecx
 804e83b:	0f b7 d2             	movzwl %dx,%edx
 804e83e:	01 cb                	add    %ecx,%ebx
 804e840:	89 de                	mov    %ebx,%esi
 804e842:	c1 e3 10             	shl    $0x10,%ebx
 804e845:	09 d3                	or     %edx,%ebx
 804e847:	c1 fe 10             	sar    $0x10,%esi
 804e84a:	39 7d e4             	cmp    %edi,-0x1c(%ebp)
 804e84d:	89 58 fc             	mov    %ebx,-0x4(%eax)
 804e850:	73 c6                	jae    804e818 <quorem+0x138>
 804e852:	8b 45 d8             	mov    -0x28(%ebp),%eax
 804e855:	8b 7d d4             	mov    -0x2c(%ebp),%edi
 804e858:	8d 14 b8             	lea    (%eax,%edi,4),%edx
 804e85b:	8b 02                	mov    (%edx),%eax
 804e85d:	85 c0                	test   %eax,%eax
 804e85f:	75 33                	jne    804e894 <quorem+0x1b4>
 804e861:	8b 4d d8             	mov    -0x28(%ebp),%ecx
 804e864:	8d 42 fc             	lea    -0x4(%edx),%eax
 804e867:	39 c1                	cmp    %eax,%ecx
 804e869:	73 20                	jae    804e88b <quorem+0x1ab>
 804e86b:	8b 72 fc             	mov    -0x4(%edx),%esi
 804e86e:	85 f6                	test   %esi,%esi
 804e870:	75 19                	jne    804e88b <quorem+0x1ab>
 804e872:	89 fa                	mov    %edi,%edx
 804e874:	eb 08                	jmp    804e87e <quorem+0x19e>
 804e876:	66 90                	xchg   %ax,%ax
 804e878:	8b 18                	mov    (%eax),%ebx
 804e87a:	85 db                	test   %ebx,%ebx
 804e87c:	75 0a                	jne    804e888 <quorem+0x1a8>
 804e87e:	83 e8 04             	sub    $0x4,%eax
 804e881:	83 ea 01             	sub    $0x1,%edx
 804e884:	39 c1                	cmp    %eax,%ecx
 804e886:	72 f0                	jb     804e878 <quorem+0x198>
 804e888:	89 55 d4             	mov    %edx,-0x2c(%ebp)
 804e88b:	8b 45 d0             	mov    -0x30(%ebp),%eax
 804e88e:	8b 7d d4             	mov    -0x2c(%ebp),%edi
 804e891:	89 78 10             	mov    %edi,0x10(%eax)
 804e894:	8b 45 cc             	mov    -0x34(%ebp),%eax
 804e897:	83 c4 3c             	add    $0x3c,%esp
 804e89a:	5b                   	pop    %ebx
 804e89b:	5e                   	pop    %esi
 804e89c:	5f                   	pop    %edi
 804e89d:	5d                   	pop    %ebp
 804e89e:	c3                   	ret    
 804e89f:	90                   	nop
 804e8a0:	83 c4 3c             	add    $0x3c,%esp
 804e8a3:	31 c0                	xor    %eax,%eax
 804e8a5:	5b                   	pop    %ebx
 804e8a6:	5e                   	pop    %esi
 804e8a7:	5f                   	pop    %edi
 804e8a8:	5d                   	pop    %ebp
 804e8a9:	c3                   	ret    
 804e8aa:	8d b6 00 00 00 00    	lea    0x0(%esi),%esi

0804e8b0 <_dtoa_r>:
 804e8b0:	55                   	push   %ebp
 804e8b1:	89 e5                	mov    %esp,%ebp
 804e8b3:	57                   	push   %edi
 804e8b4:	56                   	push   %esi
 804e8b5:	53                   	push   %ebx
 804e8b6:	81 ec 8c 00 00 00    	sub    $0x8c,%esp
 804e8bc:	8b 75 08             	mov    0x8(%ebp),%esi
 804e8bf:	dd 45 0c             	fldl   0xc(%ebp)
 804e8c2:	8b 5d 20             	mov    0x20(%ebp),%ebx
 804e8c5:	dd 5d c0             	fstpl  -0x40(%ebp)
 804e8c8:	8b 46 40             	mov    0x40(%esi),%eax
 804e8cb:	85 c0                	test   %eax,%eax
 804e8cd:	74 23                	je     804e8f2 <_dtoa_r+0x42>
 804e8cf:	8b 4e 44             	mov    0x44(%esi),%ecx
 804e8d2:	ba 01 00 00 00       	mov    $0x1,%edx
 804e8d7:	d3 e2                	shl    %cl,%edx
 804e8d9:	89 48 04             	mov    %ecx,0x4(%eax)
 804e8dc:	89 50 08             	mov    %edx,0x8(%eax)
 804e8df:	89 44 24 04          	mov    %eax,0x4(%esp)
 804e8e3:	89 34 24             	mov    %esi,(%esp)
 804e8e6:	e8 15 28 00 00       	call   8051100 <_Bfree>
 804e8eb:	c7 46 40 00 00 00 00 	movl   $0x0,0x40(%esi)
 804e8f2:	8b 7d c4             	mov    -0x3c(%ebp),%edi
 804e8f5:	85 ff                	test   %edi,%edi
 804e8f7:	0f 88 3b 02 00 00    	js     804eb38 <_dtoa_r+0x288>
 804e8fd:	c7 03 00 00 00 00    	movl   $0x0,(%ebx)
 804e903:	89 f8                	mov    %edi,%eax
 804e905:	25 00 00 f0 7f       	and    $0x7ff00000,%eax
 804e90a:	3d 00 00 f0 7f       	cmp    $0x7ff00000,%eax
 804e90f:	0f 84 e3 01 00 00    	je     804eaf8 <_dtoa_r+0x248>
 804e915:	dd 45 c0             	fldl   -0x40(%ebp)
 804e918:	d9 ee                	fldz   
 804e91a:	d9 c9                	fxch   %st(1)
 804e91c:	db e9                	fucomi %st(1),%st
 804e91e:	dd d9                	fstp   %st(1)
 804e920:	7a 36                	jp     804e958 <_dtoa_r+0xa8>
 804e922:	75 34                	jne    804e958 <_dtoa_r+0xa8>
 804e924:	dd d8                	fstp   %st(0)
 804e926:	8b 4d 24             	mov    0x24(%ebp),%ecx
 804e929:	8b 45 1c             	mov    0x1c(%ebp),%eax
 804e92c:	85 c9                	test   %ecx,%ecx
 804e92e:	c7 00 01 00 00 00    	movl   $0x1,(%eax)
 804e934:	0f 84 4e 02 00 00    	je     804eb88 <_dtoa_r+0x2d8>
 804e93a:	8b 45 24             	mov    0x24(%ebp),%eax
 804e93d:	c7 00 d2 64 05 08    	movl   $0x80564d2,(%eax)
 804e943:	b8 d1 64 05 08       	mov    $0x80564d1,%eax
 804e948:	81 c4 8c 00 00 00    	add    $0x8c,%esp
 804e94e:	5b                   	pop    %ebx
 804e94f:	5e                   	pop    %esi
 804e950:	5f                   	pop    %edi
 804e951:	5d                   	pop    %ebp
 804e952:	c3                   	ret    
 804e953:	90                   	nop
 804e954:	8d 74 26 00          	lea    0x0(%esi,%eiz,1),%esi
 804e958:	8d 45 e0             	lea    -0x20(%ebp),%eax
 804e95b:	89 fb                	mov    %edi,%ebx
 804e95d:	89 44 24 10          	mov    %eax,0x10(%esp)
 804e961:	8d 45 e4             	lea    -0x1c(%ebp),%eax
 804e964:	dd 54 24 04          	fstl   0x4(%esp)
 804e968:	89 44 24 0c          	mov    %eax,0xc(%esp)
 804e96c:	dd 5d b8             	fstpl  -0x48(%ebp)
 804e96f:	89 34 24             	mov    %esi,(%esp)
 804e972:	c1 eb 14             	shr    $0x14,%ebx
 804e975:	e8 f6 31 00 00       	call   8051b70 <__d2b>
 804e97a:	85 db                	test   %ebx,%ebx
 804e97c:	89 45 a4             	mov    %eax,-0x5c(%ebp)
 804e97f:	0f 85 db 01 00 00    	jne    804eb60 <_dtoa_r+0x2b0>
 804e985:	8b 45 e0             	mov    -0x20(%ebp),%eax
 804e988:	8b 5d e4             	mov    -0x1c(%ebp),%ebx
 804e98b:	89 45 b4             	mov    %eax,-0x4c(%ebp)
 804e98e:	01 c3                	add    %eax,%ebx
 804e990:	81 fb ef fb ff ff    	cmp    $0xfffffbef,%ebx
 804e996:	0f 8c ec 07 00 00    	jl     804f188 <_dtoa_r+0x8d8>
 804e99c:	8b 55 c0             	mov    -0x40(%ebp),%edx
 804e99f:	b9 0e fc ff ff       	mov    $0xfffffc0e,%ecx
 804e9a4:	89 f8                	mov    %edi,%eax
 804e9a6:	29 d9                	sub    %ebx,%ecx
 804e9a8:	d3 e0                	shl    %cl,%eax
 804e9aa:	8d 8b 12 04 00 00    	lea    0x412(%ebx),%ecx
 804e9b0:	d3 ea                	shr    %cl,%edx
 804e9b2:	09 d0                	or     %edx,%eax
 804e9b4:	31 d2                	xor    %edx,%edx
 804e9b6:	83 eb 01             	sub    $0x1,%ebx
 804e9b9:	89 55 cc             	mov    %edx,-0x34(%ebp)
 804e9bc:	8b 55 b4             	mov    -0x4c(%ebp),%edx
 804e9bf:	89 45 c8             	mov    %eax,-0x38(%ebp)
 804e9c2:	df 6d c8             	fildll -0x38(%ebp)
 804e9c5:	dd 5d b8             	fstpl  -0x48(%ebp)
 804e9c8:	81 6d bc 00 00 f0 01 	subl   $0x1f00000,-0x44(%ebp)
 804e9cf:	c7 45 8c 01 00 00 00 	movl   $0x1,-0x74(%ebp)
 804e9d6:	dd 45 b8             	fldl   -0x48(%ebp)
 804e9d9:	d8 25 ec 67 05 08    	fsubs  0x80567ec
 804e9df:	89 5d d4             	mov    %ebx,-0x2c(%ebp)
 804e9e2:	d9 7d d2             	fnstcw -0x2e(%ebp)
 804e9e5:	dc 0d 08 68 05 08    	fmull  0x8056808
 804e9eb:	0f b7 45 d2          	movzwl -0x2e(%ebp),%eax
 804e9ef:	b4 0c                	mov    $0xc,%ah
 804e9f1:	dc 05 10 68 05 08    	faddl  0x8056810
 804e9f7:	66 89 45 d0          	mov    %ax,-0x30(%ebp)
 804e9fb:	db 45 d4             	fildl  -0x2c(%ebp)
 804e9fe:	dc 0d 18 68 05 08    	fmull  0x8056818
 804ea04:	de c1                	faddp  %st,%st(1)
 804ea06:	d9 6d d0             	fldcw  -0x30(%ebp)
 804ea09:	db 55 b8             	fistl  -0x48(%ebp)
 804ea0c:	d9 6d d2             	fldcw  -0x2e(%ebp)
 804ea0f:	d9 ee                	fldz   
 804ea11:	df e9                	fucomip %st(1),%st
 804ea13:	0f 87 27 07 00 00    	ja     804f140 <_dtoa_r+0x890>
 804ea19:	dd d8                	fstp   %st(0)
 804ea1b:	83 7d b8 16          	cmpl   $0x16,-0x48(%ebp)
 804ea1f:	c7 45 9c 01 00 00 00 	movl   $0x1,-0x64(%ebp)
 804ea26:	77 24                	ja     804ea4c <_dtoa_r+0x19c>
 804ea28:	8b 45 b8             	mov    -0x48(%ebp),%eax
 804ea2b:	dd 04 c5 e0 68 05 08 	fldl   0x80568e0(,%eax,8)
 804ea32:	dd 45 c0             	fldl   -0x40(%ebp)
 804ea35:	d9 c9                	fxch   %st(1)
 804ea37:	df e9                	fucomip %st(1),%st
 804ea39:	dd d8                	fstp   %st(0)
 804ea3b:	0f 86 5f 07 00 00    	jbe    804f1a0 <_dtoa_r+0x8f0>
 804ea41:	83 6d b8 01          	subl   $0x1,-0x48(%ebp)
 804ea45:	c7 45 9c 00 00 00 00 	movl   $0x0,-0x64(%ebp)
 804ea4c:	89 d0                	mov    %edx,%eax
 804ea4e:	29 d8                	sub    %ebx,%eax
 804ea50:	83 e8 01             	sub    $0x1,%eax
 804ea53:	c7 45 a0 00 00 00 00 	movl   $0x0,-0x60(%ebp)
 804ea5a:	89 45 ac             	mov    %eax,-0x54(%ebp)
 804ea5d:	0f 88 0d 07 00 00    	js     804f170 <_dtoa_r+0x8c0>
 804ea63:	8b 45 b8             	mov    -0x48(%ebp),%eax
 804ea66:	85 c0                	test   %eax,%eax
 804ea68:	0f 88 ea 06 00 00    	js     804f158 <_dtoa_r+0x8a8>
 804ea6e:	01 45 ac             	add    %eax,-0x54(%ebp)
 804ea71:	89 45 94             	mov    %eax,-0x6c(%ebp)
 804ea74:	c7 45 b0 00 00 00 00 	movl   $0x0,-0x50(%ebp)
 804ea7b:	83 7d 14 09          	cmpl   $0x9,0x14(%ebp)
 804ea7f:	0f 87 0b 03 00 00    	ja     804ed90 <_dtoa_r+0x4e0>
 804ea85:	83 7d 14 05          	cmpl   $0x5,0x14(%ebp)
 804ea89:	0f 8e 23 10 00 00    	jle    804fab2 <_dtoa_r+0x1202>
 804ea8f:	83 6d 14 04          	subl   $0x4,0x14(%ebp)
 804ea93:	31 c0                	xor    %eax,%eax
 804ea95:	83 7d 14 03          	cmpl   $0x3,0x14(%ebp)
 804ea99:	0f 84 43 0d 00 00    	je     804f7e2 <_dtoa_r+0xf32>
 804ea9f:	0f 8e f3 00 00 00    	jle    804eb98 <_dtoa_r+0x2e8>
 804eaa5:	83 7d 14 04          	cmpl   $0x4,0x14(%ebp)
 804eaa9:	c7 45 98 01 00 00 00 	movl   $0x1,-0x68(%ebp)
 804eab0:	0f 84 f3 00 00 00    	je     804eba9 <_dtoa_r+0x2f9>
 804eab6:	83 7d 14 05          	cmpl   $0x5,0x14(%ebp)
 804eaba:	0f 85 d7 02 00 00    	jne    804ed97 <_dtoa_r+0x4e7>
 804eac0:	8b 5d b8             	mov    -0x48(%ebp),%ebx
 804eac3:	03 5d 18             	add    0x18(%ebp),%ebx
 804eac6:	89 5d 90             	mov    %ebx,-0x70(%ebp)
 804eac9:	83 c3 01             	add    $0x1,%ebx
 804eacc:	83 fb 0e             	cmp    $0xe,%ebx
 804eacf:	0f 96 c2             	setbe  %dl
 804ead2:	85 db                	test   %ebx,%ebx
 804ead4:	89 5d a8             	mov    %ebx,-0x58(%ebp)
 804ead7:	0f 8e a7 08 00 00    	jle    804f384 <_dtoa_r+0xad4>
 804eadd:	8b 5d a8             	mov    -0x58(%ebp),%ebx
 804eae0:	83 fb 0e             	cmp    $0xe,%ebx
 804eae3:	89 df                	mov    %ebx,%edi
 804eae5:	0f 96 45 b4          	setbe  -0x4c(%ebp)
 804eae9:	20 45 b4             	and    %al,-0x4c(%ebp)
 804eaec:	e9 d6 00 00 00       	jmp    804ebc7 <_dtoa_r+0x317>
 804eaf1:	8d b4 26 00 00 00 00 	lea    0x0(%esi,%eiz,1),%esi
 804eaf8:	8b 55 c0             	mov    -0x40(%ebp),%edx
 804eafb:	8b 45 1c             	mov    0x1c(%ebp),%eax
 804eafe:	85 d2                	test   %edx,%edx
 804eb00:	c7 00 0f 27 00 00    	movl   $0x270f,(%eax)
 804eb06:	b8 e5 67 05 08       	mov    $0x80567e5,%eax
 804eb0b:	74 43                	je     804eb50 <_dtoa_r+0x2a0>
 804eb0d:	8b 5d 24             	mov    0x24(%ebp),%ebx
 804eb10:	85 db                	test   %ebx,%ebx
 804eb12:	0f 84 30 fe ff ff    	je     804e948 <_dtoa_r+0x98>
 804eb18:	8b 75 24             	mov    0x24(%ebp),%esi
 804eb1b:	8d 50 08             	lea    0x8(%eax),%edx
 804eb1e:	80 78 03 00          	cmpb   $0x0,0x3(%eax)
 804eb22:	8d 48 03             	lea    0x3(%eax),%ecx
 804eb25:	0f 44 d1             	cmove  %ecx,%edx
 804eb28:	89 16                	mov    %edx,(%esi)
 804eb2a:	81 c4 8c 00 00 00    	add    $0x8c,%esp
 804eb30:	5b                   	pop    %ebx
 804eb31:	5e                   	pop    %esi
 804eb32:	5f                   	pop    %edi
 804eb33:	5d                   	pop    %ebp
 804eb34:	c3                   	ret    
 804eb35:	8d 76 00             	lea    0x0(%esi),%esi
 804eb38:	81 e7 ff ff ff 7f    	and    $0x7fffffff,%edi
 804eb3e:	c7 03 01 00 00 00    	movl   $0x1,(%ebx)
 804eb44:	89 7d c4             	mov    %edi,-0x3c(%ebp)
 804eb47:	e9 b7 fd ff ff       	jmp    804e903 <_dtoa_r+0x53>
 804eb4c:	8d 74 26 00          	lea    0x0(%esi,%eiz,1),%esi
 804eb50:	81 e7 ff ff 0f 00    	and    $0xfffff,%edi
 804eb56:	ba dc 67 05 08       	mov    $0x80567dc,%edx
 804eb5b:	0f 44 c2             	cmove  %edx,%eax
 804eb5e:	eb ad                	jmp    804eb0d <_dtoa_r+0x25d>
 804eb60:	8b 45 bc             	mov    -0x44(%ebp),%eax
 804eb63:	81 eb ff 03 00 00    	sub    $0x3ff,%ebx
 804eb69:	8b 55 e0             	mov    -0x20(%ebp),%edx
 804eb6c:	c7 45 8c 00 00 00 00 	movl   $0x0,-0x74(%ebp)
 804eb73:	25 ff ff 0f 00       	and    $0xfffff,%eax
 804eb78:	0d 00 00 f0 3f       	or     $0x3ff00000,%eax
 804eb7d:	89 45 bc             	mov    %eax,-0x44(%ebp)
 804eb80:	e9 51 fe ff ff       	jmp    804e9d6 <_dtoa_r+0x126>
 804eb85:	8d 76 00             	lea    0x0(%esi),%esi
 804eb88:	b8 d1 64 05 08       	mov    $0x80564d1,%eax
 804eb8d:	e9 b6 fd ff ff       	jmp    804e948 <_dtoa_r+0x98>
 804eb92:	8d b6 00 00 00 00    	lea    0x0(%esi),%esi
 804eb98:	83 7d 14 02          	cmpl   $0x2,0x14(%ebp)
 804eb9c:	c7 45 98 00 00 00 00 	movl   $0x0,-0x68(%ebp)
 804eba3:	0f 85 ee 01 00 00    	jne    804ed97 <_dtoa_r+0x4e7>
 804eba9:	8b 55 18             	mov    0x18(%ebp),%edx
 804ebac:	85 d2                	test   %edx,%edx
 804ebae:	0f 8e b6 07 00 00    	jle    804f36a <_dtoa_r+0xaba>
 804ebb4:	8b 7d 18             	mov    0x18(%ebp),%edi
 804ebb7:	83 ff 0e             	cmp    $0xe,%edi
 804ebba:	0f 96 45 b4          	setbe  -0x4c(%ebp)
 804ebbe:	20 45 b4             	and    %al,-0x4c(%ebp)
 804ebc1:	89 7d 90             	mov    %edi,-0x70(%ebp)
 804ebc4:	89 7d a8             	mov    %edi,-0x58(%ebp)
 804ebc7:	83 ff 17             	cmp    $0x17,%edi
 804ebca:	c7 46 44 00 00 00 00 	movl   $0x0,0x44(%esi)
 804ebd1:	0f 86 e5 0e 00 00    	jbe    804fabc <_dtoa_r+0x120c>
 804ebd7:	b9 01 00 00 00       	mov    $0x1,%ecx
 804ebdc:	b8 04 00 00 00       	mov    $0x4,%eax
 804ebe1:	8d b4 26 00 00 00 00 	lea    0x0(%esi,%eiz,1),%esi
 804ebe8:	01 c0                	add    %eax,%eax
 804ebea:	89 ca                	mov    %ecx,%edx
 804ebec:	8d 58 14             	lea    0x14(%eax),%ebx
 804ebef:	39 fb                	cmp    %edi,%ebx
 804ebf1:	8d 49 01             	lea    0x1(%ecx),%ecx
 804ebf4:	76 f2                	jbe    804ebe8 <_dtoa_r+0x338>
 804ebf6:	89 56 44             	mov    %edx,0x44(%esi)
 804ebf9:	89 54 24 04          	mov    %edx,0x4(%esp)
 804ebfd:	89 34 24             	mov    %esi,(%esp)
 804ec00:	e8 5b 24 00 00       	call   8051060 <_Balloc>
 804ec05:	80 7d b4 00          	cmpb   $0x0,-0x4c(%ebp)
 804ec09:	89 c7                	mov    %eax,%edi
 804ec0b:	89 46 40             	mov    %eax,0x40(%esi)
 804ec0e:	0f 84 bb 01 00 00    	je     804edcf <_dtoa_r+0x51f>
 804ec14:	8b 5d b8             	mov    -0x48(%ebp),%ebx
 804ec17:	dd 45 c0             	fldl   -0x40(%ebp)
 804ec1a:	85 db                	test   %ebx,%ebx
 804ec1c:	0f 8e de 07 00 00    	jle    804f400 <_dtoa_r+0xb50>
 804ec22:	89 d8                	mov    %ebx,%eax
 804ec24:	83 e0 0f             	and    $0xf,%eax
 804ec27:	dd 04 c5 e0 68 05 08 	fldl   0x80568e0(,%eax,8)
 804ec2e:	89 d8                	mov    %ebx,%eax
 804ec30:	c1 f8 04             	sar    $0x4,%eax
 804ec33:	a8 10                	test   $0x10,%al
 804ec35:	0f 84 cd 05 00 00    	je     804f208 <_dtoa_r+0x958>
 804ec3b:	dd 05 c0 68 05 08    	fldl   0x80568c0
 804ec41:	83 e0 0f             	and    $0xf,%eax
 804ec44:	b9 03 00 00 00       	mov    $0x3,%ecx
 804ec49:	d8 fa                	fdivr  %st(2),%st
 804ec4b:	85 c0                	test   %eax,%eax
 804ec4d:	74 22                	je     804ec71 <_dtoa_r+0x3c1>
 804ec4f:	31 d2                	xor    %edx,%edx
 804ec51:	8d b4 26 00 00 00 00 	lea    0x0(%esi,%eiz,1),%esi
 804ec58:	a8 01                	test   $0x1,%al
 804ec5a:	74 0e                	je     804ec6a <_dtoa_r+0x3ba>
 804ec5c:	d9 c9                	fxch   %st(1)
 804ec5e:	dc 0c d5 a0 68 05 08 	fmull  0x80568a0(,%edx,8)
 804ec65:	d9 c9                	fxch   %st(1)
 804ec67:	83 c1 01             	add    $0x1,%ecx
 804ec6a:	83 c2 01             	add    $0x1,%edx
 804ec6d:	d1 f8                	sar    %eax
 804ec6f:	75 e7                	jne    804ec58 <_dtoa_r+0x3a8>
 804ec71:	de f1                	fdivp  %st,%st(1)
 804ec73:	8b 45 9c             	mov    -0x64(%ebp),%eax
 804ec76:	85 c0                	test   %eax,%eax
 804ec78:	74 0a                	je     804ec84 <_dtoa_r+0x3d4>
 804ec7a:	d9 e8                	fld1   
 804ec7c:	df e9                	fucomip %st(1),%st
 804ec7e:	0f 87 92 0b 00 00    	ja     804f816 <_dtoa_r+0xf66>
 804ec84:	89 4d d4             	mov    %ecx,-0x2c(%ebp)
 804ec87:	8b 45 a8             	mov    -0x58(%ebp),%eax
 804ec8a:	db 45 d4             	fildl  -0x2c(%ebp)
 804ec8d:	d8 c9                	fmul   %st(1),%st
 804ec8f:	d8 05 f8 67 05 08    	fadds  0x80567f8
 804ec95:	dd 5d c0             	fstpl  -0x40(%ebp)
 804ec98:	81 6d c4 00 00 40 03 	subl   $0x3400000,-0x3c(%ebp)
 804ec9f:	85 c0                	test   %eax,%eax
 804eca1:	0f 84 89 05 00 00    	je     804f230 <_dtoa_r+0x980>
 804eca7:	8b 45 b8             	mov    -0x48(%ebp),%eax
 804ecaa:	8b 4d a8             	mov    -0x58(%ebp),%ecx
 804ecad:	89 45 b4             	mov    %eax,-0x4c(%ebp)
 804ecb0:	8b 45 98             	mov    -0x68(%ebp),%eax
 804ecb3:	85 c0                	test   %eax,%eax
 804ecb5:	0f 84 b5 07 00 00    	je     804f470 <_dtoa_r+0xbc0>
 804ecbb:	d9 05 00 68 05 08    	flds   0x8056800
 804ecc1:	8d 57 01             	lea    0x1(%edi),%edx
 804ecc4:	dc 34 cd d8 68 05 08 	fdivl  0x80568d8(,%ecx,8)
 804eccb:	d9 7d d2             	fnstcw -0x2e(%ebp)
 804ecce:	0f b7 45 d2          	movzwl -0x2e(%ebp),%eax
 804ecd2:	b4 0c                	mov    $0xc,%ah
 804ecd4:	66 89 45 d0          	mov    %ax,-0x30(%ebp)
 804ecd8:	dc 65 c0             	fsubl  -0x40(%ebp)
 804ecdb:	d9 c9                	fxch   %st(1)
 804ecdd:	d9 6d d0             	fldcw  -0x30(%ebp)
 804ece0:	db 55 d4             	fistl  -0x2c(%ebp)
 804ece3:	d9 6d d2             	fldcw  -0x2e(%ebp)
 804ece6:	8b 45 d4             	mov    -0x2c(%ebp),%eax
 804ece9:	89 45 d4             	mov    %eax,-0x2c(%ebp)
 804ecec:	83 c0 30             	add    $0x30,%eax
 804ecef:	db 45 d4             	fildl  -0x2c(%ebp)
 804ecf2:	de e9                	fsubrp %st,%st(1)
 804ecf4:	d9 c9                	fxch   %st(1)
 804ecf6:	88 07                	mov    %al,(%edi)
 804ecf8:	db e9                	fucomi %st(1),%st
 804ecfa:	77 7f                	ja     804ed7b <_dtoa_r+0x4cb>
 804ecfc:	d9 c1                	fld    %st(1)
 804ecfe:	d8 2d f0 67 05 08    	fsubrs 0x80567f0
 804ed04:	d9 c9                	fxch   %st(1)
 804ed06:	db e9                	fucomi %st(1),%st
 804ed08:	dd d9                	fstp   %st(1)
 804ed0a:	0f 87 33 0c 00 00    	ja     804f943 <_dtoa_r+0x1093>
 804ed10:	83 f9 01             	cmp    $0x1,%ecx
 804ed13:	0f 8e c4 06 00 00    	jle    804f3dd <_dtoa_r+0xb2d>
 804ed19:	01 f9                	add    %edi,%ecx
 804ed1b:	d9 05 f4 67 05 08    	flds   0x80567f4
 804ed21:	eb 25                	jmp    804ed48 <_dtoa_r+0x498>
 804ed23:	90                   	nop
 804ed24:	8d 74 26 00          	lea    0x0(%esi,%eiz,1),%esi
 804ed28:	d9 c1                	fld    %st(1)
 804ed2a:	d8 2d f0 67 05 08    	fsubrs 0x80567f0
 804ed30:	d9 c9                	fxch   %st(1)
 804ed32:	db e9                	fucomi %st(1),%st
 804ed34:	dd d9                	fstp   %st(1)
 804ed36:	0f 87 14 0c 00 00    	ja     804f950 <_dtoa_r+0x10a0>
 804ed3c:	39 ca                	cmp    %ecx,%edx
 804ed3e:	0f 84 a4 06 00 00    	je     804f3e8 <_dtoa_r+0xb38>
 804ed44:	d9 c9                	fxch   %st(1)
 804ed46:	d9 ca                	fxch   %st(2)
 804ed48:	dc c9                	fmul   %st,%st(1)
 804ed4a:	83 c2 01             	add    $0x1,%edx
 804ed4d:	dc ca                	fmul   %st,%st(2)
 804ed4f:	d9 ca                	fxch   %st(2)
 804ed51:	d9 6d d0             	fldcw  -0x30(%ebp)
 804ed54:	db 55 d4             	fistl  -0x2c(%ebp)
 804ed57:	d9 6d d2             	fldcw  -0x2e(%ebp)
 804ed5a:	8b 45 d4             	mov    -0x2c(%ebp),%eax
 804ed5d:	89 45 d4             	mov    %eax,-0x2c(%ebp)
 804ed60:	83 c0 30             	add    $0x30,%eax
 804ed63:	db 45 d4             	fildl  -0x2c(%ebp)
 804ed66:	de e9                	fsubrp %st,%st(1)
 804ed68:	d9 c9                	fxch   %st(1)
 804ed6a:	88 42 ff             	mov    %al,-0x1(%edx)
 804ed6d:	db e9                	fucomi %st(1),%st
 804ed6f:	76 b7                	jbe    804ed28 <_dtoa_r+0x478>
 804ed71:	dd d8                	fstp   %st(0)
 804ed73:	dd d8                	fstp   %st(0)
 804ed75:	dd d8                	fstp   %st(0)
 804ed77:	dd d8                	fstp   %st(0)
 804ed79:	eb 06                	jmp    804ed81 <_dtoa_r+0x4d1>
 804ed7b:	dd d8                	fstp   %st(0)
 804ed7d:	dd d8                	fstp   %st(0)
 804ed7f:	dd d8                	fstp   %st(0)
 804ed81:	8b 45 b4             	mov    -0x4c(%ebp),%eax
 804ed84:	89 fb                	mov    %edi,%ebx
 804ed86:	89 d7                	mov    %edx,%edi
 804ed88:	89 45 b8             	mov    %eax,-0x48(%ebp)
 804ed8b:	e9 70 03 00 00       	jmp    804f100 <_dtoa_r+0x850>
 804ed90:	c7 45 14 00 00 00 00 	movl   $0x0,0x14(%ebp)
 804ed97:	c7 46 44 00 00 00 00 	movl   $0x0,0x44(%esi)
 804ed9e:	c7 44 24 04 00 00 00 	movl   $0x0,0x4(%esp)
 804eda5:	00 
 804eda6:	89 34 24             	mov    %esi,(%esp)
 804eda9:	e8 b2 22 00 00       	call   8051060 <_Balloc>
 804edae:	c7 45 98 01 00 00 00 	movl   $0x1,-0x68(%ebp)
 804edb5:	c7 45 a8 ff ff ff ff 	movl   $0xffffffff,-0x58(%ebp)
 804edbc:	c7 45 90 ff ff ff ff 	movl   $0xffffffff,-0x70(%ebp)
 804edc3:	c7 45 18 00 00 00 00 	movl   $0x0,0x18(%ebp)
 804edca:	89 c7                	mov    %eax,%edi
 804edcc:	89 46 40             	mov    %eax,0x40(%esi)
 804edcf:	8b 45 e4             	mov    -0x1c(%ebp),%eax
 804edd2:	85 c0                	test   %eax,%eax
 804edd4:	0f 88 2e 01 00 00    	js     804ef08 <_dtoa_r+0x658>
 804edda:	83 7d b8 0e          	cmpl   $0xe,-0x48(%ebp)
 804edde:	0f 8f 24 01 00 00    	jg     804ef08 <_dtoa_r+0x658>
 804ede4:	8b 45 b8             	mov    -0x48(%ebp),%eax
 804ede7:	dd 04 c5 e0 68 05 08 	fldl   0x80568e0(,%eax,8)
 804edee:	8b 45 a8             	mov    -0x58(%ebp),%eax
 804edf1:	85 c0                	test   %eax,%eax
 804edf3:	7f 0e                	jg     804ee03 <_dtoa_r+0x553>
 804edf5:	8b 45 18             	mov    0x18(%ebp),%eax
 804edf8:	c1 e8 1f             	shr    $0x1f,%eax
 804edfb:	84 c0                	test   %al,%al
 804edfd:	0f 85 9d 07 00 00    	jne    804f5a0 <_dtoa_r+0xcf0>
 804ee03:	dd 45 c0             	fldl   -0x40(%ebp)
 804ee06:	d9 c0                	fld    %st(0)
 804ee08:	d8 f2                	fdiv   %st(2),%st
 804ee0a:	d9 7d d2             	fnstcw -0x2e(%ebp)
 804ee0d:	83 7d a8 01          	cmpl   $0x1,-0x58(%ebp)
 804ee11:	0f b7 45 d2          	movzwl -0x2e(%ebp),%eax
 804ee15:	b4 0c                	mov    $0xc,%ah
 804ee17:	66 89 45 d0          	mov    %ax,-0x30(%ebp)
 804ee1b:	8d 47 01             	lea    0x1(%edi),%eax
 804ee1e:	89 45 c0             	mov    %eax,-0x40(%ebp)
 804ee21:	d9 6d d0             	fldcw  -0x30(%ebp)
 804ee24:	db 5d d4             	fistpl -0x2c(%ebp)
 804ee27:	d9 6d d2             	fldcw  -0x2e(%ebp)
 804ee2a:	8b 55 d4             	mov    -0x2c(%ebp),%edx
 804ee2d:	89 55 d4             	mov    %edx,-0x2c(%ebp)
 804ee30:	8d 42 30             	lea    0x30(%edx),%eax
 804ee33:	db 45 d4             	fildl  -0x2c(%ebp)
 804ee36:	d8 ca                	fmul   %st(2),%st
 804ee38:	88 07                	mov    %al,(%edi)
 804ee3a:	de e9                	fsubrp %st,%st(1)
 804ee3c:	74 66                	je     804eea4 <_dtoa_r+0x5f4>
 804ee3e:	d8 0d f4 67 05 08    	fmuls  0x80567f4
 804ee44:	d9 ee                	fldz   
 804ee46:	d9 c9                	fxch   %st(1)
 804ee48:	db e9                	fucomi %st(1),%st
 804ee4a:	dd d9                	fstp   %st(1)
 804ee4c:	0f 8b 33 0c 00 00    	jnp    804fa85 <_dtoa_r+0x11d5>
 804ee52:	8b 5d a8             	mov    -0x58(%ebp),%ebx
 804ee55:	8d 47 02             	lea    0x2(%edi),%eax
 804ee58:	d9 05 f4 67 05 08    	flds   0x80567f4
 804ee5e:	01 fb                	add    %edi,%ebx
 804ee60:	eb 19                	jmp    804ee7b <_dtoa_r+0x5cb>
 804ee62:	8d b6 00 00 00 00    	lea    0x0(%esi),%esi
 804ee68:	dc c9                	fmul   %st,%st(1)
 804ee6a:	83 c0 01             	add    $0x1,%eax
 804ee6d:	d9 ee                	fldz   
 804ee6f:	d9 ca                	fxch   %st(2)
 804ee71:	db ea                	fucomi %st(2),%st
 804ee73:	dd da                	fstp   %st(2)
 804ee75:	0f 8b 73 09 00 00    	jnp    804f7ee <_dtoa_r+0xf3e>
 804ee7b:	d9 c1                	fld    %st(1)
 804ee7d:	39 d8                	cmp    %ebx,%eax
 804ee7f:	d8 f3                	fdiv   %st(3),%st
 804ee81:	89 45 c0             	mov    %eax,-0x40(%ebp)
 804ee84:	d9 6d d0             	fldcw  -0x30(%ebp)
 804ee87:	db 5d d4             	fistpl -0x2c(%ebp)
 804ee8a:	d9 6d d2             	fldcw  -0x2e(%ebp)
 804ee8d:	8b 55 d4             	mov    -0x2c(%ebp),%edx
 804ee90:	89 55 d4             	mov    %edx,-0x2c(%ebp)
 804ee93:	8d 4a 30             	lea    0x30(%edx),%ecx
 804ee96:	db 45 d4             	fildl  -0x2c(%ebp)
 804ee99:	d8 cb                	fmul   %st(3),%st
 804ee9b:	88 48 ff             	mov    %cl,-0x1(%eax)
 804ee9e:	de ea                	fsubrp %st,%st(2)
 804eea0:	75 c6                	jne    804ee68 <_dtoa_r+0x5b8>
 804eea2:	dd d8                	fstp   %st(0)
 804eea4:	d8 c0                	fadd   %st(0),%st
 804eea6:	db e9                	fucomi %st(1),%st
 804eea8:	77 1e                	ja     804eec8 <_dtoa_r+0x618>
 804eeaa:	d9 c9                	fxch   %st(1)
 804eeac:	df e9                	fucomip %st(1),%st
 804eeae:	dd d8                	fstp   %st(0)
 804eeb0:	0f 8a 44 09 00 00    	jp     804f7fa <_dtoa_r+0xf4a>
 804eeb6:	0f 85 3e 09 00 00    	jne    804f7fa <_dtoa_r+0xf4a>
 804eebc:	83 e2 01             	and    $0x1,%edx
 804eebf:	90                   	nop
 804eec0:	0f 84 34 09 00 00    	je     804f7fa <_dtoa_r+0xf4a>
 804eec6:	eb 04                	jmp    804eecc <_dtoa_r+0x61c>
 804eec8:	dd d8                	fstp   %st(0)
 804eeca:	dd d8                	fstp   %st(0)
 804eecc:	8b 4d c0             	mov    -0x40(%ebp),%ecx
 804eecf:	89 fb                	mov    %edi,%ebx
 804eed1:	0f b6 41 ff          	movzbl -0x1(%ecx),%eax
 804eed5:	89 cf                	mov    %ecx,%edi
 804eed7:	8b 4d b8             	mov    -0x48(%ebp),%ecx
 804eeda:	89 4d b4             	mov    %ecx,-0x4c(%ebp)
 804eedd:	eb 0f                	jmp    804eeee <_dtoa_r+0x63e>
 804eedf:	90                   	nop
 804eee0:	39 d3                	cmp    %edx,%ebx
 804eee2:	0f 84 75 09 00 00    	je     804f85d <_dtoa_r+0xfad>
 804eee8:	0f b6 42 ff          	movzbl -0x1(%edx),%eax
 804eeec:	89 d7                	mov    %edx,%edi
 804eeee:	3c 39                	cmp    $0x39,%al
 804eef0:	8d 57 ff             	lea    -0x1(%edi),%edx
 804eef3:	74 eb                	je     804eee0 <_dtoa_r+0x630>
 804eef5:	8b 4d b4             	mov    -0x4c(%ebp),%ecx
 804eef8:	83 c0 01             	add    $0x1,%eax
 804eefb:	88 02                	mov    %al,(%edx)
 804eefd:	89 4d b8             	mov    %ecx,-0x48(%ebp)
 804ef00:	e9 fb 01 00 00       	jmp    804f100 <_dtoa_r+0x850>
 804ef05:	8d 76 00             	lea    0x0(%esi),%esi
 804ef08:	8b 4d 98             	mov    -0x68(%ebp),%ecx
 804ef0b:	85 c9                	test   %ecx,%ecx
 804ef0d:	0f 85 9d 02 00 00    	jne    804f1b0 <_dtoa_r+0x900>
 804ef13:	8b 55 b0             	mov    -0x50(%ebp),%edx
 804ef16:	8b 5d a0             	mov    -0x60(%ebp),%ebx
 804ef19:	c7 45 b4 00 00 00 00 	movl   $0x0,-0x4c(%ebp)
 804ef20:	8b 45 ac             	mov    -0x54(%ebp),%eax
 804ef23:	85 c0                	test   %eax,%eax
 804ef25:	7e 14                	jle    804ef3b <_dtoa_r+0x68b>
 804ef27:	85 db                	test   %ebx,%ebx
 804ef29:	7e 10                	jle    804ef3b <_dtoa_r+0x68b>
 804ef2b:	8b 45 ac             	mov    -0x54(%ebp),%eax
 804ef2e:	39 d8                	cmp    %ebx,%eax
 804ef30:	0f 4f c3             	cmovg  %ebx,%eax
 804ef33:	29 45 a0             	sub    %eax,-0x60(%ebp)
 804ef36:	29 c3                	sub    %eax,%ebx
 804ef38:	29 45 ac             	sub    %eax,-0x54(%ebp)
 804ef3b:	8b 45 b0             	mov    -0x50(%ebp),%eax
 804ef3e:	85 c0                	test   %eax,%eax
 804ef40:	7e 61                	jle    804efa3 <_dtoa_r+0x6f3>
 804ef42:	8b 45 98             	mov    -0x68(%ebp),%eax
 804ef45:	85 c0                	test   %eax,%eax
 804ef47:	0f 84 72 04 00 00    	je     804f3bf <_dtoa_r+0xb0f>
 804ef4d:	85 d2                	test   %edx,%edx
 804ef4f:	7e 47                	jle    804ef98 <_dtoa_r+0x6e8>
 804ef51:	8b 45 b4             	mov    -0x4c(%ebp),%eax
 804ef54:	89 54 24 08          	mov    %edx,0x8(%esp)
 804ef58:	89 34 24             	mov    %esi,(%esp)
 804ef5b:	89 55 88             	mov    %edx,-0x78(%ebp)
 804ef5e:	89 44 24 04          	mov    %eax,0x4(%esp)
 804ef62:	e8 79 26 00 00       	call   80515e0 <__pow5mult>
 804ef67:	8b 4d a4             	mov    -0x5c(%ebp),%ecx
 804ef6a:	89 34 24             	mov    %esi,(%esp)
 804ef6d:	89 4c 24 08          	mov    %ecx,0x8(%esp)
 804ef71:	89 44 24 04          	mov    %eax,0x4(%esp)
 804ef75:	89 45 b4             	mov    %eax,-0x4c(%ebp)
 804ef78:	e8 93 24 00 00       	call   8051410 <__multiply>
 804ef7d:	8b 4d a4             	mov    -0x5c(%ebp),%ecx
 804ef80:	89 34 24             	mov    %esi,(%esp)
 804ef83:	89 4c 24 04          	mov    %ecx,0x4(%esp)
 804ef87:	89 45 8c             	mov    %eax,-0x74(%ebp)
 804ef8a:	e8 71 21 00 00       	call   8051100 <_Bfree>
 804ef8f:	8b 45 8c             	mov    -0x74(%ebp),%eax
 804ef92:	8b 55 88             	mov    -0x78(%ebp),%edx
 804ef95:	89 45 a4             	mov    %eax,-0x5c(%ebp)
 804ef98:	8b 45 b0             	mov    -0x50(%ebp),%eax
 804ef9b:	29 d0                	sub    %edx,%eax
 804ef9d:	0f 85 1f 04 00 00    	jne    804f3c2 <_dtoa_r+0xb12>
 804efa3:	c7 44 24 04 01 00 00 	movl   $0x1,0x4(%esp)
 804efaa:	00 
 804efab:	89 34 24             	mov    %esi,(%esp)
 804efae:	e8 2d 24 00 00       	call   80513e0 <__i2b>
 804efb3:	8b 4d 94             	mov    -0x6c(%ebp),%ecx
 804efb6:	85 c9                	test   %ecx,%ecx
 804efb8:	89 45 b0             	mov    %eax,-0x50(%ebp)
 804efbb:	7e 13                	jle    804efd0 <_dtoa_r+0x720>
 804efbd:	89 4c 24 08          	mov    %ecx,0x8(%esp)
 804efc1:	89 44 24 04          	mov    %eax,0x4(%esp)
 804efc5:	89 34 24             	mov    %esi,(%esp)
 804efc8:	e8 13 26 00 00       	call   80515e0 <__pow5mult>
 804efcd:	89 45 b0             	mov    %eax,-0x50(%ebp)
 804efd0:	83 7d 14 01          	cmpl   $0x1,0x14(%ebp)
 804efd4:	c7 45 8c 00 00 00 00 	movl   $0x0,-0x74(%ebp)
 804efdb:	0f 8e f7 05 00 00    	jle    804f5d8 <_dtoa_r+0xd28>
 804efe1:	8b 45 94             	mov    -0x6c(%ebp),%eax
 804efe4:	ba 01 00 00 00       	mov    $0x1,%edx
 804efe9:	85 c0                	test   %eax,%eax
 804efeb:	0f 85 27 05 00 00    	jne    804f518 <_dtoa_r+0xc68>
 804eff1:	8b 45 ac             	mov    -0x54(%ebp),%eax
 804eff4:	01 d0                	add    %edx,%eax
 804eff6:	83 e0 1f             	and    $0x1f,%eax
 804eff9:	89 c2                	mov    %eax,%edx
 804effb:	0f 84 57 03 00 00    	je     804f358 <_dtoa_r+0xaa8>
 804f001:	b8 20 00 00 00       	mov    $0x20,%eax
 804f006:	29 d0                	sub    %edx,%eax
 804f008:	83 f8 04             	cmp    $0x4,%eax
 804f00b:	0f 8e 8c 0a 00 00    	jle    804fa9d <_dtoa_r+0x11ed>
 804f011:	b8 1c 00 00 00       	mov    $0x1c,%eax
 804f016:	29 d0                	sub    %edx,%eax
 804f018:	01 45 a0             	add    %eax,-0x60(%ebp)
 804f01b:	01 c3                	add    %eax,%ebx
 804f01d:	01 45 ac             	add    %eax,-0x54(%ebp)
 804f020:	8b 45 a0             	mov    -0x60(%ebp),%eax
 804f023:	85 c0                	test   %eax,%eax
 804f025:	7e 16                	jle    804f03d <_dtoa_r+0x78d>
 804f027:	89 44 24 08          	mov    %eax,0x8(%esp)
 804f02b:	8b 45 a4             	mov    -0x5c(%ebp),%eax
 804f02e:	89 34 24             	mov    %esi,(%esp)
 804f031:	89 44 24 04          	mov    %eax,0x4(%esp)
 804f035:	e8 c6 26 00 00       	call   8051700 <__lshift>
 804f03a:	89 45 a4             	mov    %eax,-0x5c(%ebp)
 804f03d:	8b 45 ac             	mov    -0x54(%ebp),%eax
 804f040:	85 c0                	test   %eax,%eax
 804f042:	7e 16                	jle    804f05a <_dtoa_r+0x7aa>
 804f044:	89 44 24 08          	mov    %eax,0x8(%esp)
 804f048:	8b 45 b0             	mov    -0x50(%ebp),%eax
 804f04b:	89 34 24             	mov    %esi,(%esp)
 804f04e:	89 44 24 04          	mov    %eax,0x4(%esp)
 804f052:	e8 a9 26 00 00       	call   8051700 <__lshift>
 804f057:	89 45 b0             	mov    %eax,-0x50(%ebp)
 804f05a:	8b 45 9c             	mov    -0x64(%ebp),%eax
 804f05d:	85 c0                	test   %eax,%eax
 804f05f:	0f 85 d3 04 00 00    	jne    804f538 <_dtoa_r+0xc88>
 804f065:	83 7d 14 02          	cmpl   $0x2,0x14(%ebp)
 804f069:	0f 8e 11 02 00 00    	jle    804f280 <_dtoa_r+0x9d0>
 804f06f:	8b 45 a8             	mov    -0x58(%ebp),%eax
 804f072:	85 c0                	test   %eax,%eax
 804f074:	0f 8f 06 02 00 00    	jg     804f280 <_dtoa_r+0x9d0>
 804f07a:	8b 45 a8             	mov    -0x58(%ebp),%eax
 804f07d:	85 c0                	test   %eax,%eax
 804f07f:	0f 85 e0 01 00 00    	jne    804f265 <_dtoa_r+0x9b5>
 804f085:	8b 45 b0             	mov    -0x50(%ebp),%eax
 804f088:	c7 44 24 0c 00 00 00 	movl   $0x0,0xc(%esp)
 804f08f:	00 
 804f090:	c7 44 24 08 05 00 00 	movl   $0x5,0x8(%esp)
 804f097:	00 
 804f098:	89 34 24             	mov    %esi,(%esp)
 804f09b:	89 44 24 04          	mov    %eax,0x4(%esp)
 804f09f:	e8 7c 20 00 00       	call   8051120 <__multadd>
 804f0a4:	89 45 b0             	mov    %eax,-0x50(%ebp)
 804f0a7:	89 44 24 04          	mov    %eax,0x4(%esp)
 804f0ab:	8b 45 a4             	mov    -0x5c(%ebp),%eax
 804f0ae:	89 04 24             	mov    %eax,(%esp)
 804f0b1:	e8 6a 27 00 00       	call   8051820 <__mcmp>
 804f0b6:	85 c0                	test   %eax,%eax
 804f0b8:	0f 8e a7 01 00 00    	jle    804f265 <_dtoa_r+0x9b5>
 804f0be:	83 45 b8 01          	addl   $0x1,-0x48(%ebp)
 804f0c2:	89 fb                	mov    %edi,%ebx
 804f0c4:	83 c7 01             	add    $0x1,%edi
 804f0c7:	c6 47 ff 31          	movb   $0x31,-0x1(%edi)
 804f0cb:	c7 45 c0 00 00 00 00 	movl   $0x0,-0x40(%ebp)
 804f0d2:	8b 45 b0             	mov    -0x50(%ebp),%eax
 804f0d5:	89 34 24             	mov    %esi,(%esp)
 804f0d8:	89 44 24 04          	mov    %eax,0x4(%esp)
 804f0dc:	e8 1f 20 00 00       	call   8051100 <_Bfree>
 804f0e1:	8b 45 b4             	mov    -0x4c(%ebp),%eax
 804f0e4:	85 c0                	test   %eax,%eax
 804f0e6:	74 18                	je     804f100 <_dtoa_r+0x850>
 804f0e8:	39 45 c0             	cmp    %eax,-0x40(%ebp)
 804f0eb:	0f 85 a7 02 00 00    	jne    804f398 <_dtoa_r+0xae8>
 804f0f1:	8b 45 b4             	mov    -0x4c(%ebp),%eax
 804f0f4:	89 34 24             	mov    %esi,(%esp)
 804f0f7:	89 44 24 04          	mov    %eax,0x4(%esp)
 804f0fb:	e8 00 20 00 00       	call   8051100 <_Bfree>
 804f100:	8b 45 a4             	mov    -0x5c(%ebp),%eax
 804f103:	89 34 24             	mov    %esi,(%esp)
 804f106:	89 44 24 04          	mov    %eax,0x4(%esp)
 804f10a:	e8 f1 1f 00 00       	call   8051100 <_Bfree>
 804f10f:	8b 45 b8             	mov    -0x48(%ebp),%eax
 804f112:	8b 75 1c             	mov    0x1c(%ebp),%esi
 804f115:	c6 07 00             	movb   $0x0,(%edi)
 804f118:	83 c0 01             	add    $0x1,%eax
 804f11b:	89 06                	mov    %eax,(%esi)
 804f11d:	8b 45 24             	mov    0x24(%ebp),%eax
 804f120:	85 c0                	test   %eax,%eax
 804f122:	0f 84 90 02 00 00    	je     804f3b8 <_dtoa_r+0xb08>
 804f128:	8b 45 24             	mov    0x24(%ebp),%eax
 804f12b:	89 38                	mov    %edi,(%eax)
 804f12d:	81 c4 8c 00 00 00    	add    $0x8c,%esp
 804f133:	89 d8                	mov    %ebx,%eax
 804f135:	5b                   	pop    %ebx
 804f136:	5e                   	pop    %esi
 804f137:	5f                   	pop    %edi
 804f138:	5d                   	pop    %ebp
 804f139:	c3                   	ret    
 804f13a:	8d b6 00 00 00 00    	lea    0x0(%esi),%esi
 804f140:	db 45 b8             	fildl  -0x48(%ebp)
 804f143:	df e9                	fucomip %st(1),%st
 804f145:	dd d8                	fstp   %st(0)
 804f147:	7a 06                	jp     804f14f <_dtoa_r+0x89f>
 804f149:	0f 84 cc f8 ff ff    	je     804ea1b <_dtoa_r+0x16b>
 804f14f:	83 6d b8 01          	subl   $0x1,-0x48(%ebp)
 804f153:	e9 c3 f8 ff ff       	jmp    804ea1b <_dtoa_r+0x16b>
 804f158:	8b 45 b8             	mov    -0x48(%ebp),%eax
 804f15b:	29 45 a0             	sub    %eax,-0x60(%ebp)
 804f15e:	c7 45 94 00 00 00 00 	movl   $0x0,-0x6c(%ebp)
 804f165:	f7 d8                	neg    %eax
 804f167:	89 45 b0             	mov    %eax,-0x50(%ebp)
 804f16a:	e9 0c f9 ff ff       	jmp    804ea7b <_dtoa_r+0x1cb>
 804f16f:	90                   	nop
 804f170:	f7 d8                	neg    %eax
 804f172:	89 45 a0             	mov    %eax,-0x60(%ebp)
 804f175:	c7 45 ac 00 00 00 00 	movl   $0x0,-0x54(%ebp)
 804f17c:	e9 e2 f8 ff ff       	jmp    804ea63 <_dtoa_r+0x1b3>
 804f181:	8d b4 26 00 00 00 00 	lea    0x0(%esi,%eiz,1),%esi
 804f188:	8b 45 c0             	mov    -0x40(%ebp),%eax
 804f18b:	b9 ee fb ff ff       	mov    $0xfffffbee,%ecx
 804f190:	29 d9                	sub    %ebx,%ecx
 804f192:	d3 e0                	shl    %cl,%eax
 804f194:	e9 1b f8 ff ff       	jmp    804e9b4 <_dtoa_r+0x104>
 804f199:	8d b4 26 00 00 00 00 	lea    0x0(%esi,%eiz,1),%esi
 804f1a0:	c7 45 9c 00 00 00 00 	movl   $0x0,-0x64(%ebp)
 804f1a7:	e9 a0 f8 ff ff       	jmp    804ea4c <_dtoa_r+0x19c>
 804f1ac:	8d 74 26 00          	lea    0x0(%esi,%eiz,1),%esi
 804f1b0:	83 7d 14 01          	cmpl   $0x1,0x14(%ebp)
 804f1b4:	0f 8e fe 06 00 00    	jle    804f8b8 <_dtoa_r+0x1008>
 804f1ba:	8b 45 a8             	mov    -0x58(%ebp),%eax
 804f1bd:	83 e8 01             	sub    $0x1,%eax
 804f1c0:	39 45 b0             	cmp    %eax,-0x50(%ebp)
 804f1c3:	0f 8c 3b 06 00 00    	jl     804f804 <_dtoa_r+0xf54>
 804f1c9:	8b 55 b0             	mov    -0x50(%ebp),%edx
 804f1cc:	29 c2                	sub    %eax,%edx
 804f1ce:	8b 4d a8             	mov    -0x58(%ebp),%ecx
 804f1d1:	8b 5d a0             	mov    -0x60(%ebp),%ebx
 804f1d4:	85 c9                	test   %ecx,%ecx
 804f1d6:	89 c8                	mov    %ecx,%eax
 804f1d8:	0f 88 83 07 00 00    	js     804f961 <_dtoa_r+0x10b1>
 804f1de:	c7 44 24 04 01 00 00 	movl   $0x1,0x4(%esp)
 804f1e5:	00 
 804f1e6:	89 34 24             	mov    %esi,(%esp)
 804f1e9:	89 55 8c             	mov    %edx,-0x74(%ebp)
 804f1ec:	01 45 a0             	add    %eax,-0x60(%ebp)
 804f1ef:	01 45 ac             	add    %eax,-0x54(%ebp)
 804f1f2:	e8 e9 21 00 00       	call   80513e0 <__i2b>
 804f1f7:	8b 55 8c             	mov    -0x74(%ebp),%edx
 804f1fa:	89 45 b4             	mov    %eax,-0x4c(%ebp)
 804f1fd:	e9 1e fd ff ff       	jmp    804ef20 <_dtoa_r+0x670>
 804f202:	8d b6 00 00 00 00    	lea    0x0(%esi),%esi
 804f208:	d9 c1                	fld    %st(1)
 804f20a:	b9 02 00 00 00       	mov    $0x2,%ecx
 804f20f:	e9 37 fa ff ff       	jmp    804ec4b <_dtoa_r+0x39b>
 804f214:	89 4d d4             	mov    %ecx,-0x2c(%ebp)
 804f217:	db 45 d4             	fildl  -0x2c(%ebp)
 804f21a:	d8 c9                	fmul   %st(1),%st
 804f21c:	d8 05 f8 67 05 08    	fadds  0x80567f8
 804f222:	dd 5d c0             	fstpl  -0x40(%ebp)
 804f225:	81 6d c4 00 00 40 03 	subl   $0x3400000,-0x3c(%ebp)
 804f22c:	8d 74 26 00          	lea    0x0(%esi,%eiz,1),%esi
 804f230:	d8 25 fc 67 05 08    	fsubs  0x80567fc
 804f236:	dd 45 c0             	fldl   -0x40(%ebp)
 804f239:	d9 c9                	fxch   %st(1)
 804f23b:	db e9                	fucomi %st(1),%st
 804f23d:	0f 87 0d 02 00 00    	ja     804f450 <_dtoa_r+0xba0>
 804f243:	d9 c9                	fxch   %st(1)
 804f245:	d9 e0                	fchs   
 804f247:	df e9                	fucomip %st(1),%st
 804f249:	dd d8                	fstp   %st(0)
 804f24b:	0f 86 a7 01 00 00    	jbe    804f3f8 <_dtoa_r+0xb48>
 804f251:	dd d8                	fstp   %st(0)
 804f253:	eb 02                	jmp    804f257 <_dtoa_r+0x9a7>
 804f255:	dd d8                	fstp   %st(0)
 804f257:	c7 45 b0 00 00 00 00 	movl   $0x0,-0x50(%ebp)
 804f25e:	c7 45 b4 00 00 00 00 	movl   $0x0,-0x4c(%ebp)
 804f265:	8b 45 18             	mov    0x18(%ebp),%eax
 804f268:	89 fb                	mov    %edi,%ebx
 804f26a:	c7 45 c0 00 00 00 00 	movl   $0x0,-0x40(%ebp)
 804f271:	f7 d0                	not    %eax
 804f273:	89 45 b8             	mov    %eax,-0x48(%ebp)
 804f276:	e9 57 fe ff ff       	jmp    804f0d2 <_dtoa_r+0x822>
 804f27b:	90                   	nop
 804f27c:	8d 74 26 00          	lea    0x0(%esi,%eiz,1),%esi
 804f280:	8b 45 98             	mov    -0x68(%ebp),%eax
 804f283:	85 c0                	test   %eax,%eax
 804f285:	0f 85 c5 03 00 00    	jne    804f650 <_dtoa_r+0xda0>
 804f28b:	89 75 08             	mov    %esi,0x8(%ebp)
 804f28e:	bb 01 00 00 00       	mov    $0x1,%ebx
 804f293:	8b 75 a4             	mov    -0x5c(%ebp),%esi
 804f296:	eb 24                	jmp    804f2bc <_dtoa_r+0xa0c>
 804f298:	8b 45 08             	mov    0x8(%ebp),%eax
 804f29b:	83 c3 01             	add    $0x1,%ebx
 804f29e:	89 74 24 04          	mov    %esi,0x4(%esp)
 804f2a2:	c7 44 24 0c 00 00 00 	movl   $0x0,0xc(%esp)
 804f2a9:	00 
 804f2aa:	c7 44 24 08 0a 00 00 	movl   $0xa,0x8(%esp)
 804f2b1:	00 
 804f2b2:	89 04 24             	mov    %eax,(%esp)
 804f2b5:	e8 66 1e 00 00       	call   8051120 <__multadd>
 804f2ba:	89 c6                	mov    %eax,%esi
 804f2bc:	8b 55 b0             	mov    -0x50(%ebp),%edx
 804f2bf:	89 f0                	mov    %esi,%eax
 804f2c1:	e8 1a f4 ff ff       	call   804e6e0 <quorem>
 804f2c6:	83 c0 30             	add    $0x30,%eax
 804f2c9:	3b 5d a8             	cmp    -0x58(%ebp),%ebx
 804f2cc:	88 44 1f ff          	mov    %al,-0x1(%edi,%ebx,1)
 804f2d0:	7c c6                	jl     804f298 <_dtoa_r+0x9e8>
 804f2d2:	89 45 a0             	mov    %eax,-0x60(%ebp)
 804f2d5:	8b 45 a8             	mov    -0x58(%ebp),%eax
 804f2d8:	ba 01 00 00 00       	mov    $0x1,%edx
 804f2dd:	89 75 a4             	mov    %esi,-0x5c(%ebp)
 804f2e0:	8b 75 08             	mov    0x8(%ebp),%esi
 804f2e3:	c7 45 c0 00 00 00 00 	movl   $0x0,-0x40(%ebp)
 804f2ea:	85 c0                	test   %eax,%eax
 804f2ec:	0f 4f d0             	cmovg  %eax,%edx
 804f2ef:	01 fa                	add    %edi,%edx
 804f2f1:	8b 45 a4             	mov    -0x5c(%ebp),%eax
 804f2f4:	c7 44 24 08 01 00 00 	movl   $0x1,0x8(%esp)
 804f2fb:	00 
 804f2fc:	89 34 24             	mov    %esi,(%esp)
 804f2ff:	89 55 ac             	mov    %edx,-0x54(%ebp)
 804f302:	89 44 24 04          	mov    %eax,0x4(%esp)
 804f306:	e8 f5 23 00 00       	call   8051700 <__lshift>
 804f30b:	8b 5d b0             	mov    -0x50(%ebp),%ebx
 804f30e:	89 5c 24 04          	mov    %ebx,0x4(%esp)
 804f312:	89 04 24             	mov    %eax,(%esp)
 804f315:	89 45 a4             	mov    %eax,-0x5c(%ebp)
 804f318:	e8 03 25 00 00       	call   8051820 <__mcmp>
 804f31d:	8b 55 ac             	mov    -0x54(%ebp),%edx
 804f320:	83 f8 00             	cmp    $0x0,%eax
 804f323:	0f 8e 41 06 00 00    	jle    804f96a <_dtoa_r+0x10ba>
 804f329:	0f b6 4a ff          	movzbl -0x1(%edx),%ecx
 804f32d:	eb 0f                	jmp    804f33e <_dtoa_r+0xa8e>
 804f32f:	90                   	nop
 804f330:	39 c7                	cmp    %eax,%edi
 804f332:	0f 84 70 05 00 00    	je     804f8a8 <_dtoa_r+0xff8>
 804f338:	0f b6 48 ff          	movzbl -0x1(%eax),%ecx
 804f33c:	89 c2                	mov    %eax,%edx
 804f33e:	80 f9 39             	cmp    $0x39,%cl
 804f341:	8d 42 ff             	lea    -0x1(%edx),%eax
 804f344:	74 ea                	je     804f330 <_dtoa_r+0xa80>
 804f346:	83 c1 01             	add    $0x1,%ecx
 804f349:	89 fb                	mov    %edi,%ebx
 804f34b:	88 08                	mov    %cl,(%eax)
 804f34d:	89 d7                	mov    %edx,%edi
 804f34f:	e9 7e fd ff ff       	jmp    804f0d2 <_dtoa_r+0x822>
 804f354:	8d 74 26 00          	lea    0x0(%esi,%eiz,1),%esi
 804f358:	b8 1c 00 00 00       	mov    $0x1c,%eax
 804f35d:	01 45 a0             	add    %eax,-0x60(%ebp)
 804f360:	01 c3                	add    %eax,%ebx
 804f362:	01 45 ac             	add    %eax,-0x54(%ebp)
 804f365:	e9 b6 fc ff ff       	jmp    804f020 <_dtoa_r+0x770>
 804f36a:	ba 01 00 00 00       	mov    $0x1,%edx
 804f36f:	c7 45 90 01 00 00 00 	movl   $0x1,-0x70(%ebp)
 804f376:	c7 45 a8 01 00 00 00 	movl   $0x1,-0x58(%ebp)
 804f37d:	c7 45 18 01 00 00 00 	movl   $0x1,0x18(%ebp)
 804f384:	21 c2                	and    %eax,%edx
 804f386:	88 55 b4             	mov    %dl,-0x4c(%ebp)
 804f389:	31 d2                	xor    %edx,%edx
 804f38b:	c7 46 44 00 00 00 00 	movl   $0x0,0x44(%esi)
 804f392:	e9 62 f8 ff ff       	jmp    804ebf9 <_dtoa_r+0x349>
 804f397:	90                   	nop
 804f398:	8b 55 c0             	mov    -0x40(%ebp),%edx
 804f39b:	85 d2                	test   %edx,%edx
 804f39d:	0f 84 4e fd ff ff    	je     804f0f1 <_dtoa_r+0x841>
 804f3a3:	8b 45 c0             	mov    -0x40(%ebp),%eax
 804f3a6:	89 34 24             	mov    %esi,(%esp)
 804f3a9:	89 44 24 04          	mov    %eax,0x4(%esp)
 804f3ad:	e8 4e 1d 00 00       	call   8051100 <_Bfree>
 804f3b2:	e9 3a fd ff ff       	jmp    804f0f1 <_dtoa_r+0x841>
 804f3b7:	90                   	nop
 804f3b8:	89 d8                	mov    %ebx,%eax
 804f3ba:	e9 89 f5 ff ff       	jmp    804e948 <_dtoa_r+0x98>
 804f3bf:	8b 45 b0             	mov    -0x50(%ebp),%eax
 804f3c2:	89 44 24 08          	mov    %eax,0x8(%esp)
 804f3c6:	8b 45 a4             	mov    -0x5c(%ebp),%eax
 804f3c9:	89 34 24             	mov    %esi,(%esp)
 804f3cc:	89 44 24 04          	mov    %eax,0x4(%esp)
 804f3d0:	e8 0b 22 00 00       	call   80515e0 <__pow5mult>
 804f3d5:	89 45 a4             	mov    %eax,-0x5c(%ebp)
 804f3d8:	e9 c6 fb ff ff       	jmp    804efa3 <_dtoa_r+0x6f3>
 804f3dd:	dd d8                	fstp   %st(0)
 804f3df:	dd d8                	fstp   %st(0)
 804f3e1:	eb 15                	jmp    804f3f8 <_dtoa_r+0xb48>
 804f3e3:	90                   	nop
 804f3e4:	8d 74 26 00          	lea    0x0(%esi,%eiz,1),%esi
 804f3e8:	dd d8                	fstp   %st(0)
 804f3ea:	dd d8                	fstp   %st(0)
 804f3ec:	dd d8                	fstp   %st(0)
 804f3ee:	eb 08                	jmp    804f3f8 <_dtoa_r+0xb48>
 804f3f0:	dd d8                	fstp   %st(0)
 804f3f2:	8d b6 00 00 00 00    	lea    0x0(%esi),%esi
 804f3f8:	dd 5d c0             	fstpl  -0x40(%ebp)
 804f3fb:	e9 cf f9 ff ff       	jmp    804edcf <_dtoa_r+0x51f>
 804f400:	8b 45 b8             	mov    -0x48(%ebp),%eax
 804f403:	f7 d8                	neg    %eax
 804f405:	0f 84 6a 04 00 00    	je     804f875 <_dtoa_r+0xfc5>
 804f40b:	89 c2                	mov    %eax,%edx
 804f40d:	b9 02 00 00 00       	mov    $0x2,%ecx
 804f412:	83 e2 0f             	and    $0xf,%edx
 804f415:	c1 f8 04             	sar    $0x4,%eax
 804f418:	dd 04 d5 e0 68 05 08 	fldl   0x80568e0(,%edx,8)
 804f41f:	85 c0                	test   %eax,%eax
 804f421:	d8 c9                	fmul   %st(1),%st
 804f423:	0f 84 4a f8 ff ff    	je     804ec73 <_dtoa_r+0x3c3>
 804f429:	31 d2                	xor    %edx,%edx
 804f42b:	90                   	nop
 804f42c:	8d 74 26 00          	lea    0x0(%esi,%eiz,1),%esi
 804f430:	a8 01                	test   $0x1,%al
 804f432:	74 0a                	je     804f43e <_dtoa_r+0xb8e>
 804f434:	dc 0c d5 a0 68 05 08 	fmull  0x80568a0(,%edx,8)
 804f43b:	83 c1 01             	add    $0x1,%ecx
 804f43e:	83 c2 01             	add    $0x1,%edx
 804f441:	d1 f8                	sar    %eax
 804f443:	75 eb                	jne    804f430 <_dtoa_r+0xb80>
 804f445:	e9 29 f8 ff ff       	jmp    804ec73 <_dtoa_r+0x3c3>
 804f44a:	8d b6 00 00 00 00    	lea    0x0(%esi),%esi
 804f450:	dd d8                	fstp   %st(0)
 804f452:	dd d8                	fstp   %st(0)
 804f454:	dd d8                	fstp   %st(0)
 804f456:	c7 45 b0 00 00 00 00 	movl   $0x0,-0x50(%ebp)
 804f45d:	c7 45 b4 00 00 00 00 	movl   $0x0,-0x4c(%ebp)
 804f464:	e9 55 fc ff ff       	jmp    804f0be <_dtoa_r+0x80e>
 804f469:	8d b4 26 00 00 00 00 	lea    0x0(%esi,%eiz,1),%esi
 804f470:	d9 7d d2             	fnstcw -0x2e(%ebp)
 804f473:	8d 41 ff             	lea    -0x1(%ecx),%eax
 804f476:	dd 45 c0             	fldl   -0x40(%ebp)
 804f479:	dc 0c c5 e0 68 05 08 	fmull  0x80568e0(,%eax,8)
 804f480:	d9 c9                	fxch   %st(1)
 804f482:	89 45 88             	mov    %eax,-0x78(%ebp)
 804f485:	0f b7 45 d2          	movzwl -0x2e(%ebp),%eax
 804f489:	8d 57 01             	lea    0x1(%edi),%edx
 804f48c:	8d 1c 0f             	lea    (%edi,%ecx,1),%ebx
 804f48f:	b4 0c                	mov    $0xc,%ah
 804f491:	66 89 45 d0          	mov    %ax,-0x30(%ebp)
 804f495:	d9 6d d0             	fldcw  -0x30(%ebp)
 804f498:	db 55 d4             	fistl  -0x2c(%ebp)
 804f49b:	d9 6d d2             	fldcw  -0x2e(%ebp)
 804f49e:	8b 45 d4             	mov    -0x2c(%ebp),%eax
 804f4a1:	89 45 d4             	mov    %eax,-0x2c(%ebp)
 804f4a4:	83 c0 30             	add    $0x30,%eax
 804f4a7:	83 f9 01             	cmp    $0x1,%ecx
 804f4aa:	db 45 d4             	fildl  -0x2c(%ebp)
 804f4ad:	de e9                	fsubrp %st,%st(1)
 804f4af:	88 07                	mov    %al,(%edi)
 804f4b1:	89 d0                	mov    %edx,%eax
 804f4b3:	74 37                	je     804f4ec <_dtoa_r+0xc3c>
 804f4b5:	d9 05 f4 67 05 08    	flds   0x80567f4
 804f4bb:	eb 05                	jmp    804f4c2 <_dtoa_r+0xc12>
 804f4bd:	8d 76 00             	lea    0x0(%esi),%esi
 804f4c0:	d9 c9                	fxch   %st(1)
 804f4c2:	dc c9                	fmul   %st,%st(1)
 804f4c4:	d9 c9                	fxch   %st(1)
 804f4c6:	83 c0 01             	add    $0x1,%eax
 804f4c9:	d9 6d d0             	fldcw  -0x30(%ebp)
 804f4cc:	db 55 d4             	fistl  -0x2c(%ebp)
 804f4cf:	d9 6d d2             	fldcw  -0x2e(%ebp)
 804f4d2:	8b 4d d4             	mov    -0x2c(%ebp),%ecx
 804f4d5:	89 4d d4             	mov    %ecx,-0x2c(%ebp)
 804f4d8:	83 c1 30             	add    $0x30,%ecx
 804f4db:	39 d8                	cmp    %ebx,%eax
 804f4dd:	db 45 d4             	fildl  -0x2c(%ebp)
 804f4e0:	de e9                	fsubrp %st,%st(1)
 804f4e2:	88 48 ff             	mov    %cl,-0x1(%eax)
 804f4e5:	75 d9                	jne    804f4c0 <_dtoa_r+0xc10>
 804f4e7:	dd d9                	fstp   %st(1)
 804f4e9:	03 55 88             	add    -0x78(%ebp),%edx
 804f4ec:	d9 05 00 68 05 08    	flds   0x8056800
 804f4f2:	d9 c2                	fld    %st(2)
 804f4f4:	d8 c1                	fadd   %st(1),%st
 804f4f6:	d9 ca                	fxch   %st(2)
 804f4f8:	db ea                	fucomi %st(2),%st
 804f4fa:	dd da                	fstp   %st(2)
 804f4fc:	0f 86 7f 03 00 00    	jbe    804f881 <_dtoa_r+0xfd1>
 804f502:	dd d8                	fstp   %st(0)
 804f504:	dd d8                	fstp   %st(0)
 804f506:	dd d8                	fstp   %st(0)
 804f508:	dd d8                	fstp   %st(0)
 804f50a:	89 fb                	mov    %edi,%ebx
 804f50c:	0f b6 42 ff          	movzbl -0x1(%edx),%eax
 804f510:	89 d7                	mov    %edx,%edi
 804f512:	e9 d7 f9 ff ff       	jmp    804eeee <_dtoa_r+0x63e>
 804f517:	90                   	nop
 804f518:	8b 4d b0             	mov    -0x50(%ebp),%ecx
 804f51b:	8b 41 10             	mov    0x10(%ecx),%eax
 804f51e:	8b 44 81 10          	mov    0x10(%ecx,%eax,4),%eax
 804f522:	89 04 24             	mov    %eax,(%esp)
 804f525:	e8 d6 1d 00 00       	call   8051300 <__hi0bits>
 804f52a:	ba 20 00 00 00       	mov    $0x20,%edx
 804f52f:	29 c2                	sub    %eax,%edx
 804f531:	e9 bb fa ff ff       	jmp    804eff1 <_dtoa_r+0x741>
 804f536:	66 90                	xchg   %ax,%ax
 804f538:	8b 45 b0             	mov    -0x50(%ebp),%eax
 804f53b:	89 44 24 04          	mov    %eax,0x4(%esp)
 804f53f:	8b 45 a4             	mov    -0x5c(%ebp),%eax
 804f542:	89 04 24             	mov    %eax,(%esp)
 804f545:	e8 d6 22 00 00       	call   8051820 <__mcmp>
 804f54a:	85 c0                	test   %eax,%eax
 804f54c:	0f 89 13 fb ff ff    	jns    804f065 <_dtoa_r+0x7b5>
 804f552:	8b 45 a4             	mov    -0x5c(%ebp),%eax
 804f555:	c7 44 24 0c 00 00 00 	movl   $0x0,0xc(%esp)
 804f55c:	00 
 804f55d:	c7 44 24 08 0a 00 00 	movl   $0xa,0x8(%esp)
 804f564:	00 
 804f565:	89 34 24             	mov    %esi,(%esp)
 804f568:	89 44 24 04          	mov    %eax,0x4(%esp)
 804f56c:	83 6d b8 01          	subl   $0x1,-0x48(%ebp)
 804f570:	e8 ab 1b 00 00       	call   8051120 <__multadd>
 804f575:	8b 4d 98             	mov    -0x68(%ebp),%ecx
 804f578:	85 c9                	test   %ecx,%ecx
 804f57a:	89 45 a4             	mov    %eax,-0x5c(%ebp)
 804f57d:	0f 85 8d 00 00 00    	jne    804f610 <_dtoa_r+0xd60>
 804f583:	83 7d 90 00          	cmpl   $0x0,-0x70(%ebp)
 804f587:	8b 45 90             	mov    -0x70(%ebp),%eax
 804f58a:	7f 0a                	jg     804f596 <_dtoa_r+0xce6>
 804f58c:	83 7d 14 02          	cmpl   $0x2,0x14(%ebp)
 804f590:	0f 8f ff 04 00 00    	jg     804fa95 <_dtoa_r+0x11e5>
 804f596:	89 45 a8             	mov    %eax,-0x58(%ebp)
 804f599:	e9 ed fc ff ff       	jmp    804f28b <_dtoa_r+0x9db>
 804f59e:	66 90                	xchg   %ax,%ax
 804f5a0:	8b 5d a8             	mov    -0x58(%ebp),%ebx
 804f5a3:	85 db                	test   %ebx,%ebx
 804f5a5:	0f 85 aa fc ff ff    	jne    804f255 <_dtoa_r+0x9a5>
 804f5ab:	d8 0d fc 67 05 08    	fmuls  0x80567fc
 804f5b1:	c7 45 b0 00 00 00 00 	movl   $0x0,-0x50(%ebp)
 804f5b8:	c7 45 b4 00 00 00 00 	movl   $0x0,-0x4c(%ebp)
 804f5bf:	dd 45 c0             	fldl   -0x40(%ebp)
 804f5c2:	d9 c9                	fxch   %st(1)
 804f5c4:	df e9                	fucomip %st(1),%st
 804f5c6:	dd d8                	fstp   %st(0)
 804f5c8:	0f 83 97 fc ff ff    	jae    804f265 <_dtoa_r+0x9b5>
 804f5ce:	e9 eb fa ff ff       	jmp    804f0be <_dtoa_r+0x80e>
 804f5d3:	90                   	nop
 804f5d4:	8d 74 26 00          	lea    0x0(%esi,%eiz,1),%esi
 804f5d8:	8b 45 c0             	mov    -0x40(%ebp),%eax
 804f5db:	85 c0                	test   %eax,%eax
 804f5dd:	0f 85 fe f9 ff ff    	jne    804efe1 <_dtoa_r+0x731>
 804f5e3:	8b 45 c4             	mov    -0x3c(%ebp),%eax
 804f5e6:	a9 ff ff 0f 00       	test   $0xfffff,%eax
 804f5eb:	0f 85 f0 f9 ff ff    	jne    804efe1 <_dtoa_r+0x731>
 804f5f1:	a9 00 00 f0 7f       	test   $0x7ff00000,%eax
 804f5f6:	0f 84 e5 f9 ff ff    	je     804efe1 <_dtoa_r+0x731>
 804f5fc:	83 45 a0 01          	addl   $0x1,-0x60(%ebp)
 804f600:	83 45 ac 01          	addl   $0x1,-0x54(%ebp)
 804f604:	c7 45 8c 01 00 00 00 	movl   $0x1,-0x74(%ebp)
 804f60b:	e9 d1 f9 ff ff       	jmp    804efe1 <_dtoa_r+0x731>
 804f610:	8b 45 b4             	mov    -0x4c(%ebp),%eax
 804f613:	c7 44 24 0c 00 00 00 	movl   $0x0,0xc(%esp)
 804f61a:	00 
 804f61b:	c7 44 24 08 0a 00 00 	movl   $0xa,0x8(%esp)
 804f622:	00 
 804f623:	89 34 24             	mov    %esi,(%esp)
 804f626:	89 44 24 04          	mov    %eax,0x4(%esp)
 804f62a:	e8 f1 1a 00 00       	call   8051120 <__multadd>
 804f62f:	8b 55 90             	mov    -0x70(%ebp),%edx
 804f632:	85 d2                	test   %edx,%edx
 804f634:	89 45 b4             	mov    %eax,-0x4c(%ebp)
 804f637:	8b 45 90             	mov    -0x70(%ebp),%eax
 804f63a:	7f 0a                	jg     804f646 <_dtoa_r+0xd96>
 804f63c:	83 7d 14 02          	cmpl   $0x2,0x14(%ebp)
 804f640:	0f 8f 4f 04 00 00    	jg     804fa95 <_dtoa_r+0x11e5>
 804f646:	89 45 a8             	mov    %eax,-0x58(%ebp)
 804f649:	8d b4 26 00 00 00 00 	lea    0x0(%esi,%eiz,1),%esi
 804f650:	85 db                	test   %ebx,%ebx
 804f652:	7e 16                	jle    804f66a <_dtoa_r+0xdba>
 804f654:	8b 45 b4             	mov    -0x4c(%ebp),%eax
 804f657:	89 5c 24 08          	mov    %ebx,0x8(%esp)
 804f65b:	89 34 24             	mov    %esi,(%esp)
 804f65e:	89 44 24 04          	mov    %eax,0x4(%esp)
 804f662:	e8 99 20 00 00       	call   8051700 <__lshift>
 804f667:	89 45 b4             	mov    %eax,-0x4c(%ebp)
 804f66a:	8b 5d 8c             	mov    -0x74(%ebp),%ebx
 804f66d:	8b 45 b4             	mov    -0x4c(%ebp),%eax
 804f670:	85 db                	test   %ebx,%ebx
 804f672:	89 45 ac             	mov    %eax,-0x54(%ebp)
 804f675:	0f 85 11 03 00 00    	jne    804f98c <_dtoa_r+0x10dc>
 804f67b:	8b 45 a8             	mov    -0x58(%ebp),%eax
 804f67e:	8d 5f 01             	lea    0x1(%edi),%ebx
 804f681:	89 7d 8c             	mov    %edi,-0x74(%ebp)
 804f684:	01 f8                	add    %edi,%eax
 804f686:	8b 7d a4             	mov    -0x5c(%ebp),%edi
 804f689:	89 45 90             	mov    %eax,-0x70(%ebp)
 804f68c:	8b 45 c0             	mov    -0x40(%ebp),%eax
 804f68f:	83 e0 01             	and    $0x1,%eax
 804f692:	89 45 9c             	mov    %eax,-0x64(%ebp)
 804f695:	eb 2e                	jmp    804f6c5 <_dtoa_r+0xe15>
 804f697:	90                   	nop
 804f698:	e8 83 1a 00 00       	call   8051120 <__multadd>
 804f69d:	c7 44 24 0c 00 00 00 	movl   $0x0,0xc(%esp)
 804f6a4:	00 
 804f6a5:	c7 44 24 08 0a 00 00 	movl   $0xa,0x8(%esp)
 804f6ac:	00 
 804f6ad:	89 34 24             	mov    %esi,(%esp)
 804f6b0:	89 45 b4             	mov    %eax,-0x4c(%ebp)
 804f6b3:	8b 45 ac             	mov    -0x54(%ebp),%eax
 804f6b6:	89 44 24 04          	mov    %eax,0x4(%esp)
 804f6ba:	e8 61 1a 00 00       	call   8051120 <__multadd>
 804f6bf:	89 45 ac             	mov    %eax,-0x54(%ebp)
 804f6c2:	83 c3 01             	add    $0x1,%ebx
 804f6c5:	8b 55 b0             	mov    -0x50(%ebp),%edx
 804f6c8:	8d 43 ff             	lea    -0x1(%ebx),%eax
 804f6cb:	89 45 98             	mov    %eax,-0x68(%ebp)
 804f6ce:	89 f8                	mov    %edi,%eax
 804f6d0:	e8 0b f0 ff ff       	call   804e6e0 <quorem>
 804f6d5:	89 3c 24             	mov    %edi,(%esp)
 804f6d8:	8d 48 30             	lea    0x30(%eax),%ecx
 804f6db:	89 4d a0             	mov    %ecx,-0x60(%ebp)
 804f6de:	8b 4d b4             	mov    -0x4c(%ebp),%ecx
 804f6e1:	89 45 94             	mov    %eax,-0x6c(%ebp)
 804f6e4:	89 4c 24 04          	mov    %ecx,0x4(%esp)
 804f6e8:	e8 33 21 00 00       	call   8051820 <__mcmp>
 804f6ed:	8b 4d ac             	mov    -0x54(%ebp),%ecx
 804f6f0:	89 34 24             	mov    %esi,(%esp)
 804f6f3:	89 4c 24 08          	mov    %ecx,0x8(%esp)
 804f6f7:	89 45 c0             	mov    %eax,-0x40(%ebp)
 804f6fa:	8b 45 b0             	mov    -0x50(%ebp),%eax
 804f6fd:	89 44 24 04          	mov    %eax,0x4(%esp)
 804f701:	e8 6a 21 00 00       	call   8051870 <__mdiff>
 804f706:	8b 48 0c             	mov    0xc(%eax),%ecx
 804f709:	89 c2                	mov    %eax,%edx
 804f70b:	85 c9                	test   %ecx,%ecx
 804f70d:	0f 85 c5 00 00 00    	jne    804f7d8 <_dtoa_r+0xf28>
 804f713:	89 44 24 04          	mov    %eax,0x4(%esp)
 804f717:	89 3c 24             	mov    %edi,(%esp)
 804f71a:	89 45 a8             	mov    %eax,-0x58(%ebp)
 804f71d:	e8 fe 20 00 00       	call   8051820 <__mcmp>
 804f722:	8b 55 a8             	mov    -0x58(%ebp),%edx
 804f725:	89 54 24 04          	mov    %edx,0x4(%esp)
 804f729:	89 34 24             	mov    %esi,(%esp)
 804f72c:	89 45 a8             	mov    %eax,-0x58(%ebp)
 804f72f:	e8 cc 19 00 00       	call   8051100 <_Bfree>
 804f734:	8b 45 a8             	mov    -0x58(%ebp),%eax
 804f737:	89 c1                	mov    %eax,%ecx
 804f739:	0b 4d 14             	or     0x14(%ebp),%ecx
 804f73c:	75 0b                	jne    804f749 <_dtoa_r+0xe99>
 804f73e:	8b 55 9c             	mov    -0x64(%ebp),%edx
 804f741:	85 d2                	test   %edx,%edx
 804f743:	0f 84 fb 02 00 00    	je     804fa44 <_dtoa_r+0x1194>
 804f749:	8b 55 c0             	mov    -0x40(%ebp),%edx
 804f74c:	85 d2                	test   %edx,%edx
 804f74e:	0f 88 7f 01 00 00    	js     804f8d3 <_dtoa_r+0x1023>
 804f754:	8b 4d c0             	mov    -0x40(%ebp),%ecx
 804f757:	0b 4d 14             	or     0x14(%ebp),%ecx
 804f75a:	75 0b                	jne    804f767 <_dtoa_r+0xeb7>
 804f75c:	8b 4d 9c             	mov    -0x64(%ebp),%ecx
 804f75f:	85 c9                	test   %ecx,%ecx
 804f761:	0f 84 6c 01 00 00    	je     804f8d3 <_dtoa_r+0x1023>
 804f767:	85 c0                	test   %eax,%eax
 804f769:	0f 8f 82 02 00 00    	jg     804f9f1 <_dtoa_r+0x1141>
 804f76f:	0f b6 45 a0          	movzbl -0x60(%ebp),%eax
 804f773:	89 da                	mov    %ebx,%edx
 804f775:	3b 5d 90             	cmp    -0x70(%ebp),%ebx
 804f778:	88 43 ff             	mov    %al,-0x1(%ebx)
 804f77b:	0f 84 8d 02 00 00    	je     804fa0e <_dtoa_r+0x115e>
 804f781:	89 7c 24 04          	mov    %edi,0x4(%esp)
 804f785:	c7 44 24 0c 00 00 00 	movl   $0x0,0xc(%esp)
 804f78c:	00 
 804f78d:	c7 44 24 08 0a 00 00 	movl   $0xa,0x8(%esp)
 804f794:	00 
 804f795:	89 34 24             	mov    %esi,(%esp)
 804f798:	e8 83 19 00 00       	call   8051120 <__multadd>
 804f79d:	c7 44 24 0c 00 00 00 	movl   $0x0,0xc(%esp)
 804f7a4:	00 
 804f7a5:	c7 44 24 08 0a 00 00 	movl   $0xa,0x8(%esp)
 804f7ac:	00 
 804f7ad:	89 34 24             	mov    %esi,(%esp)
 804f7b0:	89 c7                	mov    %eax,%edi
 804f7b2:	8b 45 ac             	mov    -0x54(%ebp),%eax
 804f7b5:	39 45 b4             	cmp    %eax,-0x4c(%ebp)
 804f7b8:	8b 45 b4             	mov    -0x4c(%ebp),%eax
 804f7bb:	89 44 24 04          	mov    %eax,0x4(%esp)
 804f7bf:	0f 85 d3 fe ff ff    	jne    804f698 <_dtoa_r+0xde8>
 804f7c5:	e8 56 19 00 00       	call   8051120 <__multadd>
 804f7ca:	89 45 b4             	mov    %eax,-0x4c(%ebp)
 804f7cd:	89 45 ac             	mov    %eax,-0x54(%ebp)
 804f7d0:	e9 ed fe ff ff       	jmp    804f6c2 <_dtoa_r+0xe12>
 804f7d5:	8d 76 00             	lea    0x0(%esi),%esi
 804f7d8:	b8 01 00 00 00       	mov    $0x1,%eax
 804f7dd:	e9 43 ff ff ff       	jmp    804f725 <_dtoa_r+0xe75>
 804f7e2:	c7 45 98 00 00 00 00 	movl   $0x0,-0x68(%ebp)
 804f7e9:	e9 d2 f2 ff ff       	jmp    804eac0 <_dtoa_r+0x210>
 804f7ee:	0f 85 87 f6 ff ff    	jne    804ee7b <_dtoa_r+0x5cb>
 804f7f4:	dd d8                	fstp   %st(0)
 804f7f6:	dd d8                	fstp   %st(0)
 804f7f8:	dd d8                	fstp   %st(0)
 804f7fa:	89 fb                	mov    %edi,%ebx
 804f7fc:	8b 7d c0             	mov    -0x40(%ebp),%edi
 804f7ff:	e9 fc f8 ff ff       	jmp    804f100 <_dtoa_r+0x850>
 804f804:	89 c2                	mov    %eax,%edx
 804f806:	2b 55 b0             	sub    -0x50(%ebp),%edx
 804f809:	89 45 b0             	mov    %eax,-0x50(%ebp)
 804f80c:	01 55 94             	add    %edx,-0x6c(%ebp)
 804f80f:	31 d2                	xor    %edx,%edx
 804f811:	e9 b8 f9 ff ff       	jmp    804f1ce <_dtoa_r+0x91e>
 804f816:	8b 45 a8             	mov    -0x58(%ebp),%eax
 804f819:	85 c0                	test   %eax,%eax
 804f81b:	0f 84 f3 f9 ff ff    	je     804f214 <_dtoa_r+0x964>
 804f821:	8b 45 90             	mov    -0x70(%ebp),%eax
 804f824:	85 c0                	test   %eax,%eax
 804f826:	0f 8e c4 fb ff ff    	jle    804f3f0 <_dtoa_r+0xb40>
 804f82c:	d8 0d f4 67 05 08    	fmuls  0x80567f4
 804f832:	83 c1 01             	add    $0x1,%ecx
 804f835:	89 4d d4             	mov    %ecx,-0x2c(%ebp)
 804f838:	8b 5d b8             	mov    -0x48(%ebp),%ebx
 804f83b:	89 c1                	mov    %eax,%ecx
 804f83d:	83 eb 01             	sub    $0x1,%ebx
 804f840:	db 45 d4             	fildl  -0x2c(%ebp)
 804f843:	d8 c9                	fmul   %st(1),%st
 804f845:	89 5d b4             	mov    %ebx,-0x4c(%ebp)
 804f848:	d8 05 f8 67 05 08    	fadds  0x80567f8
 804f84e:	dd 5d c0             	fstpl  -0x40(%ebp)
 804f851:	81 6d c4 00 00 40 03 	subl   $0x3400000,-0x3c(%ebp)
 804f858:	e9 53 f4 ff ff       	jmp    804ecb0 <_dtoa_r+0x400>
 804f85d:	8b 45 b4             	mov    -0x4c(%ebp),%eax
 804f860:	c6 03 30             	movb   $0x30,(%ebx)
 804f863:	83 c0 01             	add    $0x1,%eax
 804f866:	89 45 b8             	mov    %eax,-0x48(%ebp)
 804f869:	b8 31 00 00 00       	mov    $0x31,%eax
 804f86e:	88 02                	mov    %al,(%edx)
 804f870:	e9 8b f8 ff ff       	jmp    804f100 <_dtoa_r+0x850>
 804f875:	d9 c0                	fld    %st(0)
 804f877:	b9 02 00 00 00       	mov    $0x2,%ecx
 804f87c:	e9 f2 f3 ff ff       	jmp    804ec73 <_dtoa_r+0x3c3>
 804f881:	de e2                	fsubp  %st,%st(2)
 804f883:	d9 c9                	fxch   %st(1)
 804f885:	df e9                	fucomip %st(1),%st
 804f887:	dd d8                	fstp   %st(0)
 804f889:	0f 86 69 fb ff ff    	jbe    804f3f8 <_dtoa_r+0xb48>
 804f88f:	dd d8                	fstp   %st(0)
 804f891:	eb 07                	jmp    804f89a <_dtoa_r+0xfea>
 804f893:	90                   	nop
 804f894:	8d 74 26 00          	lea    0x0(%esi,%eiz,1),%esi
 804f898:	89 c2                	mov    %eax,%edx
 804f89a:	80 7a ff 30          	cmpb   $0x30,-0x1(%edx)
 804f89e:	8d 42 ff             	lea    -0x1(%edx),%eax
 804f8a1:	74 f5                	je     804f898 <_dtoa_r+0xfe8>
 804f8a3:	e9 d9 f4 ff ff       	jmp    804ed81 <_dtoa_r+0x4d1>
 804f8a8:	c6 07 31             	movb   $0x31,(%edi)
 804f8ab:	89 fb                	mov    %edi,%ebx
 804f8ad:	89 d7                	mov    %edx,%edi
 804f8af:	83 45 b8 01          	addl   $0x1,-0x48(%ebp)
 804f8b3:	e9 1a f8 ff ff       	jmp    804f0d2 <_dtoa_r+0x822>
 804f8b8:	8b 55 8c             	mov    -0x74(%ebp),%edx
 804f8bb:	85 d2                	test   %edx,%edx
 804f8bd:	0f 84 1b 01 00 00    	je     804f9de <_dtoa_r+0x112e>
 804f8c3:	05 33 04 00 00       	add    $0x433,%eax
 804f8c8:	8b 55 b0             	mov    -0x50(%ebp),%edx
 804f8cb:	8b 5d a0             	mov    -0x60(%ebp),%ebx
 804f8ce:	e9 0b f9 ff ff       	jmp    804f1de <_dtoa_r+0x92e>
 804f8d3:	85 c0                	test   %eax,%eax
 804f8d5:	89 7d a4             	mov    %edi,-0x5c(%ebp)
 804f8d8:	8b 7d 8c             	mov    -0x74(%ebp),%edi
 804f8db:	7e 45                	jle    804f922 <_dtoa_r+0x1072>
 804f8dd:	8b 45 a4             	mov    -0x5c(%ebp),%eax
 804f8e0:	c7 44 24 08 01 00 00 	movl   $0x1,0x8(%esp)
 804f8e7:	00 
 804f8e8:	89 34 24             	mov    %esi,(%esp)
 804f8eb:	89 44 24 04          	mov    %eax,0x4(%esp)
 804f8ef:	e8 0c 1e 00 00       	call   8051700 <__lshift>
 804f8f4:	8b 5d b0             	mov    -0x50(%ebp),%ebx
 804f8f7:	89 5c 24 04          	mov    %ebx,0x4(%esp)
 804f8fb:	89 04 24             	mov    %eax,(%esp)
 804f8fe:	89 45 a4             	mov    %eax,-0x5c(%ebp)
 804f901:	e8 1a 1f 00 00       	call   8051820 <__mcmp>
 804f906:	83 f8 00             	cmp    $0x0,%eax
 804f909:	0f 8e 5b 01 00 00    	jle    804fa6a <_dtoa_r+0x11ba>
 804f90f:	83 7d a0 39          	cmpl   $0x39,-0x60(%ebp)
 804f913:	0f 84 0c 01 00 00    	je     804fa25 <_dtoa_r+0x1175>
 804f919:	8b 45 94             	mov    -0x6c(%ebp),%eax
 804f91c:	83 c0 31             	add    $0x31,%eax
 804f91f:	89 45 a0             	mov    %eax,-0x60(%ebp)
 804f922:	8b 4d 98             	mov    -0x68(%ebp),%ecx
 804f925:	0f b6 45 a0          	movzbl -0x60(%ebp),%eax
 804f929:	89 cb                	mov    %ecx,%ebx
 804f92b:	88 03                	mov    %al,(%ebx)
 804f92d:	8b 45 b4             	mov    -0x4c(%ebp),%eax
 804f930:	89 fb                	mov    %edi,%ebx
 804f932:	8d 79 01             	lea    0x1(%ecx),%edi
 804f935:	89 45 c0             	mov    %eax,-0x40(%ebp)
 804f938:	8b 45 ac             	mov    -0x54(%ebp),%eax
 804f93b:	89 45 b4             	mov    %eax,-0x4c(%ebp)
 804f93e:	e9 8f f7 ff ff       	jmp    804f0d2 <_dtoa_r+0x822>
 804f943:	dd d8                	fstp   %st(0)
 804f945:	dd d8                	fstp   %st(0)
 804f947:	dd d8                	fstp   %st(0)
 804f949:	eb 0d                	jmp    804f958 <_dtoa_r+0x10a8>
 804f94b:	90                   	nop
 804f94c:	8d 74 26 00          	lea    0x0(%esi,%eiz,1),%esi
 804f950:	dd d8                	fstp   %st(0)
 804f952:	dd d8                	fstp   %st(0)
 804f954:	dd d8                	fstp   %st(0)
 804f956:	dd d8                	fstp   %st(0)
 804f958:	89 fb                	mov    %edi,%ebx
 804f95a:	89 d7                	mov    %edx,%edi
 804f95c:	e9 8d f5 ff ff       	jmp    804eeee <_dtoa_r+0x63e>
 804f961:	29 cb                	sub    %ecx,%ebx
 804f963:	31 c0                	xor    %eax,%eax
 804f965:	e9 74 f8 ff ff       	jmp    804f1de <_dtoa_r+0x92e>
 804f96a:	75 0e                	jne    804f97a <_dtoa_r+0x10ca>
 804f96c:	f6 45 a0 01          	testb  $0x1,-0x60(%ebp)
 804f970:	74 08                	je     804f97a <_dtoa_r+0x10ca>
 804f972:	e9 b2 f9 ff ff       	jmp    804f329 <_dtoa_r+0xa79>
 804f977:	90                   	nop
 804f978:	89 c2                	mov    %eax,%edx
 804f97a:	80 7a ff 30          	cmpb   $0x30,-0x1(%edx)
 804f97e:	8d 42 ff             	lea    -0x1(%edx),%eax
 804f981:	74 f5                	je     804f978 <_dtoa_r+0x10c8>
 804f983:	89 fb                	mov    %edi,%ebx
 804f985:	89 d7                	mov    %edx,%edi
 804f987:	e9 46 f7 ff ff       	jmp    804f0d2 <_dtoa_r+0x822>
 804f98c:	8b 40 04             	mov    0x4(%eax),%eax
 804f98f:	89 34 24             	mov    %esi,(%esp)
 804f992:	89 44 24 04          	mov    %eax,0x4(%esp)
 804f996:	e8 c5 16 00 00       	call   8051060 <_Balloc>
 804f99b:	8b 4d b4             	mov    -0x4c(%ebp),%ecx
 804f99e:	89 c3                	mov    %eax,%ebx
 804f9a0:	8b 41 10             	mov    0x10(%ecx),%eax
 804f9a3:	8d 04 85 08 00 00 00 	lea    0x8(,%eax,4),%eax
 804f9aa:	89 44 24 08          	mov    %eax,0x8(%esp)
 804f9ae:	89 c8                	mov    %ecx,%eax
 804f9b0:	83 c0 0c             	add    $0xc,%eax
 804f9b3:	89 44 24 04          	mov    %eax,0x4(%esp)
 804f9b7:	8d 43 0c             	lea    0xc(%ebx),%eax
 804f9ba:	89 04 24             	mov    %eax,(%esp)
 804f9bd:	e8 36 16 00 00       	call   8050ff8 <memcpy>
 804f9c2:	c7 44 24 08 01 00 00 	movl   $0x1,0x8(%esp)
 804f9c9:	00 
 804f9ca:	89 5c 24 04          	mov    %ebx,0x4(%esp)
 804f9ce:	89 34 24             	mov    %esi,(%esp)
 804f9d1:	e8 2a 1d 00 00       	call   8051700 <__lshift>
 804f9d6:	89 45 ac             	mov    %eax,-0x54(%ebp)
 804f9d9:	e9 9d fc ff ff       	jmp    804f67b <_dtoa_r+0xdcb>
 804f9de:	b8 36 00 00 00       	mov    $0x36,%eax
 804f9e3:	8b 55 b0             	mov    -0x50(%ebp),%edx
 804f9e6:	2b 45 e0             	sub    -0x20(%ebp),%eax
 804f9e9:	8b 5d a0             	mov    -0x60(%ebp),%ebx
 804f9ec:	e9 ed f7 ff ff       	jmp    804f1de <_dtoa_r+0x92e>
 804f9f1:	83 7d a0 39          	cmpl   $0x39,-0x60(%ebp)
 804f9f5:	89 7d a4             	mov    %edi,-0x5c(%ebp)
 804f9f8:	8b 7d 8c             	mov    -0x74(%ebp),%edi
 804f9fb:	74 28                	je     804fa25 <_dtoa_r+0x1175>
 804f9fd:	0f b6 45 a0          	movzbl -0x60(%ebp),%eax
 804fa01:	8b 4d 98             	mov    -0x68(%ebp),%ecx
 804fa04:	83 c0 01             	add    $0x1,%eax
 804fa07:	89 cb                	mov    %ecx,%ebx
 804fa09:	e9 1d ff ff ff       	jmp    804f92b <_dtoa_r+0x107b>
 804fa0e:	8b 45 b4             	mov    -0x4c(%ebp),%eax
 804fa11:	89 7d a4             	mov    %edi,-0x5c(%ebp)
 804fa14:	8b 7d 8c             	mov    -0x74(%ebp),%edi
 804fa17:	89 45 c0             	mov    %eax,-0x40(%ebp)
 804fa1a:	8b 45 ac             	mov    -0x54(%ebp),%eax
 804fa1d:	89 45 b4             	mov    %eax,-0x4c(%ebp)
 804fa20:	e9 cc f8 ff ff       	jmp    804f2f1 <_dtoa_r+0xa41>
 804fa25:	8b 45 98             	mov    -0x68(%ebp),%eax
 804fa28:	b9 39 00 00 00       	mov    $0x39,%ecx
 804fa2d:	8d 50 01             	lea    0x1(%eax),%edx
 804fa30:	c6 00 39             	movb   $0x39,(%eax)
 804fa33:	8b 45 b4             	mov    -0x4c(%ebp),%eax
 804fa36:	89 45 c0             	mov    %eax,-0x40(%ebp)
 804fa39:	8b 45 ac             	mov    -0x54(%ebp),%eax
 804fa3c:	89 45 b4             	mov    %eax,-0x4c(%ebp)
 804fa3f:	e9 fa f8 ff ff       	jmp    804f33e <_dtoa_r+0xa8e>
 804fa44:	8b 5d a0             	mov    -0x60(%ebp),%ebx
 804fa47:	89 7d a4             	mov    %edi,-0x5c(%ebp)
 804fa4a:	8b 7d 8c             	mov    -0x74(%ebp),%edi
 804fa4d:	83 fb 39             	cmp    $0x39,%ebx
 804fa50:	74 d3                	je     804fa25 <_dtoa_r+0x1175>
 804fa52:	8b 4d c0             	mov    -0x40(%ebp),%ecx
 804fa55:	8b 45 94             	mov    -0x6c(%ebp),%eax
 804fa58:	83 c0 31             	add    $0x31,%eax
 804fa5b:	85 c9                	test   %ecx,%ecx
 804fa5d:	8b 4d 98             	mov    -0x68(%ebp),%ecx
 804fa60:	0f 4e c3             	cmovle %ebx,%eax
 804fa63:	89 cb                	mov    %ecx,%ebx
 804fa65:	e9 c1 fe ff ff       	jmp    804f92b <_dtoa_r+0x107b>
 804fa6a:	0f 85 b2 fe ff ff    	jne    804f922 <_dtoa_r+0x1072>
 804fa70:	f6 45 a0 01          	testb  $0x1,-0x60(%ebp)
 804fa74:	0f 84 a8 fe ff ff    	je     804f922 <_dtoa_r+0x1072>
 804fa7a:	8d b6 00 00 00 00    	lea    0x0(%esi),%esi
 804fa80:	e9 8a fe ff ff       	jmp    804f90f <_dtoa_r+0x105f>
 804fa85:	0f 85 c7 f3 ff ff    	jne    804ee52 <_dtoa_r+0x5a2>
 804fa8b:	dd d8                	fstp   %st(0)
 804fa8d:	dd d8                	fstp   %st(0)
 804fa8f:	90                   	nop
 804fa90:	e9 65 fd ff ff       	jmp    804f7fa <_dtoa_r+0xf4a>
 804fa95:	89 45 a8             	mov    %eax,-0x58(%ebp)
 804fa98:	e9 dd f5 ff ff       	jmp    804f07a <_dtoa_r+0x7ca>
 804fa9d:	8d 76 00             	lea    0x0(%esi),%esi
 804faa0:	0f 84 7a f5 ff ff    	je     804f020 <_dtoa_r+0x770>
 804faa6:	b8 3c 00 00 00       	mov    $0x3c,%eax
 804faab:	29 d0                	sub    %edx,%eax
 804faad:	e9 ab f8 ff ff       	jmp    804f35d <_dtoa_r+0xaad>
 804fab2:	b8 01 00 00 00       	mov    $0x1,%eax
 804fab7:	e9 d9 ef ff ff       	jmp    804ea95 <_dtoa_r+0x1e5>
 804fabc:	31 d2                	xor    %edx,%edx
 804fabe:	e9 36 f1 ff ff       	jmp    804ebf9 <_dtoa_r+0x349>
 804fac3:	66 90                	xchg   %ax,%ax
 804fac5:	66 90                	xchg   %ax,%ax
 804fac7:	66 90                	xchg   %ax,%ax
 804fac9:	66 90                	xchg   %ax,%ax
 804facb:	66 90                	xchg   %ax,%ax
 804facd:	66 90                	xchg   %ax,%ax
 804facf:	90                   	nop

0804fad0 <__sflush_r>:
 804fad0:	55                   	push   %ebp
 804fad1:	89 e5                	mov    %esp,%ebp
 804fad3:	57                   	push   %edi
 804fad4:	56                   	push   %esi
 804fad5:	53                   	push   %ebx
 804fad6:	83 ec 1c             	sub    $0x1c,%esp
 804fad9:	8b 7d 0c             	mov    0xc(%ebp),%edi
 804fadc:	0f b7 47 0c          	movzwl 0xc(%edi),%eax
 804fae0:	a8 08                	test   $0x8,%al
 804fae2:	0f 85 c8 00 00 00    	jne    804fbb0 <__sflush_r+0xe0>
 804fae8:	8b 77 04             	mov    0x4(%edi),%esi
 804faeb:	89 c1                	mov    %eax,%ecx
 804faed:	80 cd 08             	or     $0x8,%ch
 804faf0:	66 89 4f 0c          	mov    %cx,0xc(%edi)
 804faf4:	85 f6                	test   %esi,%esi
 804faf6:	0f 8e 0c 01 00 00    	jle    804fc08 <__sflush_r+0x138>
 804fafc:	8b 57 28             	mov    0x28(%edi),%edx
 804faff:	85 d2                	test   %edx,%edx
 804fb01:	0f 84 98 00 00 00    	je     804fb9f <__sflush_r+0xcf>
 804fb07:	8b 75 08             	mov    0x8(%ebp),%esi
 804fb0a:	f6 c4 10             	test   $0x10,%ah
 804fb0d:	8b 1e                	mov    (%esi),%ebx
 804fb0f:	c7 06 00 00 00 00    	movl   $0x0,(%esi)
 804fb15:	0f 84 fd 00 00 00    	je     804fc18 <__sflush_r+0x148>
 804fb1b:	8b 47 50             	mov    0x50(%edi),%eax
 804fb1e:	83 e1 04             	and    $0x4,%ecx
 804fb21:	74 0d                	je     804fb30 <__sflush_r+0x60>
 804fb23:	8b 4f 30             	mov    0x30(%edi),%ecx
 804fb26:	2b 47 04             	sub    0x4(%edi),%eax
 804fb29:	85 c9                	test   %ecx,%ecx
 804fb2b:	74 03                	je     804fb30 <__sflush_r+0x60>
 804fb2d:	2b 47 3c             	sub    0x3c(%edi),%eax
 804fb30:	c7 44 24 0c 00 00 00 	movl   $0x0,0xc(%esp)
 804fb37:	00 
 804fb38:	89 44 24 08          	mov    %eax,0x8(%esp)
 804fb3c:	8b 47 1c             	mov    0x1c(%edi),%eax
 804fb3f:	89 44 24 04          	mov    %eax,0x4(%esp)
 804fb43:	8b 45 08             	mov    0x8(%ebp),%eax
 804fb46:	89 04 24             	mov    %eax,(%esp)
 804fb49:	ff d2                	call   *%edx
 804fb4b:	83 f8 ff             	cmp    $0xffffffff,%eax
 804fb4e:	0f 84 f4 00 00 00    	je     804fc48 <__sflush_r+0x178>
 804fb54:	0f b7 57 0c          	movzwl 0xc(%edi),%edx
 804fb58:	c7 47 04 00 00 00 00 	movl   $0x0,0x4(%edi)
 804fb5f:	89 d1                	mov    %edx,%ecx
 804fb61:	80 e5 f7             	and    $0xf7,%ch
 804fb64:	80 e6 10             	and    $0x10,%dh
 804fb67:	66 89 4f 0c          	mov    %cx,0xc(%edi)
 804fb6b:	8b 4f 10             	mov    0x10(%edi),%ecx
 804fb6e:	89 0f                	mov    %ecx,(%edi)
 804fb70:	0f 85 25 01 00 00    	jne    804fc9b <__sflush_r+0x1cb>
 804fb76:	8b 45 08             	mov    0x8(%ebp),%eax
 804fb79:	89 18                	mov    %ebx,(%eax)
 804fb7b:	8b 47 30             	mov    0x30(%edi),%eax
 804fb7e:	85 c0                	test   %eax,%eax
 804fb80:	74 1d                	je     804fb9f <__sflush_r+0xcf>
 804fb82:	8d 57 40             	lea    0x40(%edi),%edx
 804fb85:	39 d0                	cmp    %edx,%eax
 804fb87:	74 0f                	je     804fb98 <__sflush_r+0xc8>
 804fb89:	89 44 24 04          	mov    %eax,0x4(%esp)
 804fb8d:	8b 45 08             	mov    0x8(%ebp),%eax
 804fb90:	89 04 24             	mov    %eax,(%esp)
 804fb93:	e8 d8 06 00 00       	call   8050270 <_free_r>
 804fb98:	c7 47 30 00 00 00 00 	movl   $0x0,0x30(%edi)
 804fb9f:	31 c0                	xor    %eax,%eax
 804fba1:	83 c4 1c             	add    $0x1c,%esp
 804fba4:	5b                   	pop    %ebx
 804fba5:	5e                   	pop    %esi
 804fba6:	5f                   	pop    %edi
 804fba7:	5d                   	pop    %ebp
 804fba8:	c3                   	ret    
 804fba9:	8d b4 26 00 00 00 00 	lea    0x0(%esi,%eiz,1),%esi
 804fbb0:	8b 77 10             	mov    0x10(%edi),%esi
 804fbb3:	85 f6                	test   %esi,%esi
 804fbb5:	74 e8                	je     804fb9f <__sflush_r+0xcf>
 804fbb7:	8b 1f                	mov    (%edi),%ebx
 804fbb9:	31 c9                	xor    %ecx,%ecx
 804fbbb:	89 37                	mov    %esi,(%edi)
 804fbbd:	29 f3                	sub    %esi,%ebx
 804fbbf:	a8 03                	test   $0x3,%al
 804fbc1:	75 03                	jne    804fbc6 <__sflush_r+0xf6>
 804fbc3:	8b 4f 14             	mov    0x14(%edi),%ecx
 804fbc6:	85 db                	test   %ebx,%ebx
 804fbc8:	89 4f 08             	mov    %ecx,0x8(%edi)
 804fbcb:	7f 0b                	jg     804fbd8 <__sflush_r+0x108>
 804fbcd:	eb d0                	jmp    804fb9f <__sflush_r+0xcf>
 804fbcf:	90                   	nop
 804fbd0:	29 c3                	sub    %eax,%ebx
 804fbd2:	01 c6                	add    %eax,%esi
 804fbd4:	85 db                	test   %ebx,%ebx
 804fbd6:	7e c7                	jle    804fb9f <__sflush_r+0xcf>
 804fbd8:	89 5c 24 0c          	mov    %ebx,0xc(%esp)
 804fbdc:	89 74 24 08          	mov    %esi,0x8(%esp)
 804fbe0:	8b 47 1c             	mov    0x1c(%edi),%eax
 804fbe3:	89 44 24 04          	mov    %eax,0x4(%esp)
 804fbe7:	8b 45 08             	mov    0x8(%ebp),%eax
 804fbea:	89 04 24             	mov    %eax,(%esp)
 804fbed:	ff 57 24             	call   *0x24(%edi)
 804fbf0:	85 c0                	test   %eax,%eax
 804fbf2:	7f dc                	jg     804fbd0 <__sflush_r+0x100>
 804fbf4:	66 83 4f 0c 40       	orw    $0x40,0xc(%edi)
 804fbf9:	83 c4 1c             	add    $0x1c,%esp
 804fbfc:	5b                   	pop    %ebx
 804fbfd:	b8 ff ff ff ff       	mov    $0xffffffff,%eax
 804fc02:	5e                   	pop    %esi
 804fc03:	5f                   	pop    %edi
 804fc04:	5d                   	pop    %ebp
 804fc05:	c3                   	ret    
 804fc06:	66 90                	xchg   %ax,%ax
 804fc08:	8b 5f 3c             	mov    0x3c(%edi),%ebx
 804fc0b:	85 db                	test   %ebx,%ebx
 804fc0d:	0f 8f e9 fe ff ff    	jg     804fafc <__sflush_r+0x2c>
 804fc13:	eb 8a                	jmp    804fb9f <__sflush_r+0xcf>
 804fc15:	8d 76 00             	lea    0x0(%esi),%esi
 804fc18:	c7 44 24 0c 01 00 00 	movl   $0x1,0xc(%esp)
 804fc1f:	00 
 804fc20:	c7 44 24 08 00 00 00 	movl   $0x0,0x8(%esp)
 804fc27:	00 
 804fc28:	8b 47 1c             	mov    0x1c(%edi),%eax
 804fc2b:	89 44 24 04          	mov    %eax,0x4(%esp)
 804fc2f:	8b 45 08             	mov    0x8(%ebp),%eax
 804fc32:	89 04 24             	mov    %eax,(%esp)
 804fc35:	ff d2                	call   *%edx
 804fc37:	83 f8 ff             	cmp    $0xffffffff,%eax
 804fc3a:	74 3c                	je     804fc78 <__sflush_r+0x1a8>
 804fc3c:	0f b7 4f 0c          	movzwl 0xc(%edi),%ecx
 804fc40:	8b 57 28             	mov    0x28(%edi),%edx
 804fc43:	e9 d6 fe ff ff       	jmp    804fb1e <__sflush_r+0x4e>
 804fc48:	8b 55 08             	mov    0x8(%ebp),%edx
 804fc4b:	8b 12                	mov    (%edx),%edx
 804fc4d:	85 d2                	test   %edx,%edx
 804fc4f:	0f 84 ff fe ff ff    	je     804fb54 <__sflush_r+0x84>
 804fc55:	83 fa 1d             	cmp    $0x1d,%edx
 804fc58:	74 05                	je     804fc5f <__sflush_r+0x18f>
 804fc5a:	83 fa 16             	cmp    $0x16,%edx
 804fc5d:	75 95                	jne    804fbf4 <__sflush_r+0x124>
 804fc5f:	8b 47 10             	mov    0x10(%edi),%eax
 804fc62:	66 81 67 0c ff f7    	andw   $0xf7ff,0xc(%edi)
 804fc68:	c7 47 04 00 00 00 00 	movl   $0x0,0x4(%edi)
 804fc6f:	89 07                	mov    %eax,(%edi)
 804fc71:	e9 00 ff ff ff       	jmp    804fb76 <__sflush_r+0xa6>
 804fc76:	66 90                	xchg   %ax,%ax
 804fc78:	8b 55 08             	mov    0x8(%ebp),%edx
 804fc7b:	8b 12                	mov    (%edx),%edx
 804fc7d:	85 d2                	test   %edx,%edx
 804fc7f:	74 bb                	je     804fc3c <__sflush_r+0x16c>
 804fc81:	83 fa 16             	cmp    $0x16,%edx
 804fc84:	74 09                	je     804fc8f <__sflush_r+0x1bf>
 804fc86:	83 fa 1d             	cmp    $0x1d,%edx
 804fc89:	0f 85 65 ff ff ff    	jne    804fbf4 <__sflush_r+0x124>
 804fc8f:	8b 45 08             	mov    0x8(%ebp),%eax
 804fc92:	89 18                	mov    %ebx,(%eax)
 804fc94:	31 c0                	xor    %eax,%eax
 804fc96:	e9 06 ff ff ff       	jmp    804fba1 <__sflush_r+0xd1>
 804fc9b:	89 47 50             	mov    %eax,0x50(%edi)
 804fc9e:	e9 d3 fe ff ff       	jmp    804fb76 <__sflush_r+0xa6>
 804fca3:	8d b6 00 00 00 00    	lea    0x0(%esi),%esi
 804fca9:	8d bc 27 00 00 00 00 	lea    0x0(%edi,%eiz,1),%edi

0804fcb0 <_fflush_r>:
 804fcb0:	55                   	push   %ebp
 804fcb1:	89 e5                	mov    %esp,%ebp
 804fcb3:	56                   	push   %esi
 804fcb4:	53                   	push   %ebx
 804fcb5:	83 ec 10             	sub    $0x10,%esp
 804fcb8:	8b 5d 08             	mov    0x8(%ebp),%ebx
 804fcbb:	8b 75 0c             	mov    0xc(%ebp),%esi
 804fcbe:	85 db                	test   %ebx,%ebx
 804fcc0:	74 07                	je     804fcc9 <_fflush_r+0x19>
 804fcc2:	8b 43 38             	mov    0x38(%ebx),%eax
 804fcc5:	85 c0                	test   %eax,%eax
 804fcc7:	74 2f                	je     804fcf8 <_fflush_r+0x48>
 804fcc9:	66 83 7e 0c 00       	cmpw   $0x0,0xc(%esi)
 804fcce:	75 10                	jne    804fce0 <_fflush_r+0x30>
 804fcd0:	83 c4 10             	add    $0x10,%esp
 804fcd3:	31 c0                	xor    %eax,%eax
 804fcd5:	5b                   	pop    %ebx
 804fcd6:	5e                   	pop    %esi
 804fcd7:	5d                   	pop    %ebp
 804fcd8:	c3                   	ret    
 804fcd9:	8d b4 26 00 00 00 00 	lea    0x0(%esi,%eiz,1),%esi
 804fce0:	89 75 0c             	mov    %esi,0xc(%ebp)
 804fce3:	89 5d 08             	mov    %ebx,0x8(%ebp)
 804fce6:	83 c4 10             	add    $0x10,%esp
 804fce9:	5b                   	pop    %ebx
 804fcea:	5e                   	pop    %esi
 804fceb:	5d                   	pop    %ebp
 804fcec:	e9 df fd ff ff       	jmp    804fad0 <__sflush_r>
 804fcf1:	8d b4 26 00 00 00 00 	lea    0x0(%esi,%eiz,1),%esi
 804fcf8:	89 1c 24             	mov    %ebx,(%esp)
 804fcfb:	e8 20 01 00 00       	call   804fe20 <__sinit>
 804fd00:	eb c7                	jmp    804fcc9 <_fflush_r+0x19>
 804fd02:	8d b4 26 00 00 00 00 	lea    0x0(%esi,%eiz,1),%esi
 804fd09:	8d bc 27 00 00 00 00 	lea    0x0(%edi,%eiz,1),%edi

0804fd10 <fflush>:
 804fd10:	55                   	push   %ebp
 804fd11:	89 e5                	mov    %esp,%ebp
 804fd13:	53                   	push   %ebx
 804fd14:	83 ec 14             	sub    $0x14,%esp
 804fd17:	8b 5d 08             	mov    0x8(%ebp),%ebx
 804fd1a:	85 db                	test   %ebx,%ebx
 804fd1c:	74 1a                	je     804fd38 <fflush+0x28>
 804fd1e:	e8 9d 08 00 00       	call   80505c0 <__getreent>
 804fd23:	89 5c 24 04          	mov    %ebx,0x4(%esp)
 804fd27:	89 04 24             	mov    %eax,(%esp)
 804fd2a:	e8 81 ff ff ff       	call   804fcb0 <_fflush_r>
 804fd2f:	83 c4 14             	add    $0x14,%esp
 804fd32:	5b                   	pop    %ebx
 804fd33:	5d                   	pop    %ebp
 804fd34:	c3                   	ret    
 804fd35:	8d 76 00             	lea    0x0(%esi),%esi
 804fd38:	a1 20 68 05 08       	mov    0x8056820,%eax
 804fd3d:	c7 44 24 04 b0 fc 04 	movl   $0x804fcb0,0x4(%esp)
 804fd44:	08 
 804fd45:	89 04 24             	mov    %eax,(%esp)
 804fd48:	e8 f3 07 00 00       	call   8050540 <_fwalk_reent>
 804fd4d:	83 c4 14             	add    $0x14,%esp
 804fd50:	5b                   	pop    %ebx
 804fd51:	5d                   	pop    %ebp
 804fd52:	c3                   	ret    
 804fd53:	66 90                	xchg   %ax,%ax
 804fd55:	66 90                	xchg   %ax,%ax
 804fd57:	66 90                	xchg   %ax,%ax
 804fd59:	66 90                	xchg   %ax,%ax
 804fd5b:	66 90                	xchg   %ax,%ax
 804fd5d:	66 90                	xchg   %ax,%ax
 804fd5f:	90                   	nop

0804fd60 <__fp_lock>:
 804fd60:	55                   	push   %ebp
 804fd61:	31 c0                	xor    %eax,%eax
 804fd63:	89 e5                	mov    %esp,%ebp
 804fd65:	5d                   	pop    %ebp
 804fd66:	c3                   	ret    
 804fd67:	89 f6                	mov    %esi,%esi
 804fd69:	8d bc 27 00 00 00 00 	lea    0x0(%edi,%eiz,1),%edi

0804fd70 <__fp_unlock>:
 804fd70:	55                   	push   %ebp
 804fd71:	31 c0                	xor    %eax,%eax
 804fd73:	89 e5                	mov    %esp,%ebp
 804fd75:	5d                   	pop    %ebp
 804fd76:	c3                   	ret    
 804fd77:	89 f6                	mov    %esi,%esi
 804fd79:	8d bc 27 00 00 00 00 	lea    0x0(%edi,%eiz,1),%edi

0804fd80 <_cleanup_r>:
 804fd80:	55                   	push   %ebp
 804fd81:	89 e5                	mov    %esp,%ebp
 804fd83:	83 ec 18             	sub    $0x18,%esp
 804fd86:	8b 45 08             	mov    0x8(%ebp),%eax
 804fd89:	c7 44 24 04 b0 44 05 	movl   $0x80544b0,0x4(%esp)
 804fd90:	08 
 804fd91:	89 04 24             	mov    %eax,(%esp)
 804fd94:	e8 37 07 00 00       	call   80504d0 <_fwalk>
 804fd99:	c9                   	leave  
 804fd9a:	c3                   	ret    
 804fd9b:	90                   	nop
 804fd9c:	8d 74 26 00          	lea    0x0(%esi,%eiz,1),%esi

0804fda0 <__sfmoreglue>:
 804fda0:	55                   	push   %ebp
 804fda1:	89 e5                	mov    %esp,%ebp
 804fda3:	57                   	push   %edi
 804fda4:	56                   	push   %esi
 804fda5:	53                   	push   %ebx
 804fda6:	83 ec 1c             	sub    $0x1c,%esp
 804fda9:	8b 75 0c             	mov    0xc(%ebp),%esi
 804fdac:	8d 7e ff             	lea    -0x1(%esi),%edi
 804fdaf:	6b ff 68             	imul   $0x68,%edi,%edi
 804fdb2:	8d 47 74             	lea    0x74(%edi),%eax
 804fdb5:	89 44 24 04          	mov    %eax,0x4(%esp)
 804fdb9:	8b 45 08             	mov    0x8(%ebp),%eax
 804fdbc:	89 04 24             	mov    %eax,(%esp)
 804fdbf:	e8 5c 0a 00 00       	call   8050820 <_malloc_r>
 804fdc4:	85 c0                	test   %eax,%eax
 804fdc6:	89 c3                	mov    %eax,%ebx
 804fdc8:	74 26                	je     804fdf0 <__sfmoreglue+0x50>
 804fdca:	c7 00 00 00 00 00    	movl   $0x0,(%eax)
 804fdd0:	83 c7 68             	add    $0x68,%edi
 804fdd3:	89 70 04             	mov    %esi,0x4(%eax)
 804fdd6:	8d 40 0c             	lea    0xc(%eax),%eax
 804fdd9:	89 43 08             	mov    %eax,0x8(%ebx)
 804fddc:	89 7c 24 08          	mov    %edi,0x8(%esp)
 804fde0:	c7 44 24 04 00 00 00 	movl   $0x0,0x4(%esp)
 804fde7:	00 
 804fde8:	89 04 24             	mov    %eax,(%esp)
 804fdeb:	e8 26 a5 ff ff       	call   804a316 <memset>
 804fdf0:	83 c4 1c             	add    $0x1c,%esp
 804fdf3:	89 d8                	mov    %ebx,%eax
 804fdf5:	5b                   	pop    %ebx
 804fdf6:	5e                   	pop    %esi
 804fdf7:	5f                   	pop    %edi
 804fdf8:	5d                   	pop    %ebp
 804fdf9:	c3                   	ret    
 804fdfa:	8d b6 00 00 00 00    	lea    0x0(%esi),%esi

0804fe00 <_cleanup>:
 804fe00:	55                   	push   %ebp
 804fe01:	89 e5                	mov    %esp,%ebp
 804fe03:	83 ec 18             	sub    $0x18,%esp
 804fe06:	a1 20 68 05 08       	mov    0x8056820,%eax
 804fe0b:	c7 44 24 04 b0 44 05 	movl   $0x80544b0,0x4(%esp)
 804fe12:	08 
 804fe13:	89 04 24             	mov    %eax,(%esp)
 804fe16:	e8 b5 06 00 00       	call   80504d0 <_fwalk>
 804fe1b:	c9                   	leave  
 804fe1c:	c3                   	ret    
 804fe1d:	8d 76 00             	lea    0x0(%esi),%esi

0804fe20 <__sinit>:
 804fe20:	55                   	push   %ebp
 804fe21:	89 e5                	mov    %esp,%ebp
 804fe23:	56                   	push   %esi
 804fe24:	53                   	push   %ebx
 804fe25:	83 ec 10             	sub    $0x10,%esp
 804fe28:	8b 75 08             	mov    0x8(%ebp),%esi
 804fe2b:	8b 46 38             	mov    0x38(%esi),%eax
 804fe2e:	85 c0                	test   %eax,%eax
 804fe30:	0f 85 a8 01 00 00    	jne    804ffde <__sinit+0x1be>
 804fe36:	8b 5e 04             	mov    0x4(%esi),%ebx
 804fe39:	8d 86 ec 02 00 00    	lea    0x2ec(%esi),%eax
 804fe3f:	31 d2                	xor    %edx,%edx
 804fe41:	89 86 e8 02 00 00    	mov    %eax,0x2e8(%esi)
 804fe47:	b8 04 00 00 00       	mov    $0x4,%eax
 804fe4c:	c7 46 3c 80 fd 04 08 	movl   $0x804fd80,0x3c(%esi)
 804fe53:	c7 86 e0 02 00 00 00 	movl   $0x0,0x2e0(%esi)
 804fe5a:	00 00 00 
 804fe5d:	c7 86 e4 02 00 00 03 	movl   $0x3,0x2e4(%esi)
 804fe64:	00 00 00 
 804fe67:	66 89 43 0c          	mov    %ax,0xc(%ebx)
 804fe6b:	8d 43 5c             	lea    0x5c(%ebx),%eax
 804fe6e:	66 89 53 0e          	mov    %dx,0xe(%ebx)
 804fe72:	c7 03 00 00 00 00    	movl   $0x0,(%ebx)
 804fe78:	c7 43 04 00 00 00 00 	movl   $0x0,0x4(%ebx)
 804fe7f:	c7 43 08 00 00 00 00 	movl   $0x0,0x8(%ebx)
 804fe86:	c7 43 64 00 00 00 00 	movl   $0x0,0x64(%ebx)
 804fe8d:	c7 43 10 00 00 00 00 	movl   $0x0,0x10(%ebx)
 804fe94:	c7 43 14 00 00 00 00 	movl   $0x0,0x14(%ebx)
 804fe9b:	c7 43 18 00 00 00 00 	movl   $0x0,0x18(%ebx)
 804fea2:	c7 44 24 08 08 00 00 	movl   $0x8,0x8(%esp)
 804fea9:	00 
 804feaa:	c7 44 24 04 00 00 00 	movl   $0x0,0x4(%esp)
 804feb1:	00 
 804feb2:	89 04 24             	mov    %eax,(%esp)
 804feb5:	e8 5c a4 ff ff       	call   804a316 <memset>
 804feba:	b8 01 00 00 00       	mov    $0x1,%eax
 804febf:	b9 09 00 00 00       	mov    $0x9,%ecx
 804fec4:	89 5b 1c             	mov    %ebx,0x1c(%ebx)
 804fec7:	c7 43 20 f0 1e 05 08 	movl   $0x8051ef0,0x20(%ebx)
 804fece:	c7 43 24 50 1f 05 08 	movl   $0x8051f50,0x24(%ebx)
 804fed5:	c7 43 28 c0 1f 05 08 	movl   $0x8051fc0,0x28(%ebx)
 804fedc:	c7 43 2c 10 20 05 08 	movl   $0x8052010,0x2c(%ebx)
 804fee3:	8b 5e 08             	mov    0x8(%esi),%ebx
 804fee6:	66 89 43 0e          	mov    %ax,0xe(%ebx)
 804feea:	8d 43 5c             	lea    0x5c(%ebx),%eax
 804feed:	66 89 4b 0c          	mov    %cx,0xc(%ebx)
 804fef1:	c7 03 00 00 00 00    	movl   $0x0,(%ebx)
 804fef7:	c7 43 04 00 00 00 00 	movl   $0x0,0x4(%ebx)
 804fefe:	c7 43 08 00 00 00 00 	movl   $0x0,0x8(%ebx)
 804ff05:	c7 43 64 00 00 00 00 	movl   $0x0,0x64(%ebx)
 804ff0c:	c7 43 10 00 00 00 00 	movl   $0x0,0x10(%ebx)
 804ff13:	c7 43 14 00 00 00 00 	movl   $0x0,0x14(%ebx)
 804ff1a:	c7 43 18 00 00 00 00 	movl   $0x0,0x18(%ebx)
 804ff21:	c7 44 24 08 08 00 00 	movl   $0x8,0x8(%esp)
 804ff28:	00 
 804ff29:	c7 44 24 04 00 00 00 	movl   $0x0,0x4(%esp)
 804ff30:	00 
 804ff31:	89 04 24             	mov    %eax,(%esp)
 804ff34:	e8 dd a3 ff ff       	call   804a316 <memset>
 804ff39:	b8 12 00 00 00       	mov    $0x12,%eax
 804ff3e:	89 5b 1c             	mov    %ebx,0x1c(%ebx)
 804ff41:	c7 43 20 f0 1e 05 08 	movl   $0x8051ef0,0x20(%ebx)
 804ff48:	c7 43 24 50 1f 05 08 	movl   $0x8051f50,0x24(%ebx)
 804ff4f:	c7 43 28 c0 1f 05 08 	movl   $0x8051fc0,0x28(%ebx)
 804ff56:	c7 43 2c 10 20 05 08 	movl   $0x8052010,0x2c(%ebx)
 804ff5d:	8b 5e 0c             	mov    0xc(%esi),%ebx
 804ff60:	66 89 43 0c          	mov    %ax,0xc(%ebx)
 804ff64:	b8 02 00 00 00       	mov    $0x2,%eax
 804ff69:	66 89 43 0e          	mov    %ax,0xe(%ebx)
 804ff6d:	8d 43 5c             	lea    0x5c(%ebx),%eax
 804ff70:	c7 03 00 00 00 00    	movl   $0x0,(%ebx)
 804ff76:	c7 43 04 00 00 00 00 	movl   $0x0,0x4(%ebx)
 804ff7d:	c7 43 08 00 00 00 00 	movl   $0x0,0x8(%ebx)
 804ff84:	c7 43 64 00 00 00 00 	movl   $0x0,0x64(%ebx)
 804ff8b:	c7 43 10 00 00 00 00 	movl   $0x0,0x10(%ebx)
 804ff92:	c7 43 14 00 00 00 00 	movl   $0x0,0x14(%ebx)
 804ff99:	c7 43 18 00 00 00 00 	movl   $0x0,0x18(%ebx)
 804ffa0:	c7 44 24 08 08 00 00 	movl   $0x8,0x8(%esp)
 804ffa7:	00 
 804ffa8:	c7 44 24 04 00 00 00 	movl   $0x0,0x4(%esp)
 804ffaf:	00 
 804ffb0:	89 04 24             	mov    %eax,(%esp)
 804ffb3:	e8 5e a3 ff ff       	call   804a316 <memset>
 804ffb8:	89 5b 1c             	mov    %ebx,0x1c(%ebx)
 804ffbb:	c7 43 20 f0 1e 05 08 	movl   $0x8051ef0,0x20(%ebx)
 804ffc2:	c7 43 24 50 1f 05 08 	movl   $0x8051f50,0x24(%ebx)
 804ffc9:	c7 43 28 c0 1f 05 08 	movl   $0x8051fc0,0x28(%ebx)
 804ffd0:	c7 43 2c 10 20 05 08 	movl   $0x8052010,0x2c(%ebx)
 804ffd7:	c7 46 38 01 00 00 00 	movl   $0x1,0x38(%esi)
 804ffde:	83 c4 10             	add    $0x10,%esp
 804ffe1:	5b                   	pop    %ebx
 804ffe2:	5e                   	pop    %esi
 804ffe3:	5d                   	pop    %ebp
 804ffe4:	c3                   	ret    
 804ffe5:	8d 74 26 00          	lea    0x0(%esi,%eiz,1),%esi
 804ffe9:	8d bc 27 00 00 00 00 	lea    0x0(%edi,%eiz,1),%edi

0804fff0 <__sfp>:
 804fff0:	55                   	push   %ebp
 804fff1:	89 e5                	mov    %esp,%ebp
 804fff3:	56                   	push   %esi
 804fff4:	53                   	push   %ebx
 804fff5:	83 ec 10             	sub    $0x10,%esp
 804fff8:	8b 35 20 68 05 08    	mov    0x8056820,%esi
 804fffe:	8b 4e 38             	mov    0x38(%esi),%ecx
 8050001:	85 c9                	test   %ecx,%ecx
 8050003:	0f 84 bf 00 00 00    	je     80500c8 <__sfp+0xd8>
 8050009:	81 c6 e0 02 00 00    	add    $0x2e0,%esi
 805000f:	8b 46 04             	mov    0x4(%esi),%eax
 8050012:	8b 5e 08             	mov    0x8(%esi),%ebx
 8050015:	83 e8 01             	sub    $0x1,%eax
 8050018:	79 15                	jns    805002f <__sfp+0x3f>
 805001a:	e9 99 00 00 00       	jmp    80500b8 <__sfp+0xc8>
 805001f:	90                   	nop
 8050020:	83 e8 01             	sub    $0x1,%eax
 8050023:	83 c3 68             	add    $0x68,%ebx
 8050026:	83 f8 ff             	cmp    $0xffffffff,%eax
 8050029:	0f 84 89 00 00 00    	je     80500b8 <__sfp+0xc8>
 805002f:	66 83 7b 0c 00       	cmpw   $0x0,0xc(%ebx)
 8050034:	75 ea                	jne    8050020 <__sfp+0x30>
 8050036:	b8 ff ff ff ff       	mov    $0xffffffff,%eax
 805003b:	ba 01 00 00 00       	mov    $0x1,%edx
 8050040:	66 89 43 0e          	mov    %ax,0xe(%ebx)
 8050044:	8d 43 5c             	lea    0x5c(%ebx),%eax
 8050047:	66 89 53 0c          	mov    %dx,0xc(%ebx)
 805004b:	c7 43 64 00 00 00 00 	movl   $0x0,0x64(%ebx)
 8050052:	c7 03 00 00 00 00    	movl   $0x0,(%ebx)
 8050058:	c7 43 08 00 00 00 00 	movl   $0x0,0x8(%ebx)
 805005f:	c7 43 04 00 00 00 00 	movl   $0x0,0x4(%ebx)
 8050066:	c7 43 10 00 00 00 00 	movl   $0x0,0x10(%ebx)
 805006d:	c7 43 14 00 00 00 00 	movl   $0x0,0x14(%ebx)
 8050074:	c7 43 18 00 00 00 00 	movl   $0x0,0x18(%ebx)
 805007b:	c7 44 24 08 08 00 00 	movl   $0x8,0x8(%esp)
 8050082:	00 
 8050083:	c7 44 24 04 00 00 00 	movl   $0x0,0x4(%esp)
 805008a:	00 
 805008b:	89 04 24             	mov    %eax,(%esp)
 805008e:	e8 83 a2 ff ff       	call   804a316 <memset>
 8050093:	89 d8                	mov    %ebx,%eax
 8050095:	c7 43 30 00 00 00 00 	movl   $0x0,0x30(%ebx)
 805009c:	c7 43 34 00 00 00 00 	movl   $0x0,0x34(%ebx)
 80500a3:	c7 43 44 00 00 00 00 	movl   $0x0,0x44(%ebx)
 80500aa:	c7 43 48 00 00 00 00 	movl   $0x0,0x48(%ebx)
 80500b1:	83 c4 10             	add    $0x10,%esp
 80500b4:	5b                   	pop    %ebx
 80500b5:	5e                   	pop    %esi
 80500b6:	5d                   	pop    %ebp
 80500b7:	c3                   	ret    
 80500b8:	8b 06                	mov    (%esi),%eax
 80500ba:	85 c0                	test   %eax,%eax
 80500bc:	74 17                	je     80500d5 <__sfp+0xe5>
 80500be:	89 c6                	mov    %eax,%esi
 80500c0:	e9 4a ff ff ff       	jmp    805000f <__sfp+0x1f>
 80500c5:	8d 76 00             	lea    0x0(%esi),%esi
 80500c8:	89 34 24             	mov    %esi,(%esp)
 80500cb:	e8 50 fd ff ff       	call   804fe20 <__sinit>
 80500d0:	e9 34 ff ff ff       	jmp    8050009 <__sfp+0x19>
 80500d5:	8b 45 08             	mov    0x8(%ebp),%eax
 80500d8:	c7 44 24 04 04 00 00 	movl   $0x4,0x4(%esp)
 80500df:	00 
 80500e0:	89 04 24             	mov    %eax,(%esp)
 80500e3:	e8 b8 fc ff ff       	call   804fda0 <__sfmoreglue>
 80500e8:	85 c0                	test   %eax,%eax
 80500ea:	89 06                	mov    %eax,(%esi)
 80500ec:	75 d0                	jne    80500be <__sfp+0xce>
 80500ee:	8b 45 08             	mov    0x8(%ebp),%eax
 80500f1:	c7 00 0c 00 00 00    	movl   $0xc,(%eax)
 80500f7:	31 c0                	xor    %eax,%eax
 80500f9:	eb b6                	jmp    80500b1 <__sfp+0xc1>
 80500fb:	90                   	nop
 80500fc:	8d 74 26 00          	lea    0x0(%esi,%eiz,1),%esi

08050100 <__sfp_lock_acquire>:
 8050100:	55                   	push   %ebp
 8050101:	89 e5                	mov    %esp,%ebp
 8050103:	5d                   	pop    %ebp
 8050104:	c3                   	ret    
 8050105:	8d 74 26 00          	lea    0x0(%esi,%eiz,1),%esi
 8050109:	8d bc 27 00 00 00 00 	lea    0x0(%edi,%eiz,1),%edi

08050110 <__sfp_lock_release>:
 8050110:	55                   	push   %ebp
 8050111:	89 e5                	mov    %esp,%ebp
 8050113:	5d                   	pop    %ebp
 8050114:	c3                   	ret    
 8050115:	8d 74 26 00          	lea    0x0(%esi,%eiz,1),%esi
 8050119:	8d bc 27 00 00 00 00 	lea    0x0(%edi,%eiz,1),%edi

08050120 <__sinit_lock_acquire>:
 8050120:	55                   	push   %ebp
 8050121:	89 e5                	mov    %esp,%ebp
 8050123:	5d                   	pop    %ebp
 8050124:	c3                   	ret    
 8050125:	8d 74 26 00          	lea    0x0(%esi,%eiz,1),%esi
 8050129:	8d bc 27 00 00 00 00 	lea    0x0(%edi,%eiz,1),%edi

08050130 <__sinit_lock_release>:
 8050130:	55                   	push   %ebp
 8050131:	89 e5                	mov    %esp,%ebp
 8050133:	5d                   	pop    %ebp
 8050134:	c3                   	ret    
 8050135:	8d 74 26 00          	lea    0x0(%esi,%eiz,1),%esi
 8050139:	8d bc 27 00 00 00 00 	lea    0x0(%edi,%eiz,1),%edi

08050140 <__fp_lock_all>:
 8050140:	55                   	push   %ebp
 8050141:	89 e5                	mov    %esp,%ebp
 8050143:	83 ec 18             	sub    $0x18,%esp
 8050146:	e8 75 04 00 00       	call   80505c0 <__getreent>
 805014b:	c7 44 24 04 60 fd 04 	movl   $0x804fd60,0x4(%esp)
 8050152:	08 
 8050153:	89 04 24             	mov    %eax,(%esp)
 8050156:	e8 75 03 00 00       	call   80504d0 <_fwalk>
 805015b:	c9                   	leave  
 805015c:	c3                   	ret    
 805015d:	8d 76 00             	lea    0x0(%esi),%esi

08050160 <__fp_unlock_all>:
 8050160:	55                   	push   %ebp
 8050161:	89 e5                	mov    %esp,%ebp
 8050163:	83 ec 18             	sub    $0x18,%esp
 8050166:	e8 55 04 00 00       	call   80505c0 <__getreent>
 805016b:	c7 44 24 04 70 fd 04 	movl   $0x804fd70,0x4(%esp)
 8050172:	08 
 8050173:	89 04 24             	mov    %eax,(%esp)
 8050176:	e8 55 03 00 00       	call   80504d0 <_fwalk>
 805017b:	c9                   	leave  
 805017c:	c3                   	ret    
 805017d:	66 90                	xchg   %ax,%ax
 805017f:	90                   	nop

08050180 <_malloc_trim_r>:
 8050180:	55                   	push   %ebp
 8050181:	89 e5                	mov    %esp,%ebp
 8050183:	57                   	push   %edi
 8050184:	56                   	push   %esi
 8050185:	53                   	push   %ebx
 8050186:	83 ec 1c             	sub    $0x1c,%esp
 8050189:	8b 75 08             	mov    0x8(%ebp),%esi
 805018c:	89 34 24             	mov    %esi,(%esp)
 805018f:	e8 ac 0e 00 00       	call   8051040 <__malloc_lock>
 8050194:	a1 c8 a9 05 08       	mov    0x805a9c8,%eax
 8050199:	8b 58 04             	mov    0x4(%eax),%ebx
 805019c:	83 e3 fc             	and    $0xfffffffc,%ebx
 805019f:	89 d8                	mov    %ebx,%eax
 80501a1:	2b 45 0c             	sub    0xc(%ebp),%eax
 80501a4:	05 ef 0f 00 00       	add    $0xfef,%eax
 80501a9:	25 00 f0 ff ff       	and    $0xfffff000,%eax
 80501ae:	8d b8 00 f0 ff ff    	lea    -0x1000(%eax),%edi
 80501b4:	81 ff ff 0f 00 00    	cmp    $0xfff,%edi
 80501ba:	7e 1c                	jle    80501d8 <_malloc_trim_r+0x58>
 80501bc:	c7 44 24 04 00 00 00 	movl   $0x0,0x4(%esp)
 80501c3:	00 
 80501c4:	89 34 24             	mov    %esi,(%esp)
 80501c7:	e8 74 1c 00 00       	call   8051e40 <_sbrk_r>
 80501cc:	8b 15 c8 a9 05 08    	mov    0x805a9c8,%edx
 80501d2:	01 da                	add    %ebx,%edx
 80501d4:	39 d0                	cmp    %edx,%eax
 80501d6:	74 18                	je     80501f0 <_malloc_trim_r+0x70>
 80501d8:	89 34 24             	mov    %esi,(%esp)
 80501db:	e8 70 0e 00 00       	call   8051050 <__malloc_unlock>
 80501e0:	83 c4 1c             	add    $0x1c,%esp
 80501e3:	31 c0                	xor    %eax,%eax
 80501e5:	5b                   	pop    %ebx
 80501e6:	5e                   	pop    %esi
 80501e7:	5f                   	pop    %edi
 80501e8:	5d                   	pop    %ebp
 80501e9:	c3                   	ret    
 80501ea:	8d b6 00 00 00 00    	lea    0x0(%esi),%esi
 80501f0:	89 f8                	mov    %edi,%eax
 80501f2:	f7 d8                	neg    %eax
 80501f4:	89 44 24 04          	mov    %eax,0x4(%esp)
 80501f8:	89 34 24             	mov    %esi,(%esp)
 80501fb:	e8 40 1c 00 00       	call   8051e40 <_sbrk_r>
 8050200:	83 f8 ff             	cmp    $0xffffffff,%eax
 8050203:	74 2b                	je     8050230 <_malloc_trim_r+0xb0>
 8050205:	a1 c8 a9 05 08       	mov    0x805a9c8,%eax
 805020a:	29 fb                	sub    %edi,%ebx
 805020c:	83 cb 01             	or     $0x1,%ebx
 805020f:	29 3d 60 06 07 08    	sub    %edi,0x8070660
 8050215:	89 58 04             	mov    %ebx,0x4(%eax)
 8050218:	89 34 24             	mov    %esi,(%esp)
 805021b:	e8 30 0e 00 00       	call   8051050 <__malloc_unlock>
 8050220:	83 c4 1c             	add    $0x1c,%esp
 8050223:	b8 01 00 00 00       	mov    $0x1,%eax
 8050228:	5b                   	pop    %ebx
 8050229:	5e                   	pop    %esi
 805022a:	5f                   	pop    %edi
 805022b:	5d                   	pop    %ebp
 805022c:	c3                   	ret    
 805022d:	8d 76 00             	lea    0x0(%esi),%esi
 8050230:	c7 44 24 04 00 00 00 	movl   $0x0,0x4(%esp)
 8050237:	00 
 8050238:	89 34 24             	mov    %esi,(%esp)
 805023b:	e8 00 1c 00 00       	call   8051e40 <_sbrk_r>
 8050240:	8b 15 c8 a9 05 08    	mov    0x805a9c8,%edx
 8050246:	89 c1                	mov    %eax,%ecx
 8050248:	29 d1                	sub    %edx,%ecx
 805024a:	83 f9 0f             	cmp    $0xf,%ecx
 805024d:	7e 89                	jle    80501d8 <_malloc_trim_r+0x58>
 805024f:	2b 05 a0 a9 05 08    	sub    0x805a9a0,%eax
 8050255:	83 c9 01             	or     $0x1,%ecx
 8050258:	89 4a 04             	mov    %ecx,0x4(%edx)
 805025b:	a3 60 06 07 08       	mov    %eax,0x8070660
 8050260:	e9 73 ff ff ff       	jmp    80501d8 <_malloc_trim_r+0x58>
 8050265:	8d 74 26 00          	lea    0x0(%esi,%eiz,1),%esi
 8050269:	8d bc 27 00 00 00 00 	lea    0x0(%edi,%eiz,1),%edi

08050270 <_free_r>:
 8050270:	55                   	push   %ebp
 8050271:	89 e5                	mov    %esp,%ebp
 8050273:	57                   	push   %edi
 8050274:	56                   	push   %esi
 8050275:	53                   	push   %ebx
 8050276:	83 ec 1c             	sub    $0x1c,%esp
 8050279:	8b 75 0c             	mov    0xc(%ebp),%esi
 805027c:	8b 45 08             	mov    0x8(%ebp),%eax
 805027f:	85 f6                	test   %esi,%esi
 8050281:	89 45 e4             	mov    %eax,-0x1c(%ebp)
 8050284:	0f 84 fe 00 00 00    	je     8050388 <_free_r+0x118>
 805028a:	89 04 24             	mov    %eax,(%esp)
 805028d:	e8 ae 0d 00 00       	call   8051040 <__malloc_lock>
 8050292:	8b 7e fc             	mov    -0x4(%esi),%edi
 8050295:	8d 56 f8             	lea    -0x8(%esi),%edx
 8050298:	89 f8                	mov    %edi,%eax
 805029a:	83 e0 fe             	and    $0xfffffffe,%eax
 805029d:	8d 0c 02             	lea    (%edx,%eax,1),%ecx
 80502a0:	8b 59 04             	mov    0x4(%ecx),%ebx
 80502a3:	83 e3 fc             	and    $0xfffffffc,%ebx
 80502a6:	39 0d c8 a9 05 08    	cmp    %ecx,0x805a9c8
 80502ac:	0f 84 0e 01 00 00    	je     80503c0 <_free_r+0x150>
 80502b2:	83 e7 01             	and    $0x1,%edi
 80502b5:	89 59 04             	mov    %ebx,0x4(%ecx)
 80502b8:	c7 45 e0 00 00 00 00 	movl   $0x0,-0x20(%ebp)
 80502bf:	75 1f                	jne    80502e0 <_free_r+0x70>
 80502c1:	8b 76 f8             	mov    -0x8(%esi),%esi
 80502c4:	29 f2                	sub    %esi,%edx
 80502c6:	01 f0                	add    %esi,%eax
 80502c8:	8b 72 08             	mov    0x8(%edx),%esi
 80502cb:	81 fe c8 a9 05 08    	cmp    $0x805a9c8,%esi
 80502d1:	0f 84 39 01 00 00    	je     8050410 <_free_r+0x1a0>
 80502d7:	8b 7a 0c             	mov    0xc(%edx),%edi
 80502da:	89 7e 0c             	mov    %edi,0xc(%esi)
 80502dd:	89 77 08             	mov    %esi,0x8(%edi)
 80502e0:	f6 44 19 04 01       	testb  $0x1,0x4(%ecx,%ebx,1)
 80502e5:	75 21                	jne    8050308 <_free_r+0x98>
 80502e7:	8b 75 e0             	mov    -0x20(%ebp),%esi
 80502ea:	01 d8                	add    %ebx,%eax
 80502ec:	8b 59 08             	mov    0x8(%ecx),%ebx
 80502ef:	85 f6                	test   %esi,%esi
 80502f1:	75 0c                	jne    80502ff <_free_r+0x8f>
 80502f3:	81 fb c8 a9 05 08    	cmp    $0x805a9c8,%ebx
 80502f9:	0f 84 21 01 00 00    	je     8050420 <_free_r+0x1b0>
 80502ff:	8b 49 0c             	mov    0xc(%ecx),%ecx
 8050302:	89 4b 0c             	mov    %ecx,0xc(%ebx)
 8050305:	89 59 08             	mov    %ebx,0x8(%ecx)
 8050308:	89 c1                	mov    %eax,%ecx
 805030a:	83 c9 01             	or     $0x1,%ecx
 805030d:	89 4a 04             	mov    %ecx,0x4(%edx)
 8050310:	8b 4d e0             	mov    -0x20(%ebp),%ecx
 8050313:	89 04 02             	mov    %eax,(%edx,%eax,1)
 8050316:	85 c9                	test   %ecx,%ecx
 8050318:	75 56                	jne    8050370 <_free_r+0x100>
 805031a:	3d ff 01 00 00       	cmp    $0x1ff,%eax
 805031f:	76 6f                	jbe    8050390 <_free_r+0x120>
 8050321:	89 c1                	mov    %eax,%ecx
 8050323:	c1 e9 09             	shr    $0x9,%ecx
 8050326:	83 f9 04             	cmp    $0x4,%ecx
 8050329:	0f 87 21 01 00 00    	ja     8050450 <_free_r+0x1e0>
 805032f:	89 c1                	mov    %eax,%ecx
 8050331:	c1 e9 06             	shr    $0x6,%ecx
 8050334:	83 c1 38             	add    $0x38,%ecx
 8050337:	8d 1c 09             	lea    (%ecx,%ecx,1),%ebx
 805033a:	8d 34 9d c0 a9 05 08 	lea    0x805a9c0(,%ebx,4),%esi
 8050341:	8b 5e 08             	mov    0x8(%esi),%ebx
 8050344:	39 f3                	cmp    %esi,%ebx
 8050346:	0f 84 14 01 00 00    	je     8050460 <_free_r+0x1f0>
 805034c:	8d 74 26 00          	lea    0x0(%esi,%eiz,1),%esi
 8050350:	8b 4b 04             	mov    0x4(%ebx),%ecx
 8050353:	83 e1 fc             	and    $0xfffffffc,%ecx
 8050356:	39 c8                	cmp    %ecx,%eax
 8050358:	73 07                	jae    8050361 <_free_r+0xf1>
 805035a:	8b 5b 08             	mov    0x8(%ebx),%ebx
 805035d:	39 de                	cmp    %ebx,%esi
 805035f:	75 ef                	jne    8050350 <_free_r+0xe0>
 8050361:	8b 43 0c             	mov    0xc(%ebx),%eax
 8050364:	89 42 0c             	mov    %eax,0xc(%edx)
 8050367:	89 5a 08             	mov    %ebx,0x8(%edx)
 805036a:	89 50 08             	mov    %edx,0x8(%eax)
 805036d:	89 53 0c             	mov    %edx,0xc(%ebx)
 8050370:	8b 45 e4             	mov    -0x1c(%ebp),%eax
 8050373:	89 45 08             	mov    %eax,0x8(%ebp)
 8050376:	83 c4 1c             	add    $0x1c,%esp
 8050379:	5b                   	pop    %ebx
 805037a:	5e                   	pop    %esi
 805037b:	5f                   	pop    %edi
 805037c:	5d                   	pop    %ebp
 805037d:	e9 ce 0c 00 00       	jmp    8051050 <__malloc_unlock>
 8050382:	8d b6 00 00 00 00    	lea    0x0(%esi),%esi
 8050388:	83 c4 1c             	add    $0x1c,%esp
 805038b:	5b                   	pop    %ebx
 805038c:	5e                   	pop    %esi
 805038d:	5f                   	pop    %edi
 805038e:	5d                   	pop    %ebp
 805038f:	c3                   	ret    
 8050390:	c1 e8 03             	shr    $0x3,%eax
 8050393:	bb 01 00 00 00       	mov    $0x1,%ebx
 8050398:	89 c1                	mov    %eax,%ecx
 805039a:	c1 f9 02             	sar    $0x2,%ecx
 805039d:	8d 04 c5 c0 a9 05 08 	lea    0x805a9c0(,%eax,8),%eax
 80503a4:	d3 e3                	shl    %cl,%ebx
 80503a6:	8b 48 08             	mov    0x8(%eax),%ecx
 80503a9:	09 1d c4 a9 05 08    	or     %ebx,0x805a9c4
 80503af:	89 42 0c             	mov    %eax,0xc(%edx)
 80503b2:	89 4a 08             	mov    %ecx,0x8(%edx)
 80503b5:	89 50 08             	mov    %edx,0x8(%eax)
 80503b8:	89 51 0c             	mov    %edx,0xc(%ecx)
 80503bb:	eb b3                	jmp    8050370 <_free_r+0x100>
 80503bd:	8d 76 00             	lea    0x0(%esi),%esi
 80503c0:	01 d8                	add    %ebx,%eax
 80503c2:	83 e7 01             	and    $0x1,%edi
 80503c5:	75 13                	jne    80503da <_free_r+0x16a>
 80503c7:	8b 4e f8             	mov    -0x8(%esi),%ecx
 80503ca:	29 ca                	sub    %ecx,%edx
 80503cc:	01 c8                	add    %ecx,%eax
 80503ce:	8b 5a 08             	mov    0x8(%edx),%ebx
 80503d1:	8b 4a 0c             	mov    0xc(%edx),%ecx
 80503d4:	89 4b 0c             	mov    %ecx,0xc(%ebx)
 80503d7:	89 59 08             	mov    %ebx,0x8(%ecx)
 80503da:	89 c1                	mov    %eax,%ecx
 80503dc:	83 c9 01             	or     $0x1,%ecx
 80503df:	3b 05 a4 a9 05 08    	cmp    0x805a9a4,%eax
 80503e5:	89 4a 04             	mov    %ecx,0x4(%edx)
 80503e8:	89 15 c8 a9 05 08    	mov    %edx,0x805a9c8
 80503ee:	72 80                	jb     8050370 <_free_r+0x100>
 80503f0:	a1 90 06 07 08       	mov    0x8070690,%eax
 80503f5:	89 44 24 04          	mov    %eax,0x4(%esp)
 80503f9:	8b 45 e4             	mov    -0x1c(%ebp),%eax
 80503fc:	89 04 24             	mov    %eax,(%esp)
 80503ff:	e8 7c fd ff ff       	call   8050180 <_malloc_trim_r>
 8050404:	e9 67 ff ff ff       	jmp    8050370 <_free_r+0x100>
 8050409:	8d b4 26 00 00 00 00 	lea    0x0(%esi,%eiz,1),%esi
 8050410:	c7 45 e0 01 00 00 00 	movl   $0x1,-0x20(%ebp)
 8050417:	e9 c4 fe ff ff       	jmp    80502e0 <_free_r+0x70>
 805041c:	8d 74 26 00          	lea    0x0(%esi,%eiz,1),%esi
 8050420:	89 c1                	mov    %eax,%ecx
 8050422:	83 c9 01             	or     $0x1,%ecx
 8050425:	89 15 d4 a9 05 08    	mov    %edx,0x805a9d4
 805042b:	89 15 d0 a9 05 08    	mov    %edx,0x805a9d0
 8050431:	c7 42 0c c8 a9 05 08 	movl   $0x805a9c8,0xc(%edx)
 8050438:	c7 42 08 c8 a9 05 08 	movl   $0x805a9c8,0x8(%edx)
 805043f:	89 4a 04             	mov    %ecx,0x4(%edx)
 8050442:	89 04 02             	mov    %eax,(%edx,%eax,1)
 8050445:	e9 26 ff ff ff       	jmp    8050370 <_free_r+0x100>
 805044a:	8d b6 00 00 00 00    	lea    0x0(%esi),%esi
 8050450:	83 f9 14             	cmp    $0x14,%ecx
 8050453:	77 23                	ja     8050478 <_free_r+0x208>
 8050455:	83 c1 5b             	add    $0x5b,%ecx
 8050458:	8d 1c 09             	lea    (%ecx,%ecx,1),%ebx
 805045b:	e9 da fe ff ff       	jmp    805033a <_free_r+0xca>
 8050460:	c1 f9 02             	sar    $0x2,%ecx
 8050463:	b8 01 00 00 00       	mov    $0x1,%eax
 8050468:	d3 e0                	shl    %cl,%eax
 805046a:	09 05 c4 a9 05 08    	or     %eax,0x805a9c4
 8050470:	89 d8                	mov    %ebx,%eax
 8050472:	e9 ed fe ff ff       	jmp    8050364 <_free_r+0xf4>
 8050477:	90                   	nop
 8050478:	83 f9 54             	cmp    $0x54,%ecx
 805047b:	77 10                	ja     805048d <_free_r+0x21d>
 805047d:	89 c1                	mov    %eax,%ecx
 805047f:	c1 e9 0c             	shr    $0xc,%ecx
 8050482:	83 c1 6e             	add    $0x6e,%ecx
 8050485:	8d 1c 09             	lea    (%ecx,%ecx,1),%ebx
 8050488:	e9 ad fe ff ff       	jmp    805033a <_free_r+0xca>
 805048d:	81 f9 54 01 00 00    	cmp    $0x154,%ecx
 8050493:	77 10                	ja     80504a5 <_free_r+0x235>
 8050495:	89 c1                	mov    %eax,%ecx
 8050497:	c1 e9 0f             	shr    $0xf,%ecx
 805049a:	83 c1 77             	add    $0x77,%ecx
 805049d:	8d 1c 09             	lea    (%ecx,%ecx,1),%ebx
 80504a0:	e9 95 fe ff ff       	jmp    805033a <_free_r+0xca>
 80504a5:	81 f9 54 05 00 00    	cmp    $0x554,%ecx
 80504ab:	77 10                	ja     80504bd <_free_r+0x24d>
 80504ad:	89 c1                	mov    %eax,%ecx
 80504af:	c1 e9 12             	shr    $0x12,%ecx
 80504b2:	83 c1 7c             	add    $0x7c,%ecx
 80504b5:	8d 1c 09             	lea    (%ecx,%ecx,1),%ebx
 80504b8:	e9 7d fe ff ff       	jmp    805033a <_free_r+0xca>
 80504bd:	bb fc 00 00 00       	mov    $0xfc,%ebx
 80504c2:	b9 7e 00 00 00       	mov    $0x7e,%ecx
 80504c7:	e9 6e fe ff ff       	jmp    805033a <_free_r+0xca>
 80504cc:	66 90                	xchg   %ax,%ax
 80504ce:	66 90                	xchg   %ax,%ax

080504d0 <_fwalk>:
 80504d0:	55                   	push   %ebp
 80504d1:	89 e5                	mov    %esp,%ebp
 80504d3:	57                   	push   %edi
 80504d4:	56                   	push   %esi
 80504d5:	53                   	push   %ebx
 80504d6:	83 ec 1c             	sub    $0x1c,%esp
 80504d9:	8b 75 08             	mov    0x8(%ebp),%esi
 80504dc:	c7 45 e4 00 00 00 00 	movl   $0x0,-0x1c(%ebp)
 80504e3:	81 c6 e0 02 00 00    	add    $0x2e0,%esi
 80504e9:	74 3d                	je     8050528 <_fwalk+0x58>
 80504eb:	90                   	nop
 80504ec:	8d 74 26 00          	lea    0x0(%esi,%eiz,1),%esi
 80504f0:	8b 7e 04             	mov    0x4(%esi),%edi
 80504f3:	8b 5e 08             	mov    0x8(%esi),%ebx
 80504f6:	83 ef 01             	sub    $0x1,%edi
 80504f9:	78 27                	js     8050522 <_fwalk+0x52>
 80504fb:	90                   	nop
 80504fc:	8d 74 26 00          	lea    0x0(%esi,%eiz,1),%esi
 8050500:	66 83 7b 0c 01       	cmpw   $0x1,0xc(%ebx)
 8050505:	76 10                	jbe    8050517 <_fwalk+0x47>
 8050507:	66 83 7b 0e ff       	cmpw   $0xffff,0xe(%ebx)
 805050c:	74 09                	je     8050517 <_fwalk+0x47>
 805050e:	89 1c 24             	mov    %ebx,(%esp)
 8050511:	ff 55 0c             	call   *0xc(%ebp)
 8050514:	09 45 e4             	or     %eax,-0x1c(%ebp)
 8050517:	83 ef 01             	sub    $0x1,%edi
 805051a:	83 c3 68             	add    $0x68,%ebx
 805051d:	83 ff ff             	cmp    $0xffffffff,%edi
 8050520:	75 de                	jne    8050500 <_fwalk+0x30>
 8050522:	8b 36                	mov    (%esi),%esi
 8050524:	85 f6                	test   %esi,%esi
 8050526:	75 c8                	jne    80504f0 <_fwalk+0x20>
 8050528:	8b 45 e4             	mov    -0x1c(%ebp),%eax
 805052b:	83 c4 1c             	add    $0x1c,%esp
 805052e:	5b                   	pop    %ebx
 805052f:	5e                   	pop    %esi
 8050530:	5f                   	pop    %edi
 8050531:	5d                   	pop    %ebp
 8050532:	c3                   	ret    
 8050533:	8d b6 00 00 00 00    	lea    0x0(%esi),%esi
 8050539:	8d bc 27 00 00 00 00 	lea    0x0(%edi,%eiz,1),%edi

08050540 <_fwalk_reent>:
 8050540:	55                   	push   %ebp
 8050541:	89 e5                	mov    %esp,%ebp
 8050543:	57                   	push   %edi
 8050544:	56                   	push   %esi
 8050545:	53                   	push   %ebx
 8050546:	83 ec 1c             	sub    $0x1c,%esp
 8050549:	8b 7d 08             	mov    0x8(%ebp),%edi
 805054c:	c7 45 e4 00 00 00 00 	movl   $0x0,-0x1c(%ebp)
 8050553:	81 c7 e0 02 00 00    	add    $0x2e0,%edi
 8050559:	74 4c                	je     80505a7 <_fwalk_reent+0x67>
 805055b:	90                   	nop
 805055c:	8d 74 26 00          	lea    0x0(%esi,%eiz,1),%esi
 8050560:	8b 77 04             	mov    0x4(%edi),%esi
 8050563:	8b 5f 08             	mov    0x8(%edi),%ebx
 8050566:	83 ee 01             	sub    $0x1,%esi
 8050569:	78 36                	js     80505a1 <_fwalk_reent+0x61>
 805056b:	89 d8                	mov    %ebx,%eax
 805056d:	89 f3                	mov    %esi,%ebx
 805056f:	89 c6                	mov    %eax,%esi
 8050571:	8d b4 26 00 00 00 00 	lea    0x0(%esi,%eiz,1),%esi
 8050578:	66 83 7e 0c 01       	cmpw   $0x1,0xc(%esi)
 805057d:	76 17                	jbe    8050596 <_fwalk_reent+0x56>
 805057f:	66 83 7e 0e ff       	cmpw   $0xffff,0xe(%esi)
 8050584:	74 10                	je     8050596 <_fwalk_reent+0x56>
 8050586:	8b 45 08             	mov    0x8(%ebp),%eax
 8050589:	89 74 24 04          	mov    %esi,0x4(%esp)
 805058d:	89 04 24             	mov    %eax,(%esp)
 8050590:	ff 55 0c             	call   *0xc(%ebp)
 8050593:	09 45 e4             	or     %eax,-0x1c(%ebp)
 8050596:	83 eb 01             	sub    $0x1,%ebx
 8050599:	83 c6 68             	add    $0x68,%esi
 805059c:	83 fb ff             	cmp    $0xffffffff,%ebx
 805059f:	75 d7                	jne    8050578 <_fwalk_reent+0x38>
 80505a1:	8b 3f                	mov    (%edi),%edi
 80505a3:	85 ff                	test   %edi,%edi
 80505a5:	75 b9                	jne    8050560 <_fwalk_reent+0x20>
 80505a7:	8b 45 e4             	mov    -0x1c(%ebp),%eax
 80505aa:	83 c4 1c             	add    $0x1c,%esp
 80505ad:	5b                   	pop    %ebx
 80505ae:	5e                   	pop    %esi
 80505af:	5f                   	pop    %edi
 80505b0:	5d                   	pop    %ebp
 80505b1:	c3                   	ret    
 80505b2:	66 90                	xchg   %ax,%ax
 80505b4:	66 90                	xchg   %ax,%ax
 80505b6:	66 90                	xchg   %ax,%ax
 80505b8:	66 90                	xchg   %ax,%ax
 80505ba:	66 90                	xchg   %ax,%ax
 80505bc:	66 90                	xchg   %ax,%ax
 80505be:	66 90                	xchg   %ax,%ax

080505c0 <__getreent>:
 80505c0:	55                   	push   %ebp
 80505c1:	a1 c0 a4 05 08       	mov    0x805a4c0,%eax
 80505c6:	89 e5                	mov    %esp,%ebp
 80505c8:	5d                   	pop    %ebp
 80505c9:	c3                   	ret    
 80505ca:	66 90                	xchg   %ax,%ax
 80505cc:	66 90                	xchg   %ax,%ax
 80505ce:	66 90                	xchg   %ax,%ax

080505d0 <_setlocale_r>:
 80505d0:	55                   	push   %ebp
 80505d1:	89 e5                	mov    %esp,%ebp
 80505d3:	53                   	push   %ebx
 80505d4:	83 ec 14             	sub    $0x14,%esp
 80505d7:	8b 5d 10             	mov    0x10(%ebp),%ebx
 80505da:	85 db                	test   %ebx,%ebx
 80505dc:	74 14                	je     80505f2 <_setlocale_r+0x22>
 80505de:	c7 44 24 04 26 68 05 	movl   $0x8056826,0x4(%esp)
 80505e5:	08 
 80505e6:	89 1c 24             	mov    %ebx,(%esp)
 80505e9:	e8 42 1a 00 00       	call   8052030 <strcmp>
 80505ee:	85 c0                	test   %eax,%eax
 80505f0:	75 0e                	jne    8050600 <_setlocale_r+0x30>
 80505f2:	83 c4 14             	add    $0x14,%esp
 80505f5:	b8 24 68 05 08       	mov    $0x8056824,%eax
 80505fa:	5b                   	pop    %ebx
 80505fb:	5d                   	pop    %ebp
 80505fc:	c3                   	ret    
 80505fd:	8d 76 00             	lea    0x0(%esi),%esi
 8050600:	c7 44 24 04 24 68 05 	movl   $0x8056824,0x4(%esp)
 8050607:	08 
 8050608:	89 1c 24             	mov    %ebx,(%esp)
 805060b:	e8 20 1a 00 00       	call   8052030 <strcmp>
 8050610:	85 c0                	test   %eax,%eax
 8050612:	74 de                	je     80505f2 <_setlocale_r+0x22>
 8050614:	89 1c 24             	mov    %ebx,(%esp)
 8050617:	c7 44 24 04 d0 64 05 	movl   $0x80564d0,0x4(%esp)
 805061e:	08 
 805061f:	e8 0c 1a 00 00       	call   8052030 <strcmp>
 8050624:	89 c2                	mov    %eax,%edx
 8050626:	31 c0                	xor    %eax,%eax
 8050628:	85 d2                	test   %edx,%edx
 805062a:	ba 24 68 05 08       	mov    $0x8056824,%edx
 805062f:	0f 44 c2             	cmove  %edx,%eax
 8050632:	83 c4 14             	add    $0x14,%esp
 8050635:	5b                   	pop    %ebx
 8050636:	5d                   	pop    %ebp
 8050637:	c3                   	ret    
 8050638:	90                   	nop
 8050639:	8d b4 26 00 00 00 00 	lea    0x0(%esi,%eiz,1),%esi

08050640 <__locale_charset>:
 8050640:	55                   	push   %ebp
 8050641:	b8 40 a9 05 08       	mov    $0x805a940,%eax
 8050646:	89 e5                	mov    %esp,%ebp
 8050648:	5d                   	pop    %ebp
 8050649:	c3                   	ret    
 805064a:	8d b6 00 00 00 00    	lea    0x0(%esi),%esi

08050650 <__locale_mb_cur_max>:
 8050650:	55                   	push   %ebp
 8050651:	a1 98 a9 05 08       	mov    0x805a998,%eax
 8050656:	89 e5                	mov    %esp,%ebp
 8050658:	5d                   	pop    %ebp
 8050659:	c3                   	ret    
 805065a:	8d b6 00 00 00 00    	lea    0x0(%esi),%esi

08050660 <__locale_msgcharset>:
 8050660:	55                   	push   %ebp
 8050661:	b8 20 a9 05 08       	mov    $0x805a920,%eax
 8050666:	89 e5                	mov    %esp,%ebp
 8050668:	5d                   	pop    %ebp
 8050669:	c3                   	ret    
 805066a:	8d b6 00 00 00 00    	lea    0x0(%esi),%esi

08050670 <__locale_cjk_lang>:
 8050670:	55                   	push   %ebp
 8050671:	31 c0                	xor    %eax,%eax
 8050673:	89 e5                	mov    %esp,%ebp
 8050675:	5d                   	pop    %ebp
 8050676:	c3                   	ret    
 8050677:	89 f6                	mov    %esi,%esi
 8050679:	8d bc 27 00 00 00 00 	lea    0x0(%edi,%eiz,1),%edi

08050680 <_localeconv_r>:
 8050680:	55                   	push   %ebp
 8050681:	b8 60 a9 05 08       	mov    $0x805a960,%eax
 8050686:	89 e5                	mov    %esp,%ebp
 8050688:	5d                   	pop    %ebp
 8050689:	c3                   	ret    
 805068a:	8d b6 00 00 00 00    	lea    0x0(%esi),%esi

08050690 <setlocale>:
 8050690:	55                   	push   %ebp
 8050691:	89 e5                	mov    %esp,%ebp
 8050693:	83 ec 18             	sub    $0x18,%esp
 8050696:	e8 25 ff ff ff       	call   80505c0 <__getreent>
 805069b:	8b 55 0c             	mov    0xc(%ebp),%edx
 805069e:	89 54 24 08          	mov    %edx,0x8(%esp)
 80506a2:	8b 55 08             	mov    0x8(%ebp),%edx
 80506a5:	89 04 24             	mov    %eax,(%esp)
 80506a8:	89 54 24 04          	mov    %edx,0x4(%esp)
 80506ac:	e8 1f ff ff ff       	call   80505d0 <_setlocale_r>
 80506b1:	c9                   	leave  
 80506b2:	c3                   	ret    
 80506b3:	8d b6 00 00 00 00    	lea    0x0(%esi),%esi
 80506b9:	8d bc 27 00 00 00 00 	lea    0x0(%edi,%eiz,1),%edi

080506c0 <localeconv>:
 80506c0:	55                   	push   %ebp
 80506c1:	89 e5                	mov    %esp,%ebp
 80506c3:	83 ec 08             	sub    $0x8,%esp
 80506c6:	e8 f5 fe ff ff       	call   80505c0 <__getreent>
 80506cb:	b8 60 a9 05 08       	mov    $0x805a960,%eax
 80506d0:	c9                   	leave  
 80506d1:	c3                   	ret    
 80506d2:	66 90                	xchg   %ax,%ax
 80506d4:	66 90                	xchg   %ax,%ax
 80506d6:	66 90                	xchg   %ax,%ax
 80506d8:	66 90                	xchg   %ax,%ax
 80506da:	66 90                	xchg   %ax,%ax
 80506dc:	66 90                	xchg   %ax,%ax
 80506de:	66 90                	xchg   %ax,%ax

080506e0 <__smakebuf_r>:
 80506e0:	55                   	push   %ebp
 80506e1:	89 e5                	mov    %esp,%ebp
 80506e3:	57                   	push   %edi
 80506e4:	56                   	push   %esi
 80506e5:	53                   	push   %ebx
 80506e6:	83 ec 5c             	sub    $0x5c,%esp
 80506e9:	8b 5d 0c             	mov    0xc(%ebp),%ebx
 80506ec:	0f b7 43 0c          	movzwl 0xc(%ebx),%eax
 80506f0:	a8 02                	test   $0x2,%al
 80506f2:	0f 85 c0 00 00 00    	jne    80507b8 <__smakebuf_r+0xd8>
 80506f8:	0f bf 53 0e          	movswl 0xe(%ebx),%edx
 80506fc:	66 85 d2             	test   %dx,%dx
 80506ff:	78 4b                	js     805074c <__smakebuf_r+0x6c>
 8050701:	8d 45 ac             	lea    -0x54(%ebp),%eax
 8050704:	89 44 24 08          	mov    %eax,0x8(%esp)
 8050708:	8b 45 08             	mov    0x8(%ebp),%eax
 805070b:	89 54 24 04          	mov    %edx,0x4(%esp)
 805070f:	89 04 24             	mov    %eax,(%esp)
 8050712:	e8 39 3f 00 00       	call   8054650 <_fstat_r>
 8050717:	85 c0                	test   %eax,%eax
 8050719:	78 2d                	js     8050748 <__smakebuf_r+0x68>
 805071b:	8b 45 b0             	mov    -0x50(%ebp),%eax
 805071e:	31 c9                	xor    %ecx,%ecx
 8050720:	25 00 f0 00 00       	and    $0xf000,%eax
 8050725:	3d 00 20 00 00       	cmp    $0x2000,%eax
 805072a:	0f 94 c1             	sete   %cl
 805072d:	3d 00 80 00 00       	cmp    $0x8000,%eax
 8050732:	89 cf                	mov    %ecx,%edi
 8050734:	0f 84 96 00 00 00    	je     80507d0 <__smakebuf_r+0xf0>
 805073a:	66 81 4b 0c 00 08    	orw    $0x800,0xc(%ebx)
 8050740:	be 00 04 00 00       	mov    $0x400,%esi
 8050745:	eb 24                	jmp    805076b <__smakebuf_r+0x8b>
 8050747:	90                   	nop
 8050748:	0f b7 43 0c          	movzwl 0xc(%ebx),%eax
 805074c:	89 c2                	mov    %eax,%edx
 805074e:	66 81 e2 80 00       	and    $0x80,%dx
 8050753:	66 83 fa 01          	cmp    $0x1,%dx
 8050757:	19 f6                	sbb    %esi,%esi
 8050759:	80 cc 08             	or     $0x8,%ah
 805075c:	81 e6 c0 03 00 00    	and    $0x3c0,%esi
 8050762:	31 ff                	xor    %edi,%edi
 8050764:	83 c6 40             	add    $0x40,%esi
 8050767:	66 89 43 0c          	mov    %ax,0xc(%ebx)
 805076b:	8b 45 08             	mov    0x8(%ebp),%eax
 805076e:	89 74 24 04          	mov    %esi,0x4(%esp)
 8050772:	89 04 24             	mov    %eax,(%esp)
 8050775:	e8 a6 00 00 00       	call   8050820 <_malloc_r>
 805077a:	85 c0                	test   %eax,%eax
 805077c:	74 2a                	je     80507a8 <__smakebuf_r+0xc8>
 805077e:	8b 4d 08             	mov    0x8(%ebp),%ecx
 8050781:	c7 41 3c 80 fd 04 08 	movl   $0x804fd80,0x3c(%ecx)
 8050788:	66 81 4b 0c 80 00    	orw    $0x80,0xc(%ebx)
 805078e:	85 ff                	test   %edi,%edi
 8050790:	89 03                	mov    %eax,(%ebx)
 8050792:	89 43 10             	mov    %eax,0x10(%ebx)
 8050795:	89 73 14             	mov    %esi,0x14(%ebx)
 8050798:	75 5e                	jne    80507f8 <__smakebuf_r+0x118>
 805079a:	83 c4 5c             	add    $0x5c,%esp
 805079d:	5b                   	pop    %ebx
 805079e:	5e                   	pop    %esi
 805079f:	5f                   	pop    %edi
 80507a0:	5d                   	pop    %ebp
 80507a1:	c3                   	ret    
 80507a2:	8d b6 00 00 00 00    	lea    0x0(%esi),%esi
 80507a8:	0f b7 43 0c          	movzwl 0xc(%ebx),%eax
 80507ac:	f6 c4 02             	test   $0x2,%ah
 80507af:	75 e9                	jne    805079a <__smakebuf_r+0xba>
 80507b1:	83 c8 02             	or     $0x2,%eax
 80507b4:	66 89 43 0c          	mov    %ax,0xc(%ebx)
 80507b8:	8d 43 43             	lea    0x43(%ebx),%eax
 80507bb:	89 03                	mov    %eax,(%ebx)
 80507bd:	89 43 10             	mov    %eax,0x10(%ebx)
 80507c0:	c7 43 14 01 00 00 00 	movl   $0x1,0x14(%ebx)
 80507c7:	83 c4 5c             	add    $0x5c,%esp
 80507ca:	5b                   	pop    %ebx
 80507cb:	5e                   	pop    %esi
 80507cc:	5f                   	pop    %edi
 80507cd:	5d                   	pop    %ebp
 80507ce:	c3                   	ret    
 80507cf:	90                   	nop
 80507d0:	81 7b 28 c0 1f 05 08 	cmpl   $0x8051fc0,0x28(%ebx)
 80507d7:	0f 85 5d ff ff ff    	jne    805073a <__smakebuf_r+0x5a>
 80507dd:	66 81 4b 0c 00 04    	orw    $0x400,0xc(%ebx)
 80507e3:	be 00 04 00 00       	mov    $0x400,%esi
 80507e8:	c7 43 4c 00 04 00 00 	movl   $0x400,0x4c(%ebx)
 80507ef:	e9 77 ff ff ff       	jmp    805076b <__smakebuf_r+0x8b>
 80507f4:	8d 74 26 00          	lea    0x0(%esi,%eiz,1),%esi
 80507f8:	0f bf 43 0e          	movswl 0xe(%ebx),%eax
 80507fc:	89 0c 24             	mov    %ecx,(%esp)
 80507ff:	89 44 24 04          	mov    %eax,0x4(%esp)
 8050803:	e8 68 43 00 00       	call   8054b70 <_isatty_r>
 8050808:	85 c0                	test   %eax,%eax
 805080a:	74 8e                	je     805079a <__smakebuf_r+0xba>
 805080c:	66 83 4b 0c 01       	orw    $0x1,0xc(%ebx)
 8050811:	eb 87                	jmp    805079a <__smakebuf_r+0xba>
 8050813:	66 90                	xchg   %ax,%ax
 8050815:	66 90                	xchg   %ax,%ax
 8050817:	66 90                	xchg   %ax,%ax
 8050819:	66 90                	xchg   %ax,%ax
 805081b:	66 90                	xchg   %ax,%ax
 805081d:	66 90                	xchg   %ax,%ax
 805081f:	90                   	nop

08050820 <_malloc_r>:
 8050820:	55                   	push   %ebp
 8050821:	89 e5                	mov    %esp,%ebp
 8050823:	57                   	push   %edi
 8050824:	56                   	push   %esi
 8050825:	53                   	push   %ebx
 8050826:	83 ec 2c             	sub    $0x2c,%esp
 8050829:	8b 45 0c             	mov    0xc(%ebp),%eax
 805082c:	8d 50 0b             	lea    0xb(%eax),%edx
 805082f:	83 fa 16             	cmp    $0x16,%edx
 8050832:	76 6c                	jbe    80508a0 <_malloc_r+0x80>
 8050834:	89 d7                	mov    %edx,%edi
 8050836:	83 e7 f8             	and    $0xfffffff8,%edi
 8050839:	89 fe                	mov    %edi,%esi
 805083b:	c1 ee 1f             	shr    $0x1f,%esi
 805083e:	39 c7                	cmp    %eax,%edi
 8050840:	8b 45 08             	mov    0x8(%ebp),%eax
 8050843:	89 f2                	mov    %esi,%edx
 8050845:	72 67                	jb     80508ae <_malloc_r+0x8e>
 8050847:	84 d2                	test   %dl,%dl
 8050849:	75 63                	jne    80508ae <_malloc_r+0x8e>
 805084b:	89 04 24             	mov    %eax,(%esp)
 805084e:	e8 ed 07 00 00       	call   8051040 <__malloc_lock>
 8050853:	81 ff f7 01 00 00    	cmp    $0x1f7,%edi
 8050859:	77 65                	ja     80508c0 <_malloc_r+0xa0>
 805085b:	89 fa                	mov    %edi,%edx
 805085d:	c1 ea 03             	shr    $0x3,%edx
 8050860:	8d 04 d5 c0 a9 05 08 	lea    0x805a9c0(,%edx,8),%eax
 8050867:	8b 58 0c             	mov    0xc(%eax),%ebx
 805086a:	39 c3                	cmp    %eax,%ebx
 805086c:	0f 84 3e 05 00 00    	je     8050db0 <_malloc_r+0x590>
 8050872:	8b 43 04             	mov    0x4(%ebx),%eax
 8050875:	83 e0 fc             	and    $0xfffffffc,%eax
 8050878:	8b 53 0c             	mov    0xc(%ebx),%edx
 805087b:	8b 4b 08             	mov    0x8(%ebx),%ecx
 805087e:	89 51 0c             	mov    %edx,0xc(%ecx)
 8050881:	89 4a 08             	mov    %ecx,0x8(%edx)
 8050884:	83 4c 03 04 01       	orl    $0x1,0x4(%ebx,%eax,1)
 8050889:	8b 45 08             	mov    0x8(%ebp),%eax
 805088c:	89 04 24             	mov    %eax,(%esp)
 805088f:	e8 bc 07 00 00       	call   8051050 <__malloc_unlock>
 8050894:	8d 43 08             	lea    0x8(%ebx),%eax
 8050897:	83 c4 2c             	add    $0x2c,%esp
 805089a:	5b                   	pop    %ebx
 805089b:	5e                   	pop    %esi
 805089c:	5f                   	pop    %edi
 805089d:	5d                   	pop    %ebp
 805089e:	c3                   	ret    
 805089f:	90                   	nop
 80508a0:	bf 10 00 00 00       	mov    $0x10,%edi
 80508a5:	31 d2                	xor    %edx,%edx
 80508a7:	39 c7                	cmp    %eax,%edi
 80508a9:	8b 45 08             	mov    0x8(%ebp),%eax
 80508ac:	73 99                	jae    8050847 <_malloc_r+0x27>
 80508ae:	c7 00 0c 00 00 00    	movl   $0xc,(%eax)
 80508b4:	83 c4 2c             	add    $0x2c,%esp
 80508b7:	31 c0                	xor    %eax,%eax
 80508b9:	5b                   	pop    %ebx
 80508ba:	5e                   	pop    %esi
 80508bb:	5f                   	pop    %edi
 80508bc:	5d                   	pop    %ebp
 80508bd:	c3                   	ret    
 80508be:	66 90                	xchg   %ax,%ax
 80508c0:	89 fe                	mov    %edi,%esi
 80508c2:	c1 ee 09             	shr    $0x9,%esi
 80508c5:	85 f6                	test   %esi,%esi
 80508c7:	0f 84 ab 01 00 00    	je     8050a78 <_malloc_r+0x258>
 80508cd:	83 fe 04             	cmp    $0x4,%esi
 80508d0:	0f 87 8a 03 00 00    	ja     8050c60 <_malloc_r+0x440>
 80508d6:	89 fe                	mov    %edi,%esi
 80508d8:	c1 ee 06             	shr    $0x6,%esi
 80508db:	83 c6 38             	add    $0x38,%esi
 80508de:	8d 04 36             	lea    (%esi,%esi,1),%eax
 80508e1:	8d 0c 85 c0 a9 05 08 	lea    0x805a9c0(,%eax,4),%ecx
 80508e8:	8b 59 0c             	mov    0xc(%ecx),%ebx
 80508eb:	39 d9                	cmp    %ebx,%ecx
 80508ed:	75 18                	jne    8050907 <_malloc_r+0xe7>
 80508ef:	eb 28                	jmp    8050919 <_malloc_r+0xf9>
 80508f1:	8d b4 26 00 00 00 00 	lea    0x0(%esi,%eiz,1),%esi
 80508f8:	85 d2                	test   %edx,%edx
 80508fa:	0f 89 78 ff ff ff    	jns    8050878 <_malloc_r+0x58>
 8050900:	8b 5b 0c             	mov    0xc(%ebx),%ebx
 8050903:	39 d9                	cmp    %ebx,%ecx
 8050905:	74 12                	je     8050919 <_malloc_r+0xf9>
 8050907:	8b 43 04             	mov    0x4(%ebx),%eax
 805090a:	83 e0 fc             	and    $0xfffffffc,%eax
 805090d:	89 c2                	mov    %eax,%edx
 805090f:	29 fa                	sub    %edi,%edx
 8050911:	83 fa 0f             	cmp    $0xf,%edx
 8050914:	7e e2                	jle    80508f8 <_malloc_r+0xd8>
 8050916:	83 ee 01             	sub    $0x1,%esi
 8050919:	8d 46 01             	lea    0x1(%esi),%eax
 805091c:	89 45 e4             	mov    %eax,-0x1c(%ebp)
 805091f:	8b 1d d0 a9 05 08    	mov    0x805a9d0,%ebx
 8050925:	a1 c4 a9 05 08       	mov    0x805a9c4,%eax
 805092a:	81 fb c8 a9 05 08    	cmp    $0x805a9c8,%ebx
 8050930:	74 6b                	je     805099d <_malloc_r+0x17d>
 8050932:	8b 73 04             	mov    0x4(%ebx),%esi
 8050935:	83 e6 fc             	and    $0xfffffffc,%esi
 8050938:	89 f0                	mov    %esi,%eax
 805093a:	29 f8                	sub    %edi,%eax
 805093c:	83 f8 0f             	cmp    $0xf,%eax
 805093f:	0f 8f a3 03 00 00    	jg     8050ce8 <_malloc_r+0x4c8>
 8050945:	85 c0                	test   %eax,%eax
 8050947:	c7 05 d4 a9 05 08 c8 	movl   $0x805a9c8,0x805a9d4
 805094e:	a9 05 08 
 8050951:	c7 05 d0 a9 05 08 c8 	movl   $0x805a9c8,0x805a9d0
 8050958:	a9 05 08 
 805095b:	0f 89 27 01 00 00    	jns    8050a88 <_malloc_r+0x268>
 8050961:	81 fe ff 01 00 00    	cmp    $0x1ff,%esi
 8050967:	0f 87 1b 03 00 00    	ja     8050c88 <_malloc_r+0x468>
 805096d:	c1 ee 03             	shr    $0x3,%esi
 8050970:	b8 01 00 00 00       	mov    $0x1,%eax
 8050975:	89 f1                	mov    %esi,%ecx
 8050977:	8d 14 f5 c0 a9 05 08 	lea    0x805a9c0(,%esi,8),%edx
 805097e:	c1 f9 02             	sar    $0x2,%ecx
 8050981:	d3 e0                	shl    %cl,%eax
 8050983:	8b 4a 08             	mov    0x8(%edx),%ecx
 8050986:	0b 05 c4 a9 05 08    	or     0x805a9c4,%eax
 805098c:	89 53 0c             	mov    %edx,0xc(%ebx)
 805098f:	89 4b 08             	mov    %ecx,0x8(%ebx)
 8050992:	a3 c4 a9 05 08       	mov    %eax,0x805a9c4
 8050997:	89 5a 08             	mov    %ebx,0x8(%edx)
 805099a:	89 59 0c             	mov    %ebx,0xc(%ecx)
 805099d:	8b 4d e4             	mov    -0x1c(%ebp),%ecx
 80509a0:	be 01 00 00 00       	mov    $0x1,%esi
 80509a5:	c1 f9 02             	sar    $0x2,%ecx
 80509a8:	d3 e6                	shl    %cl,%esi
 80509aa:	39 c6                	cmp    %eax,%esi
 80509ac:	0f 87 f6 00 00 00    	ja     8050aa8 <_malloc_r+0x288>
 80509b2:	85 f0                	test   %esi,%eax
 80509b4:	0f 85 76 03 00 00    	jne    8050d30 <_malloc_r+0x510>
 80509ba:	8b 55 e4             	mov    -0x1c(%ebp),%edx
 80509bd:	01 f6                	add    %esi,%esi
 80509bf:	83 e2 fc             	and    $0xfffffffc,%edx
 80509c2:	85 f0                	test   %esi,%eax
 80509c4:	8d 4a 04             	lea    0x4(%edx),%ecx
 80509c7:	89 4d e4             	mov    %ecx,-0x1c(%ebp)
 80509ca:	0f 85 60 03 00 00    	jne    8050d30 <_malloc_r+0x510>
 80509d0:	89 ca                	mov    %ecx,%edx
 80509d2:	8d b6 00 00 00 00    	lea    0x0(%esi),%esi
 80509d8:	01 f6                	add    %esi,%esi
 80509da:	83 c2 04             	add    $0x4,%edx
 80509dd:	85 f0                	test   %esi,%eax
 80509df:	74 f7                	je     80509d8 <_malloc_r+0x1b8>
 80509e1:	89 55 e4             	mov    %edx,-0x1c(%ebp)
 80509e4:	89 75 dc             	mov    %esi,-0x24(%ebp)
 80509e7:	8b 45 e4             	mov    -0x1c(%ebp),%eax
 80509ea:	8d 34 c5 c0 a9 05 08 	lea    0x805a9c0(,%eax,8),%esi
 80509f1:	89 f1                	mov    %esi,%ecx
 80509f3:	89 45 e0             	mov    %eax,-0x20(%ebp)
 80509f6:	8b 59 0c             	mov    0xc(%ecx),%ebx
 80509f9:	39 d9                	cmp    %ebx,%ecx
 80509fb:	75 1e                	jne    8050a1b <_malloc_r+0x1fb>
 80509fd:	e9 36 03 00 00       	jmp    8050d38 <_malloc_r+0x518>
 8050a02:	8d b6 00 00 00 00    	lea    0x0(%esi),%esi
 8050a08:	85 d2                	test   %edx,%edx
 8050a0a:	0f 89 c0 03 00 00    	jns    8050dd0 <_malloc_r+0x5b0>
 8050a10:	8b 5b 0c             	mov    0xc(%ebx),%ebx
 8050a13:	39 d9                	cmp    %ebx,%ecx
 8050a15:	0f 84 1d 03 00 00    	je     8050d38 <_malloc_r+0x518>
 8050a1b:	8b 43 04             	mov    0x4(%ebx),%eax
 8050a1e:	83 e0 fc             	and    $0xfffffffc,%eax
 8050a21:	89 c2                	mov    %eax,%edx
 8050a23:	29 fa                	sub    %edi,%edx
 8050a25:	83 fa 0f             	cmp    $0xf,%edx
 8050a28:	7e de                	jle    8050a08 <_malloc_r+0x1e8>
 8050a2a:	8b 4b 0c             	mov    0xc(%ebx),%ecx
 8050a2d:	8d 04 3b             	lea    (%ebx,%edi,1),%eax
 8050a30:	83 cf 01             	or     $0x1,%edi
 8050a33:	8b 73 08             	mov    0x8(%ebx),%esi
 8050a36:	89 7b 04             	mov    %edi,0x4(%ebx)
 8050a39:	89 4e 0c             	mov    %ecx,0xc(%esi)
 8050a3c:	89 71 08             	mov    %esi,0x8(%ecx)
 8050a3f:	89 d1                	mov    %edx,%ecx
 8050a41:	83 c9 01             	or     $0x1,%ecx
 8050a44:	a3 d4 a9 05 08       	mov    %eax,0x805a9d4
 8050a49:	a3 d0 a9 05 08       	mov    %eax,0x805a9d0
 8050a4e:	c7 40 0c c8 a9 05 08 	movl   $0x805a9c8,0xc(%eax)
 8050a55:	c7 40 08 c8 a9 05 08 	movl   $0x805a9c8,0x8(%eax)
 8050a5c:	89 48 04             	mov    %ecx,0x4(%eax)
 8050a5f:	89 14 10             	mov    %edx,(%eax,%edx,1)
 8050a62:	8b 45 08             	mov    0x8(%ebp),%eax
 8050a65:	89 04 24             	mov    %eax,(%esp)
 8050a68:	e8 e3 05 00 00       	call   8051050 <__malloc_unlock>
 8050a6d:	8d 43 08             	lea    0x8(%ebx),%eax
 8050a70:	e9 22 fe ff ff       	jmp    8050897 <_malloc_r+0x77>
 8050a75:	8d 76 00             	lea    0x0(%esi),%esi
 8050a78:	b8 7e 00 00 00       	mov    $0x7e,%eax
 8050a7d:	be 3f 00 00 00       	mov    $0x3f,%esi
 8050a82:	e9 5a fe ff ff       	jmp    80508e1 <_malloc_r+0xc1>
 8050a87:	90                   	nop
 8050a88:	8b 45 08             	mov    0x8(%ebp),%eax
 8050a8b:	83 4c 33 04 01       	orl    $0x1,0x4(%ebx,%esi,1)
 8050a90:	89 04 24             	mov    %eax,(%esp)
 8050a93:	e8 b8 05 00 00       	call   8051050 <__malloc_unlock>
 8050a98:	83 c4 2c             	add    $0x2c,%esp
 8050a9b:	8d 43 08             	lea    0x8(%ebx),%eax
 8050a9e:	5b                   	pop    %ebx
 8050a9f:	5e                   	pop    %esi
 8050aa0:	5f                   	pop    %edi
 8050aa1:	5d                   	pop    %ebp
 8050aa2:	c3                   	ret    
 8050aa3:	90                   	nop
 8050aa4:	8d 74 26 00          	lea    0x0(%esi,%eiz,1),%esi
 8050aa8:	8b 1d c8 a9 05 08    	mov    0x805a9c8,%ebx
 8050aae:	8b 73 04             	mov    0x4(%ebx),%esi
 8050ab1:	83 e6 fc             	and    $0xfffffffc,%esi
 8050ab4:	39 f7                	cmp    %esi,%edi
 8050ab6:	77 0d                	ja     8050ac5 <_malloc_r+0x2a5>
 8050ab8:	89 f0                	mov    %esi,%eax
 8050aba:	29 f8                	sub    %edi,%eax
 8050abc:	83 f8 0f             	cmp    $0xf,%eax
 8050abf:	0f 8f 6b 01 00 00    	jg     8050c30 <_malloc_r+0x410>
 8050ac5:	8b 0d 90 06 07 08    	mov    0x8070690,%ecx
 8050acb:	8d 04 33             	lea    (%ebx,%esi,1),%eax
 8050ace:	89 45 e4             	mov    %eax,-0x1c(%ebp)
 8050ad1:	01 f9                	add    %edi,%ecx
 8050ad3:	8d 81 0f 10 00 00    	lea    0x100f(%ecx),%eax
 8050ad9:	83 c1 10             	add    $0x10,%ecx
 8050adc:	25 00 f0 ff ff       	and    $0xfffff000,%eax
 8050ae1:	83 3d a0 a9 05 08 ff 	cmpl   $0xffffffff,0x805a9a0
 8050ae8:	0f 44 c1             	cmove  %ecx,%eax
 8050aeb:	89 45 e0             	mov    %eax,-0x20(%ebp)
 8050aee:	89 44 24 04          	mov    %eax,0x4(%esp)
 8050af2:	8b 45 08             	mov    0x8(%ebp),%eax
 8050af5:	89 04 24             	mov    %eax,(%esp)
 8050af8:	e8 43 13 00 00       	call   8051e40 <_sbrk_r>
 8050afd:	83 f8 ff             	cmp    $0xffffffff,%eax
 8050b00:	89 c1                	mov    %eax,%ecx
 8050b02:	0f 84 17 03 00 00    	je     8050e1f <_malloc_r+0x5ff>
 8050b08:	39 45 e4             	cmp    %eax,-0x1c(%ebp)
 8050b0b:	0f 87 02 03 00 00    	ja     8050e13 <_malloc_r+0x5f3>
 8050b11:	8b 55 e0             	mov    -0x20(%ebp),%edx
 8050b14:	03 15 60 06 07 08    	add    0x8070660,%edx
 8050b1a:	39 4d e4             	cmp    %ecx,-0x1c(%ebp)
 8050b1d:	89 15 60 06 07 08    	mov    %edx,0x8070660
 8050b23:	0f 84 a9 03 00 00    	je     8050ed2 <_malloc_r+0x6b2>
 8050b29:	83 3d a0 a9 05 08 ff 	cmpl   $0xffffffff,0x805a9a0
 8050b30:	0f 84 ca 03 00 00    	je     8050f00 <_malloc_r+0x6e0>
 8050b36:	89 c8                	mov    %ecx,%eax
 8050b38:	2b 45 e4             	sub    -0x1c(%ebp),%eax
 8050b3b:	01 d0                	add    %edx,%eax
 8050b3d:	a3 60 06 07 08       	mov    %eax,0x8070660
 8050b42:	89 c8                	mov    %ecx,%eax
 8050b44:	ba 00 10 00 00       	mov    $0x1000,%edx
 8050b49:	83 e0 07             	and    $0x7,%eax
 8050b4c:	74 0c                	je     8050b5a <_malloc_r+0x33a>
 8050b4e:	29 c1                	sub    %eax,%ecx
 8050b50:	ba 08 10 00 00       	mov    $0x1008,%edx
 8050b55:	8d 49 08             	lea    0x8(%ecx),%ecx
 8050b58:	29 c2                	sub    %eax,%edx
 8050b5a:	8b 45 e0             	mov    -0x20(%ebp),%eax
 8050b5d:	89 4d e4             	mov    %ecx,-0x1c(%ebp)
 8050b60:	01 c8                	add    %ecx,%eax
 8050b62:	25 ff 0f 00 00       	and    $0xfff,%eax
 8050b67:	29 c2                	sub    %eax,%edx
 8050b69:	8b 45 08             	mov    0x8(%ebp),%eax
 8050b6c:	89 54 24 04          	mov    %edx,0x4(%esp)
 8050b70:	89 55 e0             	mov    %edx,-0x20(%ebp)
 8050b73:	89 04 24             	mov    %eax,(%esp)
 8050b76:	e8 c5 12 00 00       	call   8051e40 <_sbrk_r>
 8050b7b:	8b 4d e4             	mov    -0x1c(%ebp),%ecx
 8050b7e:	83 f8 ff             	cmp    $0xffffffff,%eax
 8050b81:	0f 84 6d 03 00 00    	je     8050ef4 <_malloc_r+0x6d4>
 8050b87:	8b 55 e0             	mov    -0x20(%ebp),%edx
 8050b8a:	29 c8                	sub    %ecx,%eax
 8050b8c:	01 d0                	add    %edx,%eax
 8050b8e:	83 c8 01             	or     $0x1,%eax
 8050b91:	03 15 60 06 07 08    	add    0x8070660,%edx
 8050b97:	81 fb c0 a9 05 08    	cmp    $0x805a9c0,%ebx
 8050b9d:	89 0d c8 a9 05 08    	mov    %ecx,0x805a9c8
 8050ba3:	89 41 04             	mov    %eax,0x4(%ecx)
 8050ba6:	89 15 60 06 07 08    	mov    %edx,0x8070660
 8050bac:	0f 84 f2 02 00 00    	je     8050ea4 <_malloc_r+0x684>
 8050bb2:	83 fe 0f             	cmp    $0xf,%esi
 8050bb5:	0f 86 8d 02 00 00    	jbe    8050e48 <_malloc_r+0x628>
 8050bbb:	8b 43 04             	mov    0x4(%ebx),%eax
 8050bbe:	83 ee 0c             	sub    $0xc,%esi
 8050bc1:	83 e6 f8             	and    $0xfffffff8,%esi
 8050bc4:	83 e0 01             	and    $0x1,%eax
 8050bc7:	09 f0                	or     %esi,%eax
 8050bc9:	83 fe 0f             	cmp    $0xf,%esi
 8050bcc:	89 43 04             	mov    %eax,0x4(%ebx)
 8050bcf:	a1 c8 a9 05 08       	mov    0x805a9c8,%eax
 8050bd4:	c7 44 33 04 05 00 00 	movl   $0x5,0x4(%ebx,%esi,1)
 8050bdb:	00 
 8050bdc:	c7 44 33 08 05 00 00 	movl   $0x5,0x8(%ebx,%esi,1)
 8050be3:	00 
 8050be4:	0f 87 a2 02 00 00    	ja     8050e8c <_malloc_r+0x66c>
 8050bea:	3b 15 8c 06 07 08    	cmp    0x807068c,%edx
 8050bf0:	76 06                	jbe    8050bf8 <_malloc_r+0x3d8>
 8050bf2:	89 15 8c 06 07 08    	mov    %edx,0x807068c
 8050bf8:	3b 15 88 06 07 08    	cmp    0x8070688,%edx
 8050bfe:	76 06                	jbe    8050c06 <_malloc_r+0x3e6>
 8050c00:	89 15 88 06 07 08    	mov    %edx,0x8070688
 8050c06:	8b 50 04             	mov    0x4(%eax),%edx
 8050c09:	89 c3                	mov    %eax,%ebx
 8050c0b:	83 e2 fc             	and    $0xfffffffc,%edx
 8050c0e:	89 d0                	mov    %edx,%eax
 8050c10:	29 f8                	sub    %edi,%eax
 8050c12:	39 d7                	cmp    %edx,%edi
 8050c14:	77 05                	ja     8050c1b <_malloc_r+0x3fb>
 8050c16:	83 f8 0f             	cmp    $0xf,%eax
 8050c19:	7f 15                	jg     8050c30 <_malloc_r+0x410>
 8050c1b:	8b 45 08             	mov    0x8(%ebp),%eax
 8050c1e:	89 04 24             	mov    %eax,(%esp)
 8050c21:	e8 2a 04 00 00       	call   8051050 <__malloc_unlock>
 8050c26:	31 c0                	xor    %eax,%eax
 8050c28:	e9 6a fc ff ff       	jmp    8050897 <_malloc_r+0x77>
 8050c2d:	8d 76 00             	lea    0x0(%esi),%esi
 8050c30:	89 fa                	mov    %edi,%edx
 8050c32:	83 c8 01             	or     $0x1,%eax
 8050c35:	83 ca 01             	or     $0x1,%edx
 8050c38:	89 53 04             	mov    %edx,0x4(%ebx)
 8050c3b:	8d 14 3b             	lea    (%ebx,%edi,1),%edx
 8050c3e:	89 15 c8 a9 05 08    	mov    %edx,0x805a9c8
 8050c44:	89 42 04             	mov    %eax,0x4(%edx)
 8050c47:	8b 45 08             	mov    0x8(%ebp),%eax
 8050c4a:	89 04 24             	mov    %eax,(%esp)
 8050c4d:	e8 fe 03 00 00       	call   8051050 <__malloc_unlock>
 8050c52:	83 c4 2c             	add    $0x2c,%esp
 8050c55:	8d 43 08             	lea    0x8(%ebx),%eax
 8050c58:	5b                   	pop    %ebx
 8050c59:	5e                   	pop    %esi
 8050c5a:	5f                   	pop    %edi
 8050c5b:	5d                   	pop    %ebp
 8050c5c:	c3                   	ret    
 8050c5d:	8d 76 00             	lea    0x0(%esi),%esi
 8050c60:	83 fe 14             	cmp    $0x14,%esi
 8050c63:	0f 86 8f 01 00 00    	jbe    8050df8 <_malloc_r+0x5d8>
 8050c69:	83 fe 54             	cmp    $0x54,%esi
 8050c6c:	0f 87 be 01 00 00    	ja     8050e30 <_malloc_r+0x610>
 8050c72:	89 fe                	mov    %edi,%esi
 8050c74:	c1 ee 0c             	shr    $0xc,%esi
 8050c77:	83 c6 6e             	add    $0x6e,%esi
 8050c7a:	8d 04 36             	lea    (%esi,%esi,1),%eax
 8050c7d:	e9 5f fc ff ff       	jmp    80508e1 <_malloc_r+0xc1>
 8050c82:	8d b6 00 00 00 00    	lea    0x0(%esi),%esi
 8050c88:	89 f1                	mov    %esi,%ecx
 8050c8a:	c1 e9 09             	shr    $0x9,%ecx
 8050c8d:	83 f9 04             	cmp    $0x4,%ecx
 8050c90:	0f 86 6d 01 00 00    	jbe    8050e03 <_malloc_r+0x5e3>
 8050c96:	83 f9 14             	cmp    $0x14,%ecx
 8050c99:	0f 87 0f 02 00 00    	ja     8050eae <_malloc_r+0x68e>
 8050c9f:	83 c1 5b             	add    $0x5b,%ecx
 8050ca2:	8d 04 09             	lea    (%ecx,%ecx,1),%eax
 8050ca5:	8d 04 85 c0 a9 05 08 	lea    0x805a9c0(,%eax,4),%eax
 8050cac:	8b 50 08             	mov    0x8(%eax),%edx
 8050caf:	39 c2                	cmp    %eax,%edx
 8050cb1:	0f 84 a1 01 00 00    	je     8050e58 <_malloc_r+0x638>
 8050cb7:	90                   	nop
 8050cb8:	8b 4a 04             	mov    0x4(%edx),%ecx
 8050cbb:	83 e1 fc             	and    $0xfffffffc,%ecx
 8050cbe:	39 ce                	cmp    %ecx,%esi
 8050cc0:	73 07                	jae    8050cc9 <_malloc_r+0x4a9>
 8050cc2:	8b 52 08             	mov    0x8(%edx),%edx
 8050cc5:	39 d0                	cmp    %edx,%eax
 8050cc7:	75 ef                	jne    8050cb8 <_malloc_r+0x498>
 8050cc9:	8b 4a 0c             	mov    0xc(%edx),%ecx
 8050ccc:	a1 c4 a9 05 08       	mov    0x805a9c4,%eax
 8050cd1:	89 4b 0c             	mov    %ecx,0xc(%ebx)
 8050cd4:	89 53 08             	mov    %edx,0x8(%ebx)
 8050cd7:	89 59 08             	mov    %ebx,0x8(%ecx)
 8050cda:	89 5a 0c             	mov    %ebx,0xc(%edx)
 8050cdd:	e9 bb fc ff ff       	jmp    805099d <_malloc_r+0x17d>
 8050ce2:	8d b6 00 00 00 00    	lea    0x0(%esi),%esi
 8050ce8:	89 c1                	mov    %eax,%ecx
 8050cea:	8d 14 3b             	lea    (%ebx,%edi,1),%edx
 8050ced:	83 c9 01             	or     $0x1,%ecx
 8050cf0:	83 cf 01             	or     $0x1,%edi
 8050cf3:	89 7b 04             	mov    %edi,0x4(%ebx)
 8050cf6:	89 15 d4 a9 05 08    	mov    %edx,0x805a9d4
 8050cfc:	89 15 d0 a9 05 08    	mov    %edx,0x805a9d0
 8050d02:	c7 42 0c c8 a9 05 08 	movl   $0x805a9c8,0xc(%edx)
 8050d09:	c7 42 08 c8 a9 05 08 	movl   $0x805a9c8,0x8(%edx)
 8050d10:	89 4a 04             	mov    %ecx,0x4(%edx)
 8050d13:	89 04 02             	mov    %eax,(%edx,%eax,1)
 8050d16:	8b 45 08             	mov    0x8(%ebp),%eax
 8050d19:	89 04 24             	mov    %eax,(%esp)
 8050d1c:	e8 2f 03 00 00       	call   8051050 <__malloc_unlock>
 8050d21:	8d 43 08             	lea    0x8(%ebx),%eax
 8050d24:	e9 6e fb ff ff       	jmp    8050897 <_malloc_r+0x77>
 8050d29:	8d b4 26 00 00 00 00 	lea    0x0(%esi,%eiz,1),%esi
 8050d30:	89 75 dc             	mov    %esi,-0x24(%ebp)
 8050d33:	e9 af fc ff ff       	jmp    80509e7 <_malloc_r+0x1c7>
 8050d38:	83 45 e0 01          	addl   $0x1,-0x20(%ebp)
 8050d3c:	83 c1 08             	add    $0x8,%ecx
 8050d3f:	f6 45 e0 03          	testb  $0x3,-0x20(%ebp)
 8050d43:	0f 85 ad fc ff ff    	jne    80509f6 <_malloc_r+0x1d6>
 8050d49:	8b 45 e4             	mov    -0x1c(%ebp),%eax
 8050d4c:	eb 12                	jmp    8050d60 <_malloc_r+0x540>
 8050d4e:	66 90                	xchg   %ax,%ax
 8050d50:	8d 56 f8             	lea    -0x8(%esi),%edx
 8050d53:	8b 36                	mov    (%esi),%esi
 8050d55:	83 e8 01             	sub    $0x1,%eax
 8050d58:	39 d6                	cmp    %edx,%esi
 8050d5a:	0f 85 ea 01 00 00    	jne    8050f4a <_malloc_r+0x72a>
 8050d60:	a8 03                	test   $0x3,%al
 8050d62:	75 ec                	jne    8050d50 <_malloc_r+0x530>
 8050d64:	8b 45 dc             	mov    -0x24(%ebp),%eax
 8050d67:	f7 d0                	not    %eax
 8050d69:	23 05 c4 a9 05 08    	and    0x805a9c4,%eax
 8050d6f:	a3 c4 a9 05 08       	mov    %eax,0x805a9c4
 8050d74:	d1 65 dc             	shll   -0x24(%ebp)
 8050d77:	8b 55 dc             	mov    -0x24(%ebp),%edx
 8050d7a:	39 c2                	cmp    %eax,%edx
 8050d7c:	0f 87 26 fd ff ff    	ja     8050aa8 <_malloc_r+0x288>
 8050d82:	85 d2                	test   %edx,%edx
 8050d84:	0f 84 1e fd ff ff    	je     8050aa8 <_malloc_r+0x288>
 8050d8a:	85 c2                	test   %eax,%edx
 8050d8c:	0f 85 c2 01 00 00    	jne    8050f54 <_malloc_r+0x734>
 8050d92:	8b 75 e0             	mov    -0x20(%ebp),%esi
 8050d95:	89 f1                	mov    %esi,%ecx
 8050d97:	01 d2                	add    %edx,%edx
 8050d99:	83 c1 04             	add    $0x4,%ecx
 8050d9c:	85 d0                	test   %edx,%eax
 8050d9e:	74 f7                	je     8050d97 <_malloc_r+0x577>
 8050da0:	89 4d e4             	mov    %ecx,-0x1c(%ebp)
 8050da3:	89 55 dc             	mov    %edx,-0x24(%ebp)
 8050da6:	e9 3c fc ff ff       	jmp    80509e7 <_malloc_r+0x1c7>
 8050dab:	90                   	nop
 8050dac:	8d 74 26 00          	lea    0x0(%esi,%eiz,1),%esi
 8050db0:	8d 43 08             	lea    0x8(%ebx),%eax
 8050db3:	8b 5b 14             	mov    0x14(%ebx),%ebx
 8050db6:	39 d8                	cmp    %ebx,%eax
 8050db8:	0f 85 b4 fa ff ff    	jne    8050872 <_malloc_r+0x52>
 8050dbe:	8d 42 02             	lea    0x2(%edx),%eax
 8050dc1:	89 45 e4             	mov    %eax,-0x1c(%ebp)
 8050dc4:	e9 56 fb ff ff       	jmp    805091f <_malloc_r+0xff>
 8050dc9:	8d b4 26 00 00 00 00 	lea    0x0(%esi,%eiz,1),%esi
 8050dd0:	83 4c 03 04 01       	orl    $0x1,0x4(%ebx,%eax,1)
 8050dd5:	8b 53 08             	mov    0x8(%ebx),%edx
 8050dd8:	8b 43 0c             	mov    0xc(%ebx),%eax
 8050ddb:	89 42 0c             	mov    %eax,0xc(%edx)
 8050dde:	89 50 08             	mov    %edx,0x8(%eax)
 8050de1:	8b 45 08             	mov    0x8(%ebp),%eax
 8050de4:	89 04 24             	mov    %eax,(%esp)
 8050de7:	e8 64 02 00 00       	call   8051050 <__malloc_unlock>
 8050dec:	8d 43 08             	lea    0x8(%ebx),%eax
 8050def:	e9 a3 fa ff ff       	jmp    8050897 <_malloc_r+0x77>
 8050df4:	8d 74 26 00          	lea    0x0(%esi,%eiz,1),%esi
 8050df8:	83 c6 5b             	add    $0x5b,%esi
 8050dfb:	8d 04 36             	lea    (%esi,%esi,1),%eax
 8050dfe:	e9 de fa ff ff       	jmp    80508e1 <_malloc_r+0xc1>
 8050e03:	89 f1                	mov    %esi,%ecx
 8050e05:	c1 e9 06             	shr    $0x6,%ecx
 8050e08:	83 c1 38             	add    $0x38,%ecx
 8050e0b:	8d 04 09             	lea    (%ecx,%ecx,1),%eax
 8050e0e:	e9 92 fe ff ff       	jmp    8050ca5 <_malloc_r+0x485>
 8050e13:	81 fb c0 a9 05 08    	cmp    $0x805a9c0,%ebx
 8050e19:	0f 84 f2 fc ff ff    	je     8050b11 <_malloc_r+0x2f1>
 8050e1f:	8b 1d c8 a9 05 08    	mov    0x805a9c8,%ebx
 8050e25:	8b 53 04             	mov    0x4(%ebx),%edx
 8050e28:	83 e2 fc             	and    $0xfffffffc,%edx
 8050e2b:	e9 de fd ff ff       	jmp    8050c0e <_malloc_r+0x3ee>
 8050e30:	81 fe 54 01 00 00    	cmp    $0x154,%esi
 8050e36:	77 3c                	ja     8050e74 <_malloc_r+0x654>
 8050e38:	89 fe                	mov    %edi,%esi
 8050e3a:	c1 ee 0f             	shr    $0xf,%esi
 8050e3d:	83 c6 77             	add    $0x77,%esi
 8050e40:	8d 04 36             	lea    (%esi,%esi,1),%eax
 8050e43:	e9 99 fa ff ff       	jmp    80508e1 <_malloc_r+0xc1>
 8050e48:	c7 41 04 01 00 00 00 	movl   $0x1,0x4(%ecx)
 8050e4f:	89 cb                	mov    %ecx,%ebx
 8050e51:	31 d2                	xor    %edx,%edx
 8050e53:	e9 b6 fd ff ff       	jmp    8050c0e <_malloc_r+0x3ee>
 8050e58:	c1 f9 02             	sar    $0x2,%ecx
 8050e5b:	b8 01 00 00 00       	mov    $0x1,%eax
 8050e60:	d3 e0                	shl    %cl,%eax
 8050e62:	89 d1                	mov    %edx,%ecx
 8050e64:	0b 05 c4 a9 05 08    	or     0x805a9c4,%eax
 8050e6a:	a3 c4 a9 05 08       	mov    %eax,0x805a9c4
 8050e6f:	e9 5d fe ff ff       	jmp    8050cd1 <_malloc_r+0x4b1>
 8050e74:	81 fe 54 05 00 00    	cmp    $0x554,%esi
 8050e7a:	77 47                	ja     8050ec3 <_malloc_r+0x6a3>
 8050e7c:	89 fe                	mov    %edi,%esi
 8050e7e:	c1 ee 12             	shr    $0x12,%esi
 8050e81:	83 c6 7c             	add    $0x7c,%esi
 8050e84:	8d 04 36             	lea    (%esi,%esi,1),%eax
 8050e87:	e9 55 fa ff ff       	jmp    80508e1 <_malloc_r+0xc1>
 8050e8c:	8b 45 08             	mov    0x8(%ebp),%eax
 8050e8f:	83 c3 08             	add    $0x8,%ebx
 8050e92:	89 5c 24 04          	mov    %ebx,0x4(%esp)
 8050e96:	89 04 24             	mov    %eax,(%esp)
 8050e99:	e8 d2 f3 ff ff       	call   8050270 <_free_r>
 8050e9e:	8b 15 60 06 07 08    	mov    0x8070660,%edx
 8050ea4:	a1 c8 a9 05 08       	mov    0x805a9c8,%eax
 8050ea9:	e9 3c fd ff ff       	jmp    8050bea <_malloc_r+0x3ca>
 8050eae:	83 f9 54             	cmp    $0x54,%ecx
 8050eb1:	77 58                	ja     8050f0b <_malloc_r+0x6eb>
 8050eb3:	89 f1                	mov    %esi,%ecx
 8050eb5:	c1 e9 0c             	shr    $0xc,%ecx
 8050eb8:	83 c1 6e             	add    $0x6e,%ecx
 8050ebb:	8d 04 09             	lea    (%ecx,%ecx,1),%eax
 8050ebe:	e9 e2 fd ff ff       	jmp    8050ca5 <_malloc_r+0x485>
 8050ec3:	b8 fc 00 00 00       	mov    $0xfc,%eax
 8050ec8:	be 7e 00 00 00       	mov    $0x7e,%esi
 8050ecd:	e9 0f fa ff ff       	jmp    80508e1 <_malloc_r+0xc1>
 8050ed2:	f7 45 e4 ff 0f 00 00 	testl  $0xfff,-0x1c(%ebp)
 8050ed9:	0f 85 4a fc ff ff    	jne    8050b29 <_malloc_r+0x309>
 8050edf:	8b 4d e0             	mov    -0x20(%ebp),%ecx
 8050ee2:	a1 c8 a9 05 08       	mov    0x805a9c8,%eax
 8050ee7:	01 f1                	add    %esi,%ecx
 8050ee9:	83 c9 01             	or     $0x1,%ecx
 8050eec:	89 48 04             	mov    %ecx,0x4(%eax)
 8050eef:	e9 f6 fc ff ff       	jmp    8050bea <_malloc_r+0x3ca>
 8050ef4:	b8 01 00 00 00       	mov    $0x1,%eax
 8050ef9:	31 d2                	xor    %edx,%edx
 8050efb:	e9 91 fc ff ff       	jmp    8050b91 <_malloc_r+0x371>
 8050f00:	89 0d a0 a9 05 08    	mov    %ecx,0x805a9a0
 8050f06:	e9 37 fc ff ff       	jmp    8050b42 <_malloc_r+0x322>
 8050f0b:	81 f9 54 01 00 00    	cmp    $0x154,%ecx
 8050f11:	77 10                	ja     8050f23 <_malloc_r+0x703>
 8050f13:	89 f1                	mov    %esi,%ecx
 8050f15:	c1 e9 0f             	shr    $0xf,%ecx
 8050f18:	83 c1 77             	add    $0x77,%ecx
 8050f1b:	8d 04 09             	lea    (%ecx,%ecx,1),%eax
 8050f1e:	e9 82 fd ff ff       	jmp    8050ca5 <_malloc_r+0x485>
 8050f23:	81 f9 54 05 00 00    	cmp    $0x554,%ecx
 8050f29:	77 10                	ja     8050f3b <_malloc_r+0x71b>
 8050f2b:	89 f1                	mov    %esi,%ecx
 8050f2d:	c1 e9 12             	shr    $0x12,%ecx
 8050f30:	83 c1 7c             	add    $0x7c,%ecx
 8050f33:	8d 04 09             	lea    (%ecx,%ecx,1),%eax
 8050f36:	e9 6a fd ff ff       	jmp    8050ca5 <_malloc_r+0x485>
 8050f3b:	b8 fc 00 00 00       	mov    $0xfc,%eax
 8050f40:	b9 7e 00 00 00       	mov    $0x7e,%ecx
 8050f45:	e9 5b fd ff ff       	jmp    8050ca5 <_malloc_r+0x485>
 8050f4a:	a1 c4 a9 05 08       	mov    0x805a9c4,%eax
 8050f4f:	e9 20 fe ff ff       	jmp    8050d74 <_malloc_r+0x554>
 8050f54:	8b 45 e0             	mov    -0x20(%ebp),%eax
 8050f57:	89 45 e4             	mov    %eax,-0x1c(%ebp)
 8050f5a:	e9 88 fa ff ff       	jmp    80509e7 <_malloc_r+0x1c7>
 8050f5f:	90                   	nop

08050f60 <memchr>:
 8050f60:	55                   	push   %ebp
 8050f61:	89 e5                	mov    %esp,%ebp
 8050f63:	57                   	push   %edi
 8050f64:	0f b6 45 0c          	movzbl 0xc(%ebp),%eax
 8050f68:	8b 4d 10             	mov    0x10(%ebp),%ecx
 8050f6b:	8b 7d 08             	mov    0x8(%ebp),%edi
 8050f6e:	31 d2                	xor    %edx,%edx
 8050f70:	85 c9                	test   %ecx,%ecx
 8050f72:	74 79                	je     8050fed <L20>
 8050f74:	f7 c7 03 00 00 00    	test   $0x3,%edi
 8050f7a:	74 28                	je     8050fa4 <L5>
 8050f7c:	3a 07                	cmp    (%edi),%al
 8050f7e:	74 6a                	je     8050fea <L15>
 8050f80:	47                   	inc    %edi
 8050f81:	49                   	dec    %ecx
 8050f82:	74 69                	je     8050fed <L20>
 8050f84:	f7 c7 03 00 00 00    	test   $0x3,%edi
 8050f8a:	74 18                	je     8050fa4 <L5>
 8050f8c:	3a 07                	cmp    (%edi),%al
 8050f8e:	74 5a                	je     8050fea <L15>
 8050f90:	47                   	inc    %edi
 8050f91:	49                   	dec    %ecx
 8050f92:	74 59                	je     8050fed <L20>
 8050f94:	f7 c7 03 00 00 00    	test   $0x3,%edi
 8050f9a:	74 08                	je     8050fa4 <L5>
 8050f9c:	3a 07                	cmp    (%edi),%al
 8050f9e:	74 4a                	je     8050fea <L15>
 8050fa0:	47                   	inc    %edi
 8050fa1:	49                   	dec    %ecx
 8050fa2:	74 49                	je     8050fed <L20>

08050fa4 <L5>:
 8050fa4:	88 c4                	mov    %al,%ah
 8050fa6:	89 c2                	mov    %eax,%edx
 8050fa8:	c1 e2 10             	shl    $0x10,%edx
 8050fab:	09 d0                	or     %edx,%eax
 8050fad:	53                   	push   %ebx
 8050fae:	66 90                	xchg   %ax,%ax

08050fb0 <L8>:
 8050fb0:	83 e9 04             	sub    $0x4,%ecx
 8050fb3:	72 1c                	jb     8050fd1 <L9>
 8050fb5:	8b 17                	mov    (%edi),%edx
 8050fb7:	83 c7 04             	add    $0x4,%edi
 8050fba:	31 c2                	xor    %eax,%edx
 8050fbc:	8d 9a ff fe fe fe    	lea    -0x1010101(%edx),%ebx
 8050fc2:	f7 d2                	not    %edx
 8050fc4:	21 d3                	and    %edx,%ebx
 8050fc6:	f7 c3 80 80 80 80    	test   $0x80808080,%ebx
 8050fcc:	74 e2                	je     8050fb0 <L8>
 8050fce:	83 ef 04             	sub    $0x4,%edi

08050fd1 <L9>:
 8050fd1:	5b                   	pop    %ebx
 8050fd2:	31 d2                	xor    %edx,%edx
 8050fd4:	83 c1 04             	add    $0x4,%ecx
 8050fd7:	74 14                	je     8050fed <L20>
 8050fd9:	8d b4 26 00 00 00 00 	lea    0x0(%esi,%eiz,1),%esi

08050fe0 <L10>:
 8050fe0:	3a 07                	cmp    (%edi),%al
 8050fe2:	74 06                	je     8050fea <L15>
 8050fe4:	47                   	inc    %edi
 8050fe5:	49                   	dec    %ecx
 8050fe6:	75 f8                	jne    8050fe0 <L10>
 8050fe8:	31 ff                	xor    %edi,%edi

08050fea <L15>:
 8050fea:	4a                   	dec    %edx
 8050feb:	21 fa                	and    %edi,%edx

08050fed <L20>:
 8050fed:	89 d0                	mov    %edx,%eax
 8050fef:	8d 65 fc             	lea    -0x4(%ebp),%esp
 8050ff2:	5f                   	pop    %edi
 8050ff3:	c9                   	leave  
 8050ff4:	c3                   	ret    
 8050ff5:	66 90                	xchg   %ax,%ax
 8050ff7:	90                   	nop

08050ff8 <memcpy>:
 8050ff8:	55                   	push   %ebp
 8050ff9:	89 e5                	mov    %esp,%ebp
 8050ffb:	56                   	push   %esi
 8050ffc:	57                   	push   %edi
 8050ffd:	53                   	push   %ebx
 8050ffe:	8b 7d 08             	mov    0x8(%ebp),%edi
 8051001:	8b 4d 10             	mov    0x10(%ebp),%ecx
 8051004:	8b 75 0c             	mov    0xc(%ebp),%esi
 8051007:	fc                   	cld    
 8051008:	83 f9 08             	cmp    $0x8,%ecx
 805100b:	76 26                	jbe    8051033 <memcpy+0x3b>
 805100d:	89 fa                	mov    %edi,%edx
 805100f:	89 cb                	mov    %ecx,%ebx
 8051011:	83 e2 03             	and    $0x3,%edx
 8051014:	74 10                	je     8051026 <memcpy+0x2e>
 8051016:	b9 04 00 00 00       	mov    $0x4,%ecx
 805101b:	29 d1                	sub    %edx,%ecx
 805101d:	83 e1 03             	and    $0x3,%ecx
 8051020:	29 cb                	sub    %ecx,%ebx
 8051022:	f3 a4                	rep movsb %ds:(%esi),%es:(%edi)
 8051024:	89 d9                	mov    %ebx,%ecx
 8051026:	c1 e9 02             	shr    $0x2,%ecx
 8051029:	8d 76 00             	lea    0x0(%esi),%esi
 805102c:	f3 a5                	rep movsl %ds:(%esi),%es:(%edi)
 805102e:	89 d9                	mov    %ebx,%ecx
 8051030:	83 e1 03             	and    $0x3,%ecx
 8051033:	f3 a4                	rep movsb %ds:(%esi),%es:(%edi)
 8051035:	8b 45 08             	mov    0x8(%ebp),%eax
 8051038:	8d 65 f4             	lea    -0xc(%ebp),%esp
 805103b:	5b                   	pop    %ebx
 805103c:	5f                   	pop    %edi
 805103d:	5e                   	pop    %esi
 805103e:	c9                   	leave  
 805103f:	c3                   	ret    

08051040 <__malloc_lock>:
 8051040:	55                   	push   %ebp
 8051041:	89 e5                	mov    %esp,%ebp
 8051043:	5d                   	pop    %ebp
 8051044:	c3                   	ret    
 8051045:	8d 74 26 00          	lea    0x0(%esi,%eiz,1),%esi
 8051049:	8d bc 27 00 00 00 00 	lea    0x0(%edi,%eiz,1),%edi

08051050 <__malloc_unlock>:
 8051050:	55                   	push   %ebp
 8051051:	89 e5                	mov    %esp,%ebp
 8051053:	5d                   	pop    %ebp
 8051054:	c3                   	ret    
 8051055:	66 90                	xchg   %ax,%ax
 8051057:	66 90                	xchg   %ax,%ax
 8051059:	66 90                	xchg   %ax,%ax
 805105b:	66 90                	xchg   %ax,%ax
 805105d:	66 90                	xchg   %ax,%ax
 805105f:	90                   	nop

08051060 <_Balloc>:
 8051060:	55                   	push   %ebp
 8051061:	89 e5                	mov    %esp,%ebp
 8051063:	57                   	push   %edi
 8051064:	56                   	push   %esi
 8051065:	53                   	push   %ebx
 8051066:	83 ec 1c             	sub    $0x1c,%esp
 8051069:	8b 75 08             	mov    0x8(%ebp),%esi
 805106c:	8b 5d 0c             	mov    0xc(%ebp),%ebx
 805106f:	8b 46 4c             	mov    0x4c(%esi),%eax
 8051072:	85 c0                	test   %eax,%eax
 8051074:	74 2a                	je     80510a0 <_Balloc+0x40>
 8051076:	8d 14 98             	lea    (%eax,%ebx,4),%edx
 8051079:	8b 02                	mov    (%edx),%eax
 805107b:	85 c0                	test   %eax,%eax
 805107d:	74 49                	je     80510c8 <_Balloc+0x68>
 805107f:	8b 08                	mov    (%eax),%ecx
 8051081:	89 0a                	mov    %ecx,(%edx)
 8051083:	c7 40 10 00 00 00 00 	movl   $0x0,0x10(%eax)
 805108a:	c7 40 0c 00 00 00 00 	movl   $0x0,0xc(%eax)
 8051091:	83 c4 1c             	add    $0x1c,%esp
 8051094:	5b                   	pop    %ebx
 8051095:	5e                   	pop    %esi
 8051096:	5f                   	pop    %edi
 8051097:	5d                   	pop    %ebp
 8051098:	c3                   	ret    
 8051099:	8d b4 26 00 00 00 00 	lea    0x0(%esi,%eiz,1),%esi
 80510a0:	c7 44 24 08 21 00 00 	movl   $0x21,0x8(%esp)
 80510a7:	00 
 80510a8:	c7 44 24 04 04 00 00 	movl   $0x4,0x4(%esp)
 80510af:	00 
 80510b0:	89 34 24             	mov    %esi,(%esp)
 80510b3:	e8 08 32 00 00       	call   80542c0 <_calloc_r>
 80510b8:	85 c0                	test   %eax,%eax
 80510ba:	89 46 4c             	mov    %eax,0x4c(%esi)
 80510bd:	75 b7                	jne    8051076 <_Balloc+0x16>
 80510bf:	31 c0                	xor    %eax,%eax
 80510c1:	eb ce                	jmp    8051091 <_Balloc+0x31>
 80510c3:	90                   	nop
 80510c4:	8d 74 26 00          	lea    0x0(%esi,%eiz,1),%esi
 80510c8:	89 d9                	mov    %ebx,%ecx
 80510ca:	bf 01 00 00 00       	mov    $0x1,%edi
 80510cf:	d3 e7                	shl    %cl,%edi
 80510d1:	8d 04 bd 14 00 00 00 	lea    0x14(,%edi,4),%eax
 80510d8:	89 44 24 08          	mov    %eax,0x8(%esp)
 80510dc:	c7 44 24 04 01 00 00 	movl   $0x1,0x4(%esp)
 80510e3:	00 
 80510e4:	89 34 24             	mov    %esi,(%esp)
 80510e7:	e8 d4 31 00 00       	call   80542c0 <_calloc_r>
 80510ec:	85 c0                	test   %eax,%eax
 80510ee:	74 cf                	je     80510bf <_Balloc+0x5f>
 80510f0:	89 58 04             	mov    %ebx,0x4(%eax)
 80510f3:	89 78 08             	mov    %edi,0x8(%eax)
 80510f6:	eb 8b                	jmp    8051083 <_Balloc+0x23>
 80510f8:	90                   	nop
 80510f9:	8d b4 26 00 00 00 00 	lea    0x0(%esi,%eiz,1),%esi

08051100 <_Bfree>:
 8051100:	55                   	push   %ebp
 8051101:	89 e5                	mov    %esp,%ebp
 8051103:	8b 45 0c             	mov    0xc(%ebp),%eax
 8051106:	85 c0                	test   %eax,%eax
 8051108:	74 12                	je     805111c <_Bfree+0x1c>
 805110a:	8b 55 08             	mov    0x8(%ebp),%edx
 805110d:	8b 48 04             	mov    0x4(%eax),%ecx
 8051110:	8b 52 4c             	mov    0x4c(%edx),%edx
 8051113:	8d 14 8a             	lea    (%edx,%ecx,4),%edx
 8051116:	8b 0a                	mov    (%edx),%ecx
 8051118:	89 08                	mov    %ecx,(%eax)
 805111a:	89 02                	mov    %eax,(%edx)
 805111c:	5d                   	pop    %ebp
 805111d:	c3                   	ret    
 805111e:	66 90                	xchg   %ax,%ax

08051120 <__multadd>:
 8051120:	55                   	push   %ebp
 8051121:	89 e5                	mov    %esp,%ebp
 8051123:	57                   	push   %edi
 8051124:	56                   	push   %esi
 8051125:	53                   	push   %ebx
 8051126:	83 ec 2c             	sub    $0x2c,%esp
 8051129:	8b 45 0c             	mov    0xc(%ebp),%eax
 805112c:	8b 5d 14             	mov    0x14(%ebp),%ebx
 805112f:	8b 40 10             	mov    0x10(%eax),%eax
 8051132:	89 45 e4             	mov    %eax,-0x1c(%ebp)
 8051135:	8b 45 0c             	mov    0xc(%ebp),%eax
 8051138:	8d 78 14             	lea    0x14(%eax),%edi
 805113b:	31 c0                	xor    %eax,%eax
 805113d:	8d 76 00             	lea    0x0(%esi),%esi
 8051140:	8b 0c 87             	mov    (%edi,%eax,4),%ecx
 8051143:	0f b7 d1             	movzwl %cx,%edx
 8051146:	0f af 55 10          	imul   0x10(%ebp),%edx
 805114a:	c1 e9 10             	shr    $0x10,%ecx
 805114d:	0f af 4d 10          	imul   0x10(%ebp),%ecx
 8051151:	01 da                	add    %ebx,%edx
 8051153:	89 d3                	mov    %edx,%ebx
 8051155:	0f b7 d2             	movzwl %dx,%edx
 8051158:	c1 eb 10             	shr    $0x10,%ebx
 805115b:	01 d9                	add    %ebx,%ecx
 805115d:	89 ce                	mov    %ecx,%esi
 805115f:	c1 e1 10             	shl    $0x10,%ecx
 8051162:	01 d1                	add    %edx,%ecx
 8051164:	c1 ee 10             	shr    $0x10,%esi
 8051167:	89 0c 87             	mov    %ecx,(%edi,%eax,4)
 805116a:	83 c0 01             	add    $0x1,%eax
 805116d:	89 f3                	mov    %esi,%ebx
 805116f:	39 45 e4             	cmp    %eax,-0x1c(%ebp)
 8051172:	7f cc                	jg     8051140 <__multadd+0x20>
 8051174:	85 f6                	test   %esi,%esi
 8051176:	74 1b                	je     8051193 <__multadd+0x73>
 8051178:	8b 45 0c             	mov    0xc(%ebp),%eax
 805117b:	8b 7d e4             	mov    -0x1c(%ebp),%edi
 805117e:	3b 78 08             	cmp    0x8(%eax),%edi
 8051181:	7d 1d                	jge    80511a0 <__multadd+0x80>
 8051183:	8b 7d 0c             	mov    0xc(%ebp),%edi
 8051186:	8b 45 e4             	mov    -0x1c(%ebp),%eax
 8051189:	89 74 87 14          	mov    %esi,0x14(%edi,%eax,4)
 805118d:	83 c0 01             	add    $0x1,%eax
 8051190:	89 47 10             	mov    %eax,0x10(%edi)
 8051193:	8b 45 0c             	mov    0xc(%ebp),%eax
 8051196:	83 c4 2c             	add    $0x2c,%esp
 8051199:	5b                   	pop    %ebx
 805119a:	5e                   	pop    %esi
 805119b:	5f                   	pop    %edi
 805119c:	5d                   	pop    %ebp
 805119d:	c3                   	ret    
 805119e:	66 90                	xchg   %ax,%ax
 80511a0:	8b 40 04             	mov    0x4(%eax),%eax
 80511a3:	89 45 e0             	mov    %eax,-0x20(%ebp)
 80511a6:	83 c0 01             	add    $0x1,%eax
 80511a9:	89 44 24 04          	mov    %eax,0x4(%esp)
 80511ad:	8b 45 08             	mov    0x8(%ebp),%eax
 80511b0:	89 04 24             	mov    %eax,(%esp)
 80511b3:	e8 a8 fe ff ff       	call   8051060 <_Balloc>
 80511b8:	89 c3                	mov    %eax,%ebx
 80511ba:	8b 45 0c             	mov    0xc(%ebp),%eax
 80511bd:	8b 40 10             	mov    0x10(%eax),%eax
 80511c0:	8d 04 85 08 00 00 00 	lea    0x8(,%eax,4),%eax
 80511c7:	89 44 24 08          	mov    %eax,0x8(%esp)
 80511cb:	8b 45 0c             	mov    0xc(%ebp),%eax
 80511ce:	83 c0 0c             	add    $0xc,%eax
 80511d1:	89 44 24 04          	mov    %eax,0x4(%esp)
 80511d5:	8d 43 0c             	lea    0xc(%ebx),%eax
 80511d8:	89 04 24             	mov    %eax,(%esp)
 80511db:	e8 18 fe ff ff       	call   8050ff8 <memcpy>
 80511e0:	8b 45 0c             	mov    0xc(%ebp),%eax
 80511e3:	8b 7d 0c             	mov    0xc(%ebp),%edi
 80511e6:	89 5d 0c             	mov    %ebx,0xc(%ebp)
 80511e9:	8b 50 04             	mov    0x4(%eax),%edx
 80511ec:	8b 45 08             	mov    0x8(%ebp),%eax
 80511ef:	8b 40 4c             	mov    0x4c(%eax),%eax
 80511f2:	8d 04 90             	lea    (%eax,%edx,4),%eax
 80511f5:	8b 10                	mov    (%eax),%edx
 80511f7:	89 17                	mov    %edx,(%edi)
 80511f9:	89 38                	mov    %edi,(%eax)
 80511fb:	eb 86                	jmp    8051183 <__multadd+0x63>
 80511fd:	8d 76 00             	lea    0x0(%esi),%esi

08051200 <__s2b>:
 8051200:	55                   	push   %ebp
 8051201:	ba 39 8e e3 38       	mov    $0x38e38e39,%edx
 8051206:	89 e5                	mov    %esp,%ebp
 8051208:	57                   	push   %edi
 8051209:	56                   	push   %esi
 805120a:	53                   	push   %ebx
 805120b:	83 ec 2c             	sub    $0x2c,%esp
 805120e:	8b 45 14             	mov    0x14(%ebp),%eax
 8051211:	8b 5d 08             	mov    0x8(%ebp),%ebx
 8051214:	8b 75 0c             	mov    0xc(%ebp),%esi
 8051217:	8d 48 08             	lea    0x8(%eax),%ecx
 805121a:	89 c8                	mov    %ecx,%eax
 805121c:	f7 ea                	imul   %edx
 805121e:	c1 f9 1f             	sar    $0x1f,%ecx
 8051221:	d1 fa                	sar    %edx
 8051223:	29 ca                	sub    %ecx,%edx
 8051225:	83 fa 01             	cmp    $0x1,%edx
 8051228:	0f 8e be 00 00 00    	jle    80512ec <__s2b+0xec>
 805122e:	b8 01 00 00 00       	mov    $0x1,%eax
 8051233:	31 c9                	xor    %ecx,%ecx
 8051235:	8d 76 00             	lea    0x0(%esi),%esi
 8051238:	01 c0                	add    %eax,%eax
 805123a:	83 c1 01             	add    $0x1,%ecx
 805123d:	39 c2                	cmp    %eax,%edx
 805123f:	7f f7                	jg     8051238 <__s2b+0x38>
 8051241:	89 4c 24 04          	mov    %ecx,0x4(%esp)
 8051245:	89 1c 24             	mov    %ebx,(%esp)
 8051248:	e8 13 fe ff ff       	call   8051060 <_Balloc>
 805124d:	8b 55 18             	mov    0x18(%ebp),%edx
 8051250:	83 7d 10 09          	cmpl   $0x9,0x10(%ebp)
 8051254:	89 50 14             	mov    %edx,0x14(%eax)
 8051257:	c7 40 10 01 00 00 00 	movl   $0x1,0x10(%eax)
 805125e:	0f 8e 7c 00 00 00    	jle    80512e0 <__s2b+0xe0>
 8051264:	8d 4e 09             	lea    0x9(%esi),%ecx
 8051267:	03 75 10             	add    0x10(%ebp),%esi
 805126a:	89 cf                	mov    %ecx,%edi
 805126c:	89 4d e4             	mov    %ecx,-0x1c(%ebp)
 805126f:	90                   	nop
 8051270:	83 c7 01             	add    $0x1,%edi
 8051273:	0f be 57 ff          	movsbl -0x1(%edi),%edx
 8051277:	c7 44 24 08 0a 00 00 	movl   $0xa,0x8(%esp)
 805127e:	00 
 805127f:	89 44 24 04          	mov    %eax,0x4(%esp)
 8051283:	89 1c 24             	mov    %ebx,(%esp)
 8051286:	83 ea 30             	sub    $0x30,%edx
 8051289:	89 54 24 0c          	mov    %edx,0xc(%esp)
 805128d:	e8 8e fe ff ff       	call   8051120 <__multadd>
 8051292:	39 f7                	cmp    %esi,%edi
 8051294:	75 da                	jne    8051270 <__s2b+0x70>
 8051296:	8b 4d e4             	mov    -0x1c(%ebp),%ecx
 8051299:	8b 7d 10             	mov    0x10(%ebp),%edi
 805129c:	8d 74 39 f8          	lea    -0x8(%ecx,%edi,1),%esi
 80512a0:	8b 4d 10             	mov    0x10(%ebp),%ecx
 80512a3:	39 4d 14             	cmp    %ecx,0x14(%ebp)
 80512a6:	7e 2e                	jle    80512d6 <__s2b+0xd6>
 80512a8:	8b 7d 14             	mov    0x14(%ebp),%edi
 80512ab:	29 cf                	sub    %ecx,%edi
 80512ad:	01 f7                	add    %esi,%edi
 80512af:	90                   	nop
 80512b0:	83 c6 01             	add    $0x1,%esi
 80512b3:	0f be 56 ff          	movsbl -0x1(%esi),%edx
 80512b7:	c7 44 24 08 0a 00 00 	movl   $0xa,0x8(%esp)
 80512be:	00 
 80512bf:	89 44 24 04          	mov    %eax,0x4(%esp)
 80512c3:	89 1c 24             	mov    %ebx,(%esp)
 80512c6:	83 ea 30             	sub    $0x30,%edx
 80512c9:	89 54 24 0c          	mov    %edx,0xc(%esp)
 80512cd:	e8 4e fe ff ff       	call   8051120 <__multadd>
 80512d2:	39 fe                	cmp    %edi,%esi
 80512d4:	75 da                	jne    80512b0 <__s2b+0xb0>
 80512d6:	83 c4 2c             	add    $0x2c,%esp
 80512d9:	5b                   	pop    %ebx
 80512da:	5e                   	pop    %esi
 80512db:	5f                   	pop    %edi
 80512dc:	5d                   	pop    %ebp
 80512dd:	c3                   	ret    
 80512de:	66 90                	xchg   %ax,%ax
 80512e0:	83 c6 0a             	add    $0xa,%esi
 80512e3:	c7 45 10 09 00 00 00 	movl   $0x9,0x10(%ebp)
 80512ea:	eb b4                	jmp    80512a0 <__s2b+0xa0>
 80512ec:	31 c9                	xor    %ecx,%ecx
 80512ee:	e9 4e ff ff ff       	jmp    8051241 <__s2b+0x41>
 80512f3:	8d b6 00 00 00 00    	lea    0x0(%esi),%esi
 80512f9:	8d bc 27 00 00 00 00 	lea    0x0(%edi,%eiz,1),%edi

08051300 <__hi0bits>:
 8051300:	55                   	push   %ebp
 8051301:	31 c9                	xor    %ecx,%ecx
 8051303:	89 e5                	mov    %esp,%ebp
 8051305:	8b 55 08             	mov    0x8(%ebp),%edx
 8051308:	f7 c2 00 00 ff ff    	test   $0xffff0000,%edx
 805130e:	75 05                	jne    8051315 <__hi0bits+0x15>
 8051310:	c1 e2 10             	shl    $0x10,%edx
 8051313:	b1 10                	mov    $0x10,%cl
 8051315:	f7 c2 00 00 00 ff    	test   $0xff000000,%edx
 805131b:	75 06                	jne    8051323 <__hi0bits+0x23>
 805131d:	83 c1 08             	add    $0x8,%ecx
 8051320:	c1 e2 08             	shl    $0x8,%edx
 8051323:	f7 c2 00 00 00 f0    	test   $0xf0000000,%edx
 8051329:	75 06                	jne    8051331 <__hi0bits+0x31>
 805132b:	83 c1 04             	add    $0x4,%ecx
 805132e:	c1 e2 04             	shl    $0x4,%edx
 8051331:	f7 c2 00 00 00 c0    	test   $0xc0000000,%edx
 8051337:	75 06                	jne    805133f <__hi0bits+0x3f>
 8051339:	83 c1 02             	add    $0x2,%ecx
 805133c:	c1 e2 02             	shl    $0x2,%edx
 805133f:	85 d2                	test   %edx,%edx
 8051341:	89 c8                	mov    %ecx,%eax
 8051343:	78 0d                	js     8051352 <__hi0bits+0x52>
 8051345:	81 e2 00 00 00 40    	and    $0x40000000,%edx
 805134b:	b8 20 00 00 00       	mov    $0x20,%eax
 8051350:	75 06                	jne    8051358 <__hi0bits+0x58>
 8051352:	5d                   	pop    %ebp
 8051353:	c3                   	ret    
 8051354:	8d 74 26 00          	lea    0x0(%esi,%eiz,1),%esi
 8051358:	8d 41 01             	lea    0x1(%ecx),%eax
 805135b:	5d                   	pop    %ebp
 805135c:	c3                   	ret    
 805135d:	8d 76 00             	lea    0x0(%esi),%esi

08051360 <__lo0bits>:
 8051360:	55                   	push   %ebp
 8051361:	89 e5                	mov    %esp,%ebp
 8051363:	53                   	push   %ebx
 8051364:	8b 5d 08             	mov    0x8(%ebp),%ebx
 8051367:	8b 13                	mov    (%ebx),%edx
 8051369:	f6 c2 07             	test   $0x7,%dl
 805136c:	74 1a                	je     8051388 <__lo0bits+0x28>
 805136e:	31 c0                	xor    %eax,%eax
 8051370:	f6 c2 01             	test   $0x1,%dl
 8051373:	75 0f                	jne    8051384 <__lo0bits+0x24>
 8051375:	f6 c2 02             	test   $0x2,%dl
 8051378:	75 56                	jne    80513d0 <__lo0bits+0x70>
 805137a:	c1 ea 02             	shr    $0x2,%edx
 805137d:	b8 02 00 00 00       	mov    $0x2,%eax
 8051382:	89 13                	mov    %edx,(%ebx)
 8051384:	5b                   	pop    %ebx
 8051385:	5d                   	pop    %ebp
 8051386:	c3                   	ret    
 8051387:	90                   	nop
 8051388:	31 c9                	xor    %ecx,%ecx
 805138a:	66 85 d2             	test   %dx,%dx
 805138d:	75 05                	jne    8051394 <__lo0bits+0x34>
 805138f:	c1 ea 10             	shr    $0x10,%edx
 8051392:	b1 10                	mov    $0x10,%cl
 8051394:	84 d2                	test   %dl,%dl
 8051396:	75 06                	jne    805139e <__lo0bits+0x3e>
 8051398:	83 c1 08             	add    $0x8,%ecx
 805139b:	c1 ea 08             	shr    $0x8,%edx
 805139e:	f6 c2 0f             	test   $0xf,%dl
 80513a1:	75 06                	jne    80513a9 <__lo0bits+0x49>
 80513a3:	83 c1 04             	add    $0x4,%ecx
 80513a6:	c1 ea 04             	shr    $0x4,%edx
 80513a9:	f6 c2 03             	test   $0x3,%dl
 80513ac:	75 06                	jne    80513b4 <__lo0bits+0x54>
 80513ae:	83 c1 02             	add    $0x2,%ecx
 80513b1:	c1 ea 02             	shr    $0x2,%edx
 80513b4:	f6 c2 01             	test   $0x1,%dl
 80513b7:	75 0c                	jne    80513c5 <__lo0bits+0x65>
 80513b9:	d1 ea                	shr    %edx
 80513bb:	b8 20 00 00 00       	mov    $0x20,%eax
 80513c0:	74 c2                	je     8051384 <__lo0bits+0x24>
 80513c2:	83 c1 01             	add    $0x1,%ecx
 80513c5:	89 13                	mov    %edx,(%ebx)
 80513c7:	89 c8                	mov    %ecx,%eax
 80513c9:	5b                   	pop    %ebx
 80513ca:	5d                   	pop    %ebp
 80513cb:	c3                   	ret    
 80513cc:	8d 74 26 00          	lea    0x0(%esi,%eiz,1),%esi
 80513d0:	d1 ea                	shr    %edx
 80513d2:	b0 01                	mov    $0x1,%al
 80513d4:	89 13                	mov    %edx,(%ebx)
 80513d6:	5b                   	pop    %ebx
 80513d7:	5d                   	pop    %ebp
 80513d8:	c3                   	ret    
 80513d9:	8d b4 26 00 00 00 00 	lea    0x0(%esi,%eiz,1),%esi

080513e0 <__i2b>:
 80513e0:	55                   	push   %ebp
 80513e1:	89 e5                	mov    %esp,%ebp
 80513e3:	83 ec 18             	sub    $0x18,%esp
 80513e6:	8b 45 08             	mov    0x8(%ebp),%eax
 80513e9:	c7 44 24 04 01 00 00 	movl   $0x1,0x4(%esp)
 80513f0:	00 
 80513f1:	89 04 24             	mov    %eax,(%esp)
 80513f4:	e8 67 fc ff ff       	call   8051060 <_Balloc>
 80513f9:	8b 55 0c             	mov    0xc(%ebp),%edx
 80513fc:	89 50 14             	mov    %edx,0x14(%eax)
 80513ff:	c7 40 10 01 00 00 00 	movl   $0x1,0x10(%eax)
 8051406:	c9                   	leave  
 8051407:	c3                   	ret    
 8051408:	90                   	nop
 8051409:	8d b4 26 00 00 00 00 	lea    0x0(%esi,%eiz,1),%esi

08051410 <__multiply>:
 8051410:	55                   	push   %ebp
 8051411:	89 e5                	mov    %esp,%ebp
 8051413:	57                   	push   %edi
 8051414:	56                   	push   %esi
 8051415:	53                   	push   %ebx
 8051416:	83 ec 3c             	sub    $0x3c,%esp
 8051419:	8b 75 0c             	mov    0xc(%ebp),%esi
 805141c:	8b 45 10             	mov    0x10(%ebp),%eax
 805141f:	8b 7e 10             	mov    0x10(%esi),%edi
 8051422:	8b 58 10             	mov    0x10(%eax),%ebx
 8051425:	39 df                	cmp    %ebx,%edi
 8051427:	7d 0e                	jge    8051437 <__multiply+0x27>
 8051429:	89 f8                	mov    %edi,%eax
 805142b:	89 df                	mov    %ebx,%edi
 805142d:	89 c3                	mov    %eax,%ebx
 805142f:	89 f0                	mov    %esi,%eax
 8051431:	8b 75 10             	mov    0x10(%ebp),%esi
 8051434:	89 45 10             	mov    %eax,0x10(%ebp)
 8051437:	8d 04 1f             	lea    (%edi,%ebx,1),%eax
 805143a:	3b 46 08             	cmp    0x8(%esi),%eax
 805143d:	89 45 c8             	mov    %eax,-0x38(%ebp)
 8051440:	0f 9f c0             	setg   %al
 8051443:	0f b6 c0             	movzbl %al,%eax
 8051446:	03 46 04             	add    0x4(%esi),%eax
 8051449:	89 44 24 04          	mov    %eax,0x4(%esp)
 805144d:	8b 45 08             	mov    0x8(%ebp),%eax
 8051450:	89 04 24             	mov    %eax,(%esp)
 8051453:	e8 08 fc ff ff       	call   8051060 <_Balloc>
 8051458:	8b 55 c8             	mov    -0x38(%ebp),%edx
 805145b:	89 45 c0             	mov    %eax,-0x40(%ebp)
 805145e:	8d 40 14             	lea    0x14(%eax),%eax
 8051461:	8d 14 90             	lea    (%eax,%edx,4),%edx
 8051464:	89 d1                	mov    %edx,%ecx
 8051466:	39 c8                	cmp    %ecx,%eax
 8051468:	89 45 d4             	mov    %eax,-0x2c(%ebp)
 805146b:	89 55 c4             	mov    %edx,-0x3c(%ebp)
 805146e:	73 15                	jae    8051485 <__multiply+0x75>
 8051470:	8b 55 c4             	mov    -0x3c(%ebp),%edx
 8051473:	90                   	nop
 8051474:	8d 74 26 00          	lea    0x0(%esi,%eiz,1),%esi
 8051478:	c7 00 00 00 00 00    	movl   $0x0,(%eax)
 805147e:	83 c0 04             	add    $0x4,%eax
 8051481:	39 c2                	cmp    %eax,%edx
 8051483:	77 f3                	ja     8051478 <__multiply+0x68>
 8051485:	8d 46 14             	lea    0x14(%esi),%eax
 8051488:	89 45 d0             	mov    %eax,-0x30(%ebp)
 805148b:	8d 04 b8             	lea    (%eax,%edi,4),%eax
 805148e:	89 45 dc             	mov    %eax,-0x24(%ebp)
 8051491:	8b 45 10             	mov    0x10(%ebp),%eax
 8051494:	83 c0 14             	add    $0x14,%eax
 8051497:	8d 3c 98             	lea    (%eax,%ebx,4),%edi
 805149a:	39 f8                	cmp    %edi,%eax
 805149c:	89 45 d8             	mov    %eax,-0x28(%ebp)
 805149f:	89 7d cc             	mov    %edi,-0x34(%ebp)
 80514a2:	0f 83 e8 00 00 00    	jae    8051590 <__multiply+0x180>
 80514a8:	8b 45 d8             	mov    -0x28(%ebp),%eax
 80514ab:	8b 00                	mov    (%eax),%eax
 80514ad:	0f b7 f8             	movzwl %ax,%edi
 80514b0:	85 ff                	test   %edi,%edi
 80514b2:	89 7d e4             	mov    %edi,-0x1c(%ebp)
 80514b5:	74 5a                	je     8051511 <__multiply+0x101>
 80514b7:	8b 55 d4             	mov    -0x2c(%ebp),%edx
 80514ba:	31 db                	xor    %ebx,%ebx
 80514bc:	8b 75 d0             	mov    -0x30(%ebp),%esi
 80514bf:	eb 09                	jmp    80514ca <__multiply+0xba>
 80514c1:	8d b4 26 00 00 00 00 	lea    0x0(%esi,%eiz,1),%esi
 80514c8:	89 fa                	mov    %edi,%edx
 80514ca:	8b 0e                	mov    (%esi),%ecx
 80514cc:	83 c6 04             	add    $0x4,%esi
 80514cf:	0f b7 3a             	movzwl (%edx),%edi
 80514d2:	0f b7 c1             	movzwl %cx,%eax
 80514d5:	0f af 45 e4          	imul   -0x1c(%ebp),%eax
 80514d9:	c1 e9 10             	shr    $0x10,%ecx
 80514dc:	0f af 4d e4          	imul   -0x1c(%ebp),%ecx
 80514e0:	01 f8                	add    %edi,%eax
 80514e2:	01 d8                	add    %ebx,%eax
 80514e4:	8b 1a                	mov    (%edx),%ebx
 80514e6:	8d 7a 04             	lea    0x4(%edx),%edi
 80514e9:	c1 eb 10             	shr    $0x10,%ebx
 80514ec:	01 d9                	add    %ebx,%ecx
 80514ee:	89 c3                	mov    %eax,%ebx
 80514f0:	c1 eb 10             	shr    $0x10,%ebx
 80514f3:	0f b7 c0             	movzwl %ax,%eax
 80514f6:	01 d9                	add    %ebx,%ecx
 80514f8:	89 cb                	mov    %ecx,%ebx
 80514fa:	c1 e1 10             	shl    $0x10,%ecx
 80514fd:	09 c1                	or     %eax,%ecx
 80514ff:	c1 eb 10             	shr    $0x10,%ebx
 8051502:	39 75 dc             	cmp    %esi,-0x24(%ebp)
 8051505:	89 0a                	mov    %ecx,(%edx)
 8051507:	77 bf                	ja     80514c8 <__multiply+0xb8>
 8051509:	8b 45 d8             	mov    -0x28(%ebp),%eax
 805150c:	89 5a 04             	mov    %ebx,0x4(%edx)
 805150f:	8b 00                	mov    (%eax),%eax
 8051511:	c1 e8 10             	shr    $0x10,%eax
 8051514:	85 c0                	test   %eax,%eax
 8051516:	89 45 e4             	mov    %eax,-0x1c(%ebp)
 8051519:	74 61                	je     805157c <__multiply+0x16c>
 805151b:	8b 45 d4             	mov    -0x2c(%ebp),%eax
 805151e:	31 ff                	xor    %edi,%edi
 8051520:	89 fe                	mov    %edi,%esi
 8051522:	8b 10                	mov    (%eax),%edx
 8051524:	89 45 e0             	mov    %eax,-0x20(%ebp)
 8051527:	8b 45 d0             	mov    -0x30(%ebp),%eax
 805152a:	89 d3                	mov    %edx,%ebx
 805152c:	eb 05                	jmp    8051533 <__multiply+0x123>
 805152e:	66 90                	xchg   %ax,%ax
 8051530:	89 4d e0             	mov    %ecx,-0x20(%ebp)
 8051533:	0f b7 08             	movzwl (%eax),%ecx
 8051536:	c1 eb 10             	shr    $0x10,%ebx
 8051539:	0f b7 d2             	movzwl %dx,%edx
 805153c:	0f af 4d e4          	imul   -0x1c(%ebp),%ecx
 8051540:	83 c0 04             	add    $0x4,%eax
 8051543:	8d 3c 19             	lea    (%ecx,%ebx,1),%edi
 8051546:	01 f7                	add    %esi,%edi
 8051548:	8b 75 e0             	mov    -0x20(%ebp),%esi
 805154b:	89 fb                	mov    %edi,%ebx
 805154d:	c1 e3 10             	shl    $0x10,%ebx
 8051550:	09 d3                	or     %edx,%ebx
 8051552:	89 1e                	mov    %ebx,(%esi)
 8051554:	8b 5e 04             	mov    0x4(%esi),%ebx
 8051557:	8d 4e 04             	lea    0x4(%esi),%ecx
 805155a:	0f b7 50 fe          	movzwl -0x2(%eax),%edx
 805155e:	c1 ef 10             	shr    $0x10,%edi
 8051561:	0f af 55 e4          	imul   -0x1c(%ebp),%edx
 8051565:	0f b7 f3             	movzwl %bx,%esi
 8051568:	01 f2                	add    %esi,%edx
 805156a:	01 fa                	add    %edi,%edx
 805156c:	89 d6                	mov    %edx,%esi
 805156e:	c1 ee 10             	shr    $0x10,%esi
 8051571:	39 45 dc             	cmp    %eax,-0x24(%ebp)
 8051574:	77 ba                	ja     8051530 <__multiply+0x120>
 8051576:	8b 45 e0             	mov    -0x20(%ebp),%eax
 8051579:	89 50 04             	mov    %edx,0x4(%eax)
 805157c:	83 45 d8 04          	addl   $0x4,-0x28(%ebp)
 8051580:	8b 45 d8             	mov    -0x28(%ebp),%eax
 8051583:	83 45 d4 04          	addl   $0x4,-0x2c(%ebp)
 8051587:	39 45 cc             	cmp    %eax,-0x34(%ebp)
 805158a:	0f 87 18 ff ff ff    	ja     80514a8 <__multiply+0x98>
 8051590:	8b 75 c8             	mov    -0x38(%ebp),%esi
 8051593:	85 f6                	test   %esi,%esi
 8051595:	7e 29                	jle    80515c0 <__multiply+0x1b0>
 8051597:	8b 7d c4             	mov    -0x3c(%ebp),%edi
 805159a:	8b 5f fc             	mov    -0x4(%edi),%ebx
 805159d:	85 db                	test   %ebx,%ebx
 805159f:	75 1f                	jne    80515c0 <__multiply+0x1b0>
 80515a1:	8b 55 c8             	mov    -0x38(%ebp),%edx
 80515a4:	89 d0                	mov    %edx,%eax
 80515a6:	c1 e0 02             	shl    $0x2,%eax
 80515a9:	29 c7                	sub    %eax,%edi
 80515ab:	89 f8                	mov    %edi,%eax
 80515ad:	eb 09                	jmp    80515b8 <__multiply+0x1a8>
 80515af:	90                   	nop
 80515b0:	8b 4c 90 fc          	mov    -0x4(%eax,%edx,4),%ecx
 80515b4:	85 c9                	test   %ecx,%ecx
 80515b6:	75 05                	jne    80515bd <__multiply+0x1ad>
 80515b8:	83 ea 01             	sub    $0x1,%edx
 80515bb:	75 f3                	jne    80515b0 <__multiply+0x1a0>
 80515bd:	89 55 c8             	mov    %edx,-0x38(%ebp)
 80515c0:	8b 45 c0             	mov    -0x40(%ebp),%eax
 80515c3:	8b 7d c8             	mov    -0x38(%ebp),%edi
 80515c6:	89 78 10             	mov    %edi,0x10(%eax)
 80515c9:	83 c4 3c             	add    $0x3c,%esp
 80515cc:	5b                   	pop    %ebx
 80515cd:	5e                   	pop    %esi
 80515ce:	5f                   	pop    %edi
 80515cf:	5d                   	pop    %ebp
 80515d0:	c3                   	ret    
 80515d1:	eb 0d                	jmp    80515e0 <__pow5mult>
 80515d3:	90                   	nop
 80515d4:	90                   	nop
 80515d5:	90                   	nop
 80515d6:	90                   	nop
 80515d7:	90                   	nop
 80515d8:	90                   	nop
 80515d9:	90                   	nop
 80515da:	90                   	nop
 80515db:	90                   	nop
 80515dc:	90                   	nop
 80515dd:	90                   	nop
 80515de:	90                   	nop
 80515df:	90                   	nop

080515e0 <__pow5mult>:
 80515e0:	55                   	push   %ebp
 80515e1:	89 e5                	mov    %esp,%ebp
 80515e3:	57                   	push   %edi
 80515e4:	56                   	push   %esi
 80515e5:	53                   	push   %ebx
 80515e6:	83 ec 2c             	sub    $0x2c,%esp
 80515e9:	8b 5d 10             	mov    0x10(%ebp),%ebx
 80515ec:	8b 4d 08             	mov    0x8(%ebp),%ecx
 80515ef:	8b 7d 0c             	mov    0xc(%ebp),%edi
 80515f2:	89 d8                	mov    %ebx,%eax
 80515f4:	83 e0 03             	and    $0x3,%eax
 80515f7:	0f 85 a3 00 00 00    	jne    80516a0 <__pow5mult+0xc0>
 80515fd:	c1 fb 02             	sar    $0x2,%ebx
 8051600:	85 db                	test   %ebx,%ebx
 8051602:	74 5c                	je     8051660 <__pow5mult+0x80>
 8051604:	8b 71 48             	mov    0x48(%ecx),%esi
 8051607:	85 f6                	test   %esi,%esi
 8051609:	0f 84 bd 00 00 00    	je     80516cc <__pow5mult+0xec>
 805160f:	f6 c3 01             	test   $0x1,%bl
 8051612:	75 15                	jne    8051629 <__pow5mult+0x49>
 8051614:	8d 74 26 00          	lea    0x0(%esi,%eiz,1),%esi
 8051618:	d1 fb                	sar    %ebx
 805161a:	74 44                	je     8051660 <__pow5mult+0x80>
 805161c:	8b 06                	mov    (%esi),%eax
 805161e:	85 c0                	test   %eax,%eax
 8051620:	74 4e                	je     8051670 <__pow5mult+0x90>
 8051622:	89 c6                	mov    %eax,%esi
 8051624:	f6 c3 01             	test   $0x1,%bl
 8051627:	74 ef                	je     8051618 <__pow5mult+0x38>
 8051629:	89 0c 24             	mov    %ecx,(%esp)
 805162c:	89 74 24 08          	mov    %esi,0x8(%esp)
 8051630:	89 7c 24 04          	mov    %edi,0x4(%esp)
 8051634:	89 4d e4             	mov    %ecx,-0x1c(%ebp)
 8051637:	e8 d4 fd ff ff       	call   8051410 <__multiply>
 805163c:	85 ff                	test   %edi,%edi
 805163e:	8b 4d e4             	mov    -0x1c(%ebp),%ecx
 8051641:	89 45 e0             	mov    %eax,-0x20(%ebp)
 8051644:	74 52                	je     8051698 <__pow5mult+0xb8>
 8051646:	8b 57 04             	mov    0x4(%edi),%edx
 8051649:	d1 fb                	sar    %ebx
 805164b:	8b 41 4c             	mov    0x4c(%ecx),%eax
 805164e:	8d 04 90             	lea    (%eax,%edx,4),%eax
 8051651:	8b 10                	mov    (%eax),%edx
 8051653:	89 17                	mov    %edx,(%edi)
 8051655:	89 38                	mov    %edi,(%eax)
 8051657:	8b 7d e0             	mov    -0x20(%ebp),%edi
 805165a:	75 c0                	jne    805161c <__pow5mult+0x3c>
 805165c:	8d 74 26 00          	lea    0x0(%esi,%eiz,1),%esi
 8051660:	83 c4 2c             	add    $0x2c,%esp
 8051663:	89 f8                	mov    %edi,%eax
 8051665:	5b                   	pop    %ebx
 8051666:	5e                   	pop    %esi
 8051667:	5f                   	pop    %edi
 8051668:	5d                   	pop    %ebp
 8051669:	c3                   	ret    
 805166a:	8d b6 00 00 00 00    	lea    0x0(%esi),%esi
 8051670:	89 74 24 08          	mov    %esi,0x8(%esp)
 8051674:	89 74 24 04          	mov    %esi,0x4(%esp)
 8051678:	89 0c 24             	mov    %ecx,(%esp)
 805167b:	89 4d e4             	mov    %ecx,-0x1c(%ebp)
 805167e:	e8 8d fd ff ff       	call   8051410 <__multiply>
 8051683:	8b 4d e4             	mov    -0x1c(%ebp),%ecx
 8051686:	89 06                	mov    %eax,(%esi)
 8051688:	89 c6                	mov    %eax,%esi
 805168a:	c7 00 00 00 00 00    	movl   $0x0,(%eax)
 8051690:	eb 92                	jmp    8051624 <__pow5mult+0x44>
 8051692:	8d b6 00 00 00 00    	lea    0x0(%esi),%esi
 8051698:	8b 7d e0             	mov    -0x20(%ebp),%edi
 805169b:	e9 78 ff ff ff       	jmp    8051618 <__pow5mult+0x38>
 80516a0:	8b 04 85 3c 68 05 08 	mov    0x805683c(,%eax,4),%eax
 80516a7:	89 7c 24 04          	mov    %edi,0x4(%esp)
 80516ab:	89 0c 24             	mov    %ecx,(%esp)
 80516ae:	c7 44 24 0c 00 00 00 	movl   $0x0,0xc(%esp)
 80516b5:	00 
 80516b6:	89 44 24 08          	mov    %eax,0x8(%esp)
 80516ba:	89 4d e4             	mov    %ecx,-0x1c(%ebp)
 80516bd:	e8 5e fa ff ff       	call   8051120 <__multadd>
 80516c2:	8b 4d e4             	mov    -0x1c(%ebp),%ecx
 80516c5:	89 c7                	mov    %eax,%edi
 80516c7:	e9 31 ff ff ff       	jmp    80515fd <__pow5mult+0x1d>
 80516cc:	89 0c 24             	mov    %ecx,(%esp)
 80516cf:	c7 44 24 04 01 00 00 	movl   $0x1,0x4(%esp)
 80516d6:	00 
 80516d7:	89 4d e4             	mov    %ecx,-0x1c(%ebp)
 80516da:	e8 81 f9 ff ff       	call   8051060 <_Balloc>
 80516df:	8b 4d e4             	mov    -0x1c(%ebp),%ecx
 80516e2:	c7 40 14 71 02 00 00 	movl   $0x271,0x14(%eax)
 80516e9:	89 c6                	mov    %eax,%esi
 80516eb:	c7 40 10 01 00 00 00 	movl   $0x1,0x10(%eax)
 80516f2:	89 41 48             	mov    %eax,0x48(%ecx)
 80516f5:	c7 00 00 00 00 00    	movl   $0x0,(%eax)
 80516fb:	e9 0f ff ff ff       	jmp    805160f <__pow5mult+0x2f>

08051700 <__lshift>:
 8051700:	55                   	push   %ebp
 8051701:	89 e5                	mov    %esp,%ebp
 8051703:	57                   	push   %edi
 8051704:	56                   	push   %esi
 8051705:	53                   	push   %ebx
 8051706:	83 ec 2c             	sub    $0x2c,%esp
 8051709:	8b 45 0c             	mov    0xc(%ebp),%eax
 805170c:	8b 75 10             	mov    0x10(%ebp),%esi
 805170f:	89 c7                	mov    %eax,%edi
 8051711:	8b 50 04             	mov    0x4(%eax),%edx
 8051714:	8b 40 10             	mov    0x10(%eax),%eax
 8051717:	89 f3                	mov    %esi,%ebx
 8051719:	c1 fb 05             	sar    $0x5,%ebx
 805171c:	01 d8                	add    %ebx,%eax
 805171e:	89 45 d0             	mov    %eax,-0x30(%ebp)
 8051721:	83 c0 01             	add    $0x1,%eax
 8051724:	89 c1                	mov    %eax,%ecx
 8051726:	89 45 d8             	mov    %eax,-0x28(%ebp)
 8051729:	8b 47 08             	mov    0x8(%edi),%eax
 805172c:	39 c1                	cmp    %eax,%ecx
 805172e:	7e 09                	jle    8051739 <__lshift+0x39>
 8051730:	01 c0                	add    %eax,%eax
 8051732:	83 c2 01             	add    $0x1,%edx
 8051735:	39 c1                	cmp    %eax,%ecx
 8051737:	7f f7                	jg     8051730 <__lshift+0x30>
 8051739:	8b 45 08             	mov    0x8(%ebp),%eax
 805173c:	89 54 24 04          	mov    %edx,0x4(%esp)
 8051740:	89 04 24             	mov    %eax,(%esp)
 8051743:	e8 18 f9 ff ff       	call   8051060 <_Balloc>
 8051748:	85 db                	test   %ebx,%ebx
 805174a:	89 45 d4             	mov    %eax,-0x2c(%ebp)
 805174d:	8d 50 14             	lea    0x14(%eax),%edx
 8051750:	7e 17                	jle    8051769 <__lshift+0x69>
 8051752:	31 c0                	xor    %eax,%eax
 8051754:	8d 74 26 00          	lea    0x0(%esi,%eiz,1),%esi
 8051758:	c7 04 82 00 00 00 00 	movl   $0x0,(%edx,%eax,4)
 805175f:	83 c0 01             	add    $0x1,%eax
 8051762:	39 d8                	cmp    %ebx,%eax
 8051764:	75 f2                	jne    8051758 <__lshift+0x58>
 8051766:	8d 14 82             	lea    (%edx,%eax,4),%edx
 8051769:	8b 7d 0c             	mov    0xc(%ebp),%edi
 805176c:	8b 45 0c             	mov    0xc(%ebp),%eax
 805176f:	8b 4f 10             	mov    0x10(%edi),%ecx
 8051772:	83 c0 14             	add    $0x14,%eax
 8051775:	83 e6 1f             	and    $0x1f,%esi
 8051778:	89 75 e0             	mov    %esi,-0x20(%ebp)
 805177b:	8d 3c 88             	lea    (%eax,%ecx,4),%edi
 805177e:	89 7d e4             	mov    %edi,-0x1c(%ebp)
 8051781:	74 7d                	je     8051800 <__lshift+0x100>
 8051783:	c7 45 dc 20 00 00 00 	movl   $0x20,-0x24(%ebp)
 805178a:	29 75 dc             	sub    %esi,-0x24(%ebp)
 805178d:	31 f6                	xor    %esi,%esi
 805178f:	eb 09                	jmp    805179a <__lshift+0x9a>
 8051791:	8d b4 26 00 00 00 00 	lea    0x0(%esi,%eiz,1),%esi
 8051798:	89 fa                	mov    %edi,%edx
 805179a:	8b 18                	mov    (%eax),%ebx
 805179c:	83 c0 04             	add    $0x4,%eax
 805179f:	0f b6 4d e0          	movzbl -0x20(%ebp),%ecx
 80517a3:	8d 7a 04             	lea    0x4(%edx),%edi
 80517a6:	d3 e3                	shl    %cl,%ebx
 80517a8:	0f b6 4d dc          	movzbl -0x24(%ebp),%ecx
 80517ac:	09 f3                	or     %esi,%ebx
 80517ae:	89 1a                	mov    %ebx,(%edx)
 80517b0:	8b 70 fc             	mov    -0x4(%eax),%esi
 80517b3:	d3 ee                	shr    %cl,%esi
 80517b5:	39 45 e4             	cmp    %eax,-0x1c(%ebp)
 80517b8:	77 de                	ja     8051798 <__lshift+0x98>
 80517ba:	8b 45 d0             	mov    -0x30(%ebp),%eax
 80517bd:	89 72 04             	mov    %esi,0x4(%edx)
 80517c0:	83 c0 02             	add    $0x2,%eax
 80517c3:	85 f6                	test   %esi,%esi
 80517c5:	0f 44 45 d8          	cmove  -0x28(%ebp),%eax
 80517c9:	89 45 d8             	mov    %eax,-0x28(%ebp)
 80517cc:	8b 45 d8             	mov    -0x28(%ebp),%eax
 80517cf:	8b 7d d4             	mov    -0x2c(%ebp),%edi
 80517d2:	8b 75 0c             	mov    0xc(%ebp),%esi
 80517d5:	83 e8 01             	sub    $0x1,%eax
 80517d8:	89 47 10             	mov    %eax,0x10(%edi)
 80517db:	8b 45 0c             	mov    0xc(%ebp),%eax
 80517de:	8b 50 04             	mov    0x4(%eax),%edx
 80517e1:	8b 45 08             	mov    0x8(%ebp),%eax
 80517e4:	8b 40 4c             	mov    0x4c(%eax),%eax
 80517e7:	8d 04 90             	lea    (%eax,%edx,4),%eax
 80517ea:	8b 10                	mov    (%eax),%edx
 80517ec:	89 16                	mov    %edx,(%esi)
 80517ee:	89 30                	mov    %esi,(%eax)
 80517f0:	83 c4 2c             	add    $0x2c,%esp
 80517f3:	89 f8                	mov    %edi,%eax
 80517f5:	5b                   	pop    %ebx
 80517f6:	5e                   	pop    %esi
 80517f7:	5f                   	pop    %edi
 80517f8:	5d                   	pop    %ebp
 80517f9:	c3                   	ret    
 80517fa:	8d b6 00 00 00 00    	lea    0x0(%esi),%esi
 8051800:	8b 5d e4             	mov    -0x1c(%ebp),%ebx
 8051803:	90                   	nop
 8051804:	8d 74 26 00          	lea    0x0(%esi,%eiz,1),%esi
 8051808:	83 c0 04             	add    $0x4,%eax
 805180b:	8b 48 fc             	mov    -0x4(%eax),%ecx
 805180e:	83 c2 04             	add    $0x4,%edx
 8051811:	39 c3                	cmp    %eax,%ebx
 8051813:	89 4a fc             	mov    %ecx,-0x4(%edx)
 8051816:	77 f0                	ja     8051808 <__lshift+0x108>
 8051818:	eb b2                	jmp    80517cc <__lshift+0xcc>
 805181a:	8d b6 00 00 00 00    	lea    0x0(%esi),%esi

08051820 <__mcmp>:
 8051820:	55                   	push   %ebp
 8051821:	89 e5                	mov    %esp,%ebp
 8051823:	8b 4d 08             	mov    0x8(%ebp),%ecx
 8051826:	8b 55 0c             	mov    0xc(%ebp),%edx
 8051829:	53                   	push   %ebx
 805182a:	8b 41 10             	mov    0x10(%ecx),%eax
 805182d:	8b 5a 10             	mov    0x10(%edx),%ebx
 8051830:	29 d8                	sub    %ebx,%eax
 8051832:	85 c0                	test   %eax,%eax
 8051834:	75 27                	jne    805185d <__mcmp+0x3d>
 8051836:	c1 e3 02             	shl    $0x2,%ebx
 8051839:	83 c1 14             	add    $0x14,%ecx
 805183c:	8d 04 19             	lea    (%ecx,%ebx,1),%eax
 805183f:	8d 54 1a 14          	lea    0x14(%edx,%ebx,1),%edx
 8051843:	eb 07                	jmp    805184c <__mcmp+0x2c>
 8051845:	8d 76 00             	lea    0x0(%esi),%esi
 8051848:	39 c1                	cmp    %eax,%ecx
 805184a:	73 14                	jae    8051860 <__mcmp+0x40>
 805184c:	83 ea 04             	sub    $0x4,%edx
 805184f:	83 e8 04             	sub    $0x4,%eax
 8051852:	8b 1a                	mov    (%edx),%ebx
 8051854:	39 18                	cmp    %ebx,(%eax)
 8051856:	74 f0                	je     8051848 <__mcmp+0x28>
 8051858:	19 c0                	sbb    %eax,%eax
 805185a:	83 c8 01             	or     $0x1,%eax
 805185d:	5b                   	pop    %ebx
 805185e:	5d                   	pop    %ebp
 805185f:	c3                   	ret    
 8051860:	31 c0                	xor    %eax,%eax
 8051862:	5b                   	pop    %ebx
 8051863:	5d                   	pop    %ebp
 8051864:	c3                   	ret    
 8051865:	8d 74 26 00          	lea    0x0(%esi,%eiz,1),%esi
 8051869:	8d bc 27 00 00 00 00 	lea    0x0(%edi,%eiz,1),%edi

08051870 <__mdiff>:
 8051870:	55                   	push   %ebp
 8051871:	89 e5                	mov    %esp,%ebp
 8051873:	57                   	push   %edi
 8051874:	56                   	push   %esi
 8051875:	53                   	push   %ebx
 8051876:	83 ec 2c             	sub    $0x2c,%esp
 8051879:	8b 75 0c             	mov    0xc(%ebp),%esi
 805187c:	8b 5d 10             	mov    0x10(%ebp),%ebx
 805187f:	89 34 24             	mov    %esi,(%esp)
 8051882:	89 5c 24 04          	mov    %ebx,0x4(%esp)
 8051886:	e8 95 ff ff ff       	call   8051820 <__mcmp>
 805188b:	85 c0                	test   %eax,%eax
 805188d:	0f 84 25 01 00 00    	je     80519b8 <__mdiff+0x148>
 8051893:	0f 88 0f 01 00 00    	js     80519a8 <__mdiff+0x138>
 8051899:	31 ff                	xor    %edi,%edi
 805189b:	8b 46 04             	mov    0x4(%esi),%eax
 805189e:	83 c6 14             	add    $0x14,%esi
 80518a1:	89 44 24 04          	mov    %eax,0x4(%esp)
 80518a5:	8b 45 08             	mov    0x8(%ebp),%eax
 80518a8:	89 04 24             	mov    %eax,(%esp)
 80518ab:	e8 b0 f7 ff ff       	call   8051060 <_Balloc>
 80518b0:	8d 4b 14             	lea    0x14(%ebx),%ecx
 80518b3:	89 c2                	mov    %eax,%edx
 80518b5:	89 45 d4             	mov    %eax,-0x2c(%ebp)
 80518b8:	89 78 0c             	mov    %edi,0xc(%eax)
 80518bb:	8b 46 fc             	mov    -0x4(%esi),%eax
 80518be:	89 75 e4             	mov    %esi,-0x1c(%ebp)
 80518c1:	89 45 dc             	mov    %eax,-0x24(%ebp)
 80518c4:	8d 04 86             	lea    (%esi,%eax,4),%eax
 80518c7:	89 45 d8             	mov    %eax,-0x28(%ebp)
 80518ca:	8b 43 10             	mov    0x10(%ebx),%eax
 80518cd:	31 db                	xor    %ebx,%ebx
 80518cf:	8d 04 81             	lea    (%ecx,%eax,4),%eax
 80518d2:	89 45 e0             	mov    %eax,-0x20(%ebp)
 80518d5:	89 d0                	mov    %edx,%eax
 80518d7:	83 c0 14             	add    $0x14,%eax
 80518da:	8d b6 00 00 00 00    	lea    0x0(%esi),%esi
 80518e0:	8b 75 e4             	mov    -0x1c(%ebp),%esi
 80518e3:	83 c0 04             	add    $0x4,%eax
 80518e6:	83 c1 04             	add    $0x4,%ecx
 80518e9:	83 45 e4 04          	addl   $0x4,-0x1c(%ebp)
 80518ed:	8b 3e                	mov    (%esi),%edi
 80518ef:	8b 71 fc             	mov    -0x4(%ecx),%esi
 80518f2:	0f b7 d7             	movzwl %di,%edx
 80518f5:	01 da                	add    %ebx,%edx
 80518f7:	0f b7 de             	movzwl %si,%ebx
 80518fa:	29 da                	sub    %ebx,%edx
 80518fc:	c1 ef 10             	shr    $0x10,%edi
 80518ff:	89 d3                	mov    %edx,%ebx
 8051901:	c1 ee 10             	shr    $0x10,%esi
 8051904:	0f b7 d2             	movzwl %dx,%edx
 8051907:	c1 fb 10             	sar    $0x10,%ebx
 805190a:	29 f7                	sub    %esi,%edi
 805190c:	01 df                	add    %ebx,%edi
 805190e:	89 fb                	mov    %edi,%ebx
 8051910:	c1 e7 10             	shl    $0x10,%edi
 8051913:	09 d7                	or     %edx,%edi
 8051915:	c1 fb 10             	sar    $0x10,%ebx
 8051918:	39 4d e0             	cmp    %ecx,-0x20(%ebp)
 805191b:	89 78 fc             	mov    %edi,-0x4(%eax)
 805191e:	77 c0                	ja     80518e0 <__mdiff+0x70>
 8051920:	8b 75 e4             	mov    -0x1c(%ebp),%esi
 8051923:	8b 4d d8             	mov    -0x28(%ebp),%ecx
 8051926:	89 45 e4             	mov    %eax,-0x1c(%ebp)
 8051929:	89 75 e0             	mov    %esi,-0x20(%ebp)
 805192c:	39 f1                	cmp    %esi,%ecx
 805192e:	76 3f                	jbe    805196f <__mdiff+0xff>
 8051930:	8b 3e                	mov    (%esi),%edi
 8051932:	83 c6 04             	add    $0x4,%esi
 8051935:	83 c0 04             	add    $0x4,%eax
 8051938:	0f b7 d7             	movzwl %di,%edx
 805193b:	01 da                	add    %ebx,%edx
 805193d:	89 d3                	mov    %edx,%ebx
 805193f:	0f b7 d2             	movzwl %dx,%edx
 8051942:	c1 fb 10             	sar    $0x10,%ebx
 8051945:	c1 ef 10             	shr    $0x10,%edi
 8051948:	01 df                	add    %ebx,%edi
 805194a:	89 fb                	mov    %edi,%ebx
 805194c:	c1 e7 10             	shl    $0x10,%edi
 805194f:	09 d7                	or     %edx,%edi
 8051951:	c1 fb 10             	sar    $0x10,%ebx
 8051954:	39 f1                	cmp    %esi,%ecx
 8051956:	89 78 fc             	mov    %edi,-0x4(%eax)
 8051959:	77 d5                	ja     8051930 <__mdiff+0xc0>
 805195b:	8b 45 e0             	mov    -0x20(%ebp),%eax
 805195e:	8b 4d d8             	mov    -0x28(%ebp),%ecx
 8051961:	f7 d0                	not    %eax
 8051963:	01 c8                	add    %ecx,%eax
 8051965:	8b 4d e4             	mov    -0x1c(%ebp),%ecx
 8051968:	c1 e8 02             	shr    $0x2,%eax
 805196b:	8d 44 81 04          	lea    0x4(%ecx,%eax,4),%eax
 805196f:	85 ff                	test   %edi,%edi
 8051971:	75 23                	jne    8051996 <__mdiff+0x126>
 8051973:	8b 4d dc             	mov    -0x24(%ebp),%ecx
 8051976:	8d 14 8d 00 00 00 00 	lea    0x0(,%ecx,4),%edx
 805197d:	29 d0                	sub    %edx,%eax
 805197f:	89 ca                	mov    %ecx,%edx
 8051981:	8d b4 26 00 00 00 00 	lea    0x0(%esi,%eiz,1),%esi
 8051988:	83 ea 01             	sub    $0x1,%edx
 805198b:	8b 4c 90 fc          	mov    -0x4(%eax,%edx,4),%ecx
 805198f:	85 c9                	test   %ecx,%ecx
 8051991:	74 f5                	je     8051988 <__mdiff+0x118>
 8051993:	89 55 dc             	mov    %edx,-0x24(%ebp)
 8051996:	8b 45 d4             	mov    -0x2c(%ebp),%eax
 8051999:	8b 4d dc             	mov    -0x24(%ebp),%ecx
 805199c:	89 48 10             	mov    %ecx,0x10(%eax)
 805199f:	83 c4 2c             	add    $0x2c,%esp
 80519a2:	5b                   	pop    %ebx
 80519a3:	5e                   	pop    %esi
 80519a4:	5f                   	pop    %edi
 80519a5:	5d                   	pop    %ebp
 80519a6:	c3                   	ret    
 80519a7:	90                   	nop
 80519a8:	89 f0                	mov    %esi,%eax
 80519aa:	bf 01 00 00 00       	mov    $0x1,%edi
 80519af:	89 de                	mov    %ebx,%esi
 80519b1:	89 c3                	mov    %eax,%ebx
 80519b3:	e9 e3 fe ff ff       	jmp    805189b <__mdiff+0x2b>
 80519b8:	8b 45 08             	mov    0x8(%ebp),%eax
 80519bb:	c7 44 24 04 00 00 00 	movl   $0x0,0x4(%esp)
 80519c2:	00 
 80519c3:	89 04 24             	mov    %eax,(%esp)
 80519c6:	e8 95 f6 ff ff       	call   8051060 <_Balloc>
 80519cb:	c7 40 10 01 00 00 00 	movl   $0x1,0x10(%eax)
 80519d2:	c7 40 14 00 00 00 00 	movl   $0x0,0x14(%eax)
 80519d9:	83 c4 2c             	add    $0x2c,%esp
 80519dc:	5b                   	pop    %ebx
 80519dd:	5e                   	pop    %esi
 80519de:	5f                   	pop    %edi
 80519df:	5d                   	pop    %ebp
 80519e0:	c3                   	ret    
 80519e1:	eb 0d                	jmp    80519f0 <__ulp>
 80519e3:	90                   	nop
 80519e4:	90                   	nop
 80519e5:	90                   	nop
 80519e6:	90                   	nop
 80519e7:	90                   	nop
 80519e8:	90                   	nop
 80519e9:	90                   	nop
 80519ea:	90                   	nop
 80519eb:	90                   	nop
 80519ec:	90                   	nop
 80519ed:	90                   	nop
 80519ee:	90                   	nop
 80519ef:	90                   	nop

080519f0 <__ulp>:
 80519f0:	55                   	push   %ebp
 80519f1:	89 e5                	mov    %esp,%ebp
 80519f3:	83 ec 08             	sub    $0x8,%esp
 80519f6:	dd 45 08             	fldl   0x8(%ebp)
 80519f9:	dd 5d f8             	fstpl  -0x8(%ebp)
 80519fc:	8b 4d fc             	mov    -0x4(%ebp),%ecx
 80519ff:	81 e1 00 00 f0 7f    	and    $0x7ff00000,%ecx
 8051a05:	81 e9 00 00 40 03    	sub    $0x3400000,%ecx
 8051a0b:	85 c9                	test   %ecx,%ecx
 8051a0d:	7e 11                	jle    8051a20 <__ulp+0x30>
 8051a0f:	89 4d fc             	mov    %ecx,-0x4(%ebp)
 8051a12:	c7 45 f8 00 00 00 00 	movl   $0x0,-0x8(%ebp)
 8051a19:	dd 45 f8             	fldl   -0x8(%ebp)
 8051a1c:	c9                   	leave  
 8051a1d:	c3                   	ret    
 8051a1e:	66 90                	xchg   %ax,%ax
 8051a20:	f7 d9                	neg    %ecx
 8051a22:	c1 f9 14             	sar    $0x14,%ecx
 8051a25:	83 f9 13             	cmp    $0x13,%ecx
 8051a28:	7e 26                	jle    8051a50 <__ulp+0x60>
 8051a2a:	83 f9 32             	cmp    $0x32,%ecx
 8051a2d:	b8 01 00 00 00       	mov    $0x1,%eax
 8051a32:	c7 45 fc 00 00 00 00 	movl   $0x0,-0x4(%ebp)
 8051a39:	7f 0b                	jg     8051a46 <__ulp+0x56>
 8051a3b:	ba 33 00 00 00       	mov    $0x33,%edx
 8051a40:	29 ca                	sub    %ecx,%edx
 8051a42:	89 d1                	mov    %edx,%ecx
 8051a44:	d3 e0                	shl    %cl,%eax
 8051a46:	89 45 f8             	mov    %eax,-0x8(%ebp)
 8051a49:	dd 45 f8             	fldl   -0x8(%ebp)
 8051a4c:	c9                   	leave  
 8051a4d:	c3                   	ret    
 8051a4e:	66 90                	xchg   %ax,%ax
 8051a50:	b8 00 00 08 00       	mov    $0x80000,%eax
 8051a55:	d3 f8                	sar    %cl,%eax
 8051a57:	89 45 fc             	mov    %eax,-0x4(%ebp)
 8051a5a:	c7 45 f8 00 00 00 00 	movl   $0x0,-0x8(%ebp)
 8051a61:	dd 45 f8             	fldl   -0x8(%ebp)
 8051a64:	c9                   	leave  
 8051a65:	c3                   	ret    
 8051a66:	8d 76 00             	lea    0x0(%esi),%esi
 8051a69:	8d bc 27 00 00 00 00 	lea    0x0(%edi,%eiz,1),%edi

08051a70 <__b2d>:
 8051a70:	55                   	push   %ebp
 8051a71:	89 e5                	mov    %esp,%ebp
 8051a73:	57                   	push   %edi
 8051a74:	56                   	push   %esi
 8051a75:	53                   	push   %ebx
 8051a76:	83 ec 18             	sub    $0x18,%esp
 8051a79:	8b 45 08             	mov    0x8(%ebp),%eax
 8051a7c:	8d 78 14             	lea    0x14(%eax),%edi
 8051a7f:	8b 40 10             	mov    0x10(%eax),%eax
 8051a82:	8d 1c 87             	lea    (%edi,%eax,4),%ebx
 8051a85:	8b 73 fc             	mov    -0x4(%ebx),%esi
 8051a88:	8d 43 fc             	lea    -0x4(%ebx),%eax
 8051a8b:	89 45 e4             	mov    %eax,-0x1c(%ebp)
 8051a8e:	89 34 24             	mov    %esi,(%esp)
 8051a91:	e8 6a f8 ff ff       	call   8051300 <__hi0bits>
 8051a96:	8b 4d 0c             	mov    0xc(%ebp),%ecx
 8051a99:	ba 20 00 00 00       	mov    $0x20,%edx
 8051a9e:	29 c2                	sub    %eax,%edx
 8051aa0:	83 f8 0a             	cmp    $0xa,%eax
 8051aa3:	89 11                	mov    %edx,(%ecx)
 8051aa5:	7f 41                	jg     8051ae8 <__b2d+0x78>
 8051aa7:	b9 0b 00 00 00       	mov    $0xb,%ecx
 8051aac:	89 f2                	mov    %esi,%edx
 8051aae:	29 c1                	sub    %eax,%ecx
 8051ab0:	d3 ea                	shr    %cl,%edx
 8051ab2:	81 ca 00 00 f0 3f    	or     $0x3ff00000,%edx
 8051ab8:	89 55 ec             	mov    %edx,-0x14(%ebp)
 8051abb:	31 d2                	xor    %edx,%edx
 8051abd:	3b 7d e4             	cmp    -0x1c(%ebp),%edi
 8051ac0:	c7 45 e8 00 00 00 00 	movl   $0x0,-0x18(%ebp)
 8051ac7:	73 05                	jae    8051ace <__b2d+0x5e>
 8051ac9:	8b 53 f8             	mov    -0x8(%ebx),%edx
 8051acc:	d3 ea                	shr    %cl,%edx
 8051ace:	8d 48 15             	lea    0x15(%eax),%ecx
 8051ad1:	d3 e6                	shl    %cl,%esi
 8051ad3:	09 f2                	or     %esi,%edx
 8051ad5:	89 55 e8             	mov    %edx,-0x18(%ebp)
 8051ad8:	dd 45 e8             	fldl   -0x18(%ebp)
 8051adb:	83 c4 18             	add    $0x18,%esp
 8051ade:	5b                   	pop    %ebx
 8051adf:	5e                   	pop    %esi
 8051ae0:	5f                   	pop    %edi
 8051ae1:	5d                   	pop    %ebp
 8051ae2:	c3                   	ret    
 8051ae3:	90                   	nop
 8051ae4:	8d 74 26 00          	lea    0x0(%esi,%eiz,1),%esi
 8051ae8:	31 d2                	xor    %edx,%edx
 8051aea:	3b 7d e4             	cmp    -0x1c(%ebp),%edi
 8051aed:	73 09                	jae    8051af8 <__b2d+0x88>
 8051aef:	8b 53 f8             	mov    -0x8(%ebx),%edx
 8051af2:	8d 4b f8             	lea    -0x8(%ebx),%ecx
 8051af5:	89 4d e4             	mov    %ecx,-0x1c(%ebp)
 8051af8:	89 c3                	mov    %eax,%ebx
 8051afa:	83 eb 0b             	sub    $0xb,%ebx
 8051afd:	89 5d e0             	mov    %ebx,-0x20(%ebp)
 8051b00:	74 4e                	je     8051b50 <__b2d+0xe0>
 8051b02:	0f b6 4d e0          	movzbl -0x20(%ebp),%ecx
 8051b06:	bb 2b 00 00 00       	mov    $0x2b,%ebx
 8051b0b:	29 c3                	sub    %eax,%ebx
 8051b0d:	89 d0                	mov    %edx,%eax
 8051b0f:	c7 45 e8 00 00 00 00 	movl   $0x0,-0x18(%ebp)
 8051b16:	d3 e6                	shl    %cl,%esi
 8051b18:	89 d9                	mov    %ebx,%ecx
 8051b1a:	d3 e8                	shr    %cl,%eax
 8051b1c:	8b 4d e4             	mov    -0x1c(%ebp),%ecx
 8051b1f:	81 ce 00 00 f0 3f    	or     $0x3ff00000,%esi
 8051b25:	09 c6                	or     %eax,%esi
 8051b27:	31 c0                	xor    %eax,%eax
 8051b29:	89 75 ec             	mov    %esi,-0x14(%ebp)
 8051b2c:	39 f9                	cmp    %edi,%ecx
 8051b2e:	76 07                	jbe    8051b37 <__b2d+0xc7>
 8051b30:	8b 41 fc             	mov    -0x4(%ecx),%eax
 8051b33:	89 d9                	mov    %ebx,%ecx
 8051b35:	d3 e8                	shr    %cl,%eax
 8051b37:	0f b6 4d e0          	movzbl -0x20(%ebp),%ecx
 8051b3b:	d3 e2                	shl    %cl,%edx
 8051b3d:	09 d0                	or     %edx,%eax
 8051b3f:	89 45 e8             	mov    %eax,-0x18(%ebp)
 8051b42:	dd 45 e8             	fldl   -0x18(%ebp)
 8051b45:	83 c4 18             	add    $0x18,%esp
 8051b48:	5b                   	pop    %ebx
 8051b49:	5e                   	pop    %esi
 8051b4a:	5f                   	pop    %edi
 8051b4b:	5d                   	pop    %ebp
 8051b4c:	c3                   	ret    
 8051b4d:	8d 76 00             	lea    0x0(%esi),%esi
 8051b50:	81 ce 00 00 f0 3f    	or     $0x3ff00000,%esi
 8051b56:	89 75 ec             	mov    %esi,-0x14(%ebp)
 8051b59:	89 55 e8             	mov    %edx,-0x18(%ebp)
 8051b5c:	dd 45 e8             	fldl   -0x18(%ebp)
 8051b5f:	83 c4 18             	add    $0x18,%esp
 8051b62:	5b                   	pop    %ebx
 8051b63:	5e                   	pop    %esi
 8051b64:	5f                   	pop    %edi
 8051b65:	5d                   	pop    %ebp
 8051b66:	c3                   	ret    
 8051b67:	89 f6                	mov    %esi,%esi
 8051b69:	8d bc 27 00 00 00 00 	lea    0x0(%edi,%eiz,1),%edi

08051b70 <__d2b>:
 8051b70:	55                   	push   %ebp
 8051b71:	89 e5                	mov    %esp,%ebp
 8051b73:	57                   	push   %edi
 8051b74:	56                   	push   %esi
 8051b75:	53                   	push   %ebx
 8051b76:	83 ec 2c             	sub    $0x2c,%esp
 8051b79:	8b 45 08             	mov    0x8(%ebp),%eax
 8051b7c:	dd 45 0c             	fldl   0xc(%ebp)
 8051b7f:	c7 44 24 04 01 00 00 	movl   $0x1,0x4(%esp)
 8051b86:	00 
 8051b87:	dd 5d d0             	fstpl  -0x30(%ebp)
 8051b8a:	89 04 24             	mov    %eax,(%esp)
 8051b8d:	e8 ce f4 ff ff       	call   8051060 <_Balloc>
 8051b92:	8b 5d d4             	mov    -0x2c(%ebp),%ebx
 8051b95:	89 c6                	mov    %eax,%esi
 8051b97:	89 d8                	mov    %ebx,%eax
 8051b99:	81 e3 ff ff ff 7f    	and    $0x7fffffff,%ebx
 8051b9f:	25 ff ff 0f 00       	and    $0xfffff,%eax
 8051ba4:	c1 eb 14             	shr    $0x14,%ebx
 8051ba7:	85 db                	test   %ebx,%ebx
 8051ba9:	74 05                	je     8051bb0 <__d2b+0x40>
 8051bab:	0d 00 00 10 00       	or     $0x100000,%eax
 8051bb0:	89 45 e4             	mov    %eax,-0x1c(%ebp)
 8051bb3:	8b 45 d0             	mov    -0x30(%ebp),%eax
 8051bb6:	85 c0                	test   %eax,%eax
 8051bb8:	74 56                	je     8051c10 <__d2b+0xa0>
 8051bba:	89 45 e0             	mov    %eax,-0x20(%ebp)
 8051bbd:	8d 45 e0             	lea    -0x20(%ebp),%eax
 8051bc0:	89 04 24             	mov    %eax,(%esp)
 8051bc3:	e8 98 f7 ff ff       	call   8051360 <__lo0bits>
 8051bc8:	85 c0                	test   %eax,%eax
 8051bca:	0f 85 90 00 00 00    	jne    8051c60 <__d2b+0xf0>
 8051bd0:	8b 55 e0             	mov    -0x20(%ebp),%edx
 8051bd3:	89 56 14             	mov    %edx,0x14(%esi)
 8051bd6:	8b 55 e4             	mov    -0x1c(%ebp),%edx
 8051bd9:	83 fa 01             	cmp    $0x1,%edx
 8051bdc:	19 ff                	sbb    %edi,%edi
 8051bde:	83 c7 02             	add    $0x2,%edi
 8051be1:	85 db                	test   %ebx,%ebx
 8051be3:	89 56 18             	mov    %edx,0x18(%esi)
 8051be6:	89 7e 10             	mov    %edi,0x10(%esi)
 8051be9:	74 49                	je     8051c34 <__d2b+0xc4>
 8051beb:	8b 4d 14             	mov    0x14(%ebp),%ecx
 8051bee:	8d 94 18 cd fb ff ff 	lea    -0x433(%eax,%ebx,1),%edx
 8051bf5:	89 11                	mov    %edx,(%ecx)
 8051bf7:	ba 35 00 00 00       	mov    $0x35,%edx
 8051bfc:	29 c2                	sub    %eax,%edx
 8051bfe:	8b 45 18             	mov    0x18(%ebp),%eax
 8051c01:	89 10                	mov    %edx,(%eax)
 8051c03:	83 c4 2c             	add    $0x2c,%esp
 8051c06:	89 f0                	mov    %esi,%eax
 8051c08:	5b                   	pop    %ebx
 8051c09:	5e                   	pop    %esi
 8051c0a:	5f                   	pop    %edi
 8051c0b:	5d                   	pop    %ebp
 8051c0c:	c3                   	ret    
 8051c0d:	8d 76 00             	lea    0x0(%esi),%esi
 8051c10:	8d 45 e4             	lea    -0x1c(%ebp),%eax
 8051c13:	bf 01 00 00 00       	mov    $0x1,%edi
 8051c18:	89 04 24             	mov    %eax,(%esp)
 8051c1b:	e8 40 f7 ff ff       	call   8051360 <__lo0bits>
 8051c20:	8b 55 e4             	mov    -0x1c(%ebp),%edx
 8051c23:	c7 46 10 01 00 00 00 	movl   $0x1,0x10(%esi)
 8051c2a:	89 56 14             	mov    %edx,0x14(%esi)
 8051c2d:	83 c0 20             	add    $0x20,%eax
 8051c30:	85 db                	test   %ebx,%ebx
 8051c32:	75 b7                	jne    8051beb <__d2b+0x7b>
 8051c34:	8b 4d 14             	mov    0x14(%ebp),%ecx
 8051c37:	2d 32 04 00 00       	sub    $0x432,%eax
 8051c3c:	89 01                	mov    %eax,(%ecx)
 8051c3e:	8b 44 be 10          	mov    0x10(%esi,%edi,4),%eax
 8051c42:	c1 e7 05             	shl    $0x5,%edi
 8051c45:	89 04 24             	mov    %eax,(%esp)
 8051c48:	e8 b3 f6 ff ff       	call   8051300 <__hi0bits>
 8051c4d:	29 c7                	sub    %eax,%edi
 8051c4f:	8b 45 18             	mov    0x18(%ebp),%eax
 8051c52:	89 38                	mov    %edi,(%eax)
 8051c54:	83 c4 2c             	add    $0x2c,%esp
 8051c57:	89 f0                	mov    %esi,%eax
 8051c59:	5b                   	pop    %ebx
 8051c5a:	5e                   	pop    %esi
 8051c5b:	5f                   	pop    %edi
 8051c5c:	5d                   	pop    %ebp
 8051c5d:	c3                   	ret    
 8051c5e:	66 90                	xchg   %ax,%ax
 8051c60:	8b 55 e4             	mov    -0x1c(%ebp),%edx
 8051c63:	b9 20 00 00 00       	mov    $0x20,%ecx
 8051c68:	29 c1                	sub    %eax,%ecx
 8051c6a:	89 d7                	mov    %edx,%edi
 8051c6c:	d3 e7                	shl    %cl,%edi
 8051c6e:	8b 4d e0             	mov    -0x20(%ebp),%ecx
 8051c71:	09 f9                	or     %edi,%ecx
 8051c73:	89 4e 14             	mov    %ecx,0x14(%esi)
 8051c76:	89 c1                	mov    %eax,%ecx
 8051c78:	d3 ea                	shr    %cl,%edx
 8051c7a:	89 55 e4             	mov    %edx,-0x1c(%ebp)
 8051c7d:	e9 57 ff ff ff       	jmp    8051bd9 <__d2b+0x69>
 8051c82:	8d b4 26 00 00 00 00 	lea    0x0(%esi,%eiz,1),%esi
 8051c89:	8d bc 27 00 00 00 00 	lea    0x0(%edi,%eiz,1),%edi

08051c90 <__ratio>:
 8051c90:	55                   	push   %ebp
 8051c91:	89 e5                	mov    %esp,%ebp
 8051c93:	56                   	push   %esi
 8051c94:	53                   	push   %ebx
 8051c95:	83 ec 30             	sub    $0x30,%esp
 8051c98:	8b 75 08             	mov    0x8(%ebp),%esi
 8051c9b:	8d 45 f0             	lea    -0x10(%ebp),%eax
 8051c9e:	8b 5d 0c             	mov    0xc(%ebp),%ebx
 8051ca1:	89 44 24 04          	mov    %eax,0x4(%esp)
 8051ca5:	89 34 24             	mov    %esi,(%esp)
 8051ca8:	e8 c3 fd ff ff       	call   8051a70 <__b2d>
 8051cad:	8d 45 f4             	lea    -0xc(%ebp),%eax
 8051cb0:	89 44 24 04          	mov    %eax,0x4(%esp)
 8051cb4:	89 1c 24             	mov    %ebx,(%esp)
 8051cb7:	dd 55 e0             	fstl   -0x20(%ebp)
 8051cba:	dd 5d d8             	fstpl  -0x28(%ebp)
 8051cbd:	e8 ae fd ff ff       	call   8051a70 <__b2d>
 8051cc2:	8b 46 10             	mov    0x10(%esi),%eax
 8051cc5:	2b 43 10             	sub    0x10(%ebx),%eax
 8051cc8:	8b 55 f0             	mov    -0x10(%ebp),%edx
 8051ccb:	2b 55 f4             	sub    -0xc(%ebp),%edx
 8051cce:	c1 e0 05             	shl    $0x5,%eax
 8051cd1:	01 d0                	add    %edx,%eax
 8051cd3:	dd 55 d0             	fstl   -0x30(%ebp)
 8051cd6:	85 c0                	test   %eax,%eax
 8051cd8:	dd 45 d8             	fldl   -0x28(%ebp)
 8051cdb:	7e 1b                	jle    8051cf8 <__ratio+0x68>
 8051cdd:	dd d8                	fstp   %st(0)
 8051cdf:	c1 e0 14             	shl    $0x14,%eax
 8051ce2:	01 45 e4             	add    %eax,-0x1c(%ebp)
 8051ce5:	dd 45 e0             	fldl   -0x20(%ebp)
 8051ce8:	83 c4 30             	add    $0x30,%esp
 8051ceb:	5b                   	pop    %ebx
 8051cec:	de f1                	fdivp  %st,%st(1)
 8051cee:	5e                   	pop    %esi
 8051cef:	5d                   	pop    %ebp
 8051cf0:	c3                   	ret    
 8051cf1:	8d b4 26 00 00 00 00 	lea    0x0(%esi,%eiz,1),%esi
 8051cf8:	dd d9                	fstp   %st(1)
 8051cfa:	c1 e0 14             	shl    $0x14,%eax
 8051cfd:	29 45 d4             	sub    %eax,-0x2c(%ebp)
 8051d00:	dd 45 d0             	fldl   -0x30(%ebp)
 8051d03:	83 c4 30             	add    $0x30,%esp
 8051d06:	5b                   	pop    %ebx
 8051d07:	de f9                	fdivrp %st,%st(1)
 8051d09:	5e                   	pop    %esi
 8051d0a:	5d                   	pop    %ebp
 8051d0b:	c3                   	ret    
 8051d0c:	8d 74 26 00          	lea    0x0(%esi,%eiz,1),%esi

08051d10 <_mprec_log10>:
 8051d10:	55                   	push   %ebp
 8051d11:	89 e5                	mov    %esp,%ebp
 8051d13:	8b 45 08             	mov    0x8(%ebp),%eax
 8051d16:	83 f8 17             	cmp    $0x17,%eax
 8051d19:	7e 1d                	jle    8051d38 <_mprec_log10+0x28>
 8051d1b:	d9 e8                	fld1   
 8051d1d:	d9 05 f4 67 05 08    	flds   0x80567f4
 8051d23:	90                   	nop
 8051d24:	8d 74 26 00          	lea    0x0(%esi,%eiz,1),%esi
 8051d28:	83 e8 01             	sub    $0x1,%eax
 8051d2b:	dc c9                	fmul   %st,%st(1)
 8051d2d:	75 f9                	jne    8051d28 <_mprec_log10+0x18>
 8051d2f:	dd d8                	fstp   %st(0)
 8051d31:	5d                   	pop    %ebp
 8051d32:	c3                   	ret    
 8051d33:	90                   	nop
 8051d34:	8d 74 26 00          	lea    0x0(%esi,%eiz,1),%esi
 8051d38:	dd 04 c5 e0 68 05 08 	fldl   0x80568e0(,%eax,8)
 8051d3f:	5d                   	pop    %ebp
 8051d40:	c3                   	ret    
 8051d41:	eb 0d                	jmp    8051d50 <__copybits>
 8051d43:	90                   	nop
 8051d44:	90                   	nop
 8051d45:	90                   	nop
 8051d46:	90                   	nop
 8051d47:	90                   	nop
 8051d48:	90                   	nop
 8051d49:	90                   	nop
 8051d4a:	90                   	nop
 8051d4b:	90                   	nop
 8051d4c:	90                   	nop
 8051d4d:	90                   	nop
 8051d4e:	90                   	nop
 8051d4f:	90                   	nop

08051d50 <__copybits>:
 8051d50:	55                   	push   %ebp
 8051d51:	89 e5                	mov    %esp,%ebp
 8051d53:	57                   	push   %edi
 8051d54:	8b 7d 10             	mov    0x10(%ebp),%edi
 8051d57:	56                   	push   %esi
 8051d58:	8b 75 0c             	mov    0xc(%ebp),%esi
 8051d5b:	8b 45 08             	mov    0x8(%ebp),%eax
 8051d5e:	53                   	push   %ebx
 8051d5f:	8b 4f 10             	mov    0x10(%edi),%ecx
 8051d62:	8d 56 ff             	lea    -0x1(%esi),%edx
 8051d65:	c1 fa 05             	sar    $0x5,%edx
 8051d68:	8d 74 90 04          	lea    0x4(%eax,%edx,4),%esi
 8051d6c:	8d 57 14             	lea    0x14(%edi),%edx
 8051d6f:	8d 1c 8a             	lea    (%edx,%ecx,4),%ebx
 8051d72:	39 da                	cmp    %ebx,%edx
 8051d74:	73 34                	jae    8051daa <__copybits+0x5a>
 8051d76:	89 c1                	mov    %eax,%ecx
 8051d78:	83 c2 04             	add    $0x4,%edx
 8051d7b:	8b 42 fc             	mov    -0x4(%edx),%eax
 8051d7e:	83 c1 04             	add    $0x4,%ecx
 8051d81:	39 d3                	cmp    %edx,%ebx
 8051d83:	89 41 fc             	mov    %eax,-0x4(%ecx)
 8051d86:	77 f0                	ja     8051d78 <__copybits+0x28>
 8051d88:	8b 45 08             	mov    0x8(%ebp),%eax
 8051d8b:	29 fb                	sub    %edi,%ebx
 8051d8d:	8d 53 eb             	lea    -0x15(%ebx),%edx
 8051d90:	c1 ea 02             	shr    $0x2,%edx
 8051d93:	8d 44 90 04          	lea    0x4(%eax,%edx,4),%eax
 8051d97:	39 c6                	cmp    %eax,%esi
 8051d99:	76 13                	jbe    8051dae <__copybits+0x5e>
 8051d9b:	90                   	nop
 8051d9c:	8d 74 26 00          	lea    0x0(%esi,%eiz,1),%esi
 8051da0:	83 c0 04             	add    $0x4,%eax
 8051da3:	c7 40 fc 00 00 00 00 	movl   $0x0,-0x4(%eax)
 8051daa:	39 c6                	cmp    %eax,%esi
 8051dac:	77 f2                	ja     8051da0 <__copybits+0x50>
 8051dae:	5b                   	pop    %ebx
 8051daf:	5e                   	pop    %esi
 8051db0:	5f                   	pop    %edi
 8051db1:	5d                   	pop    %ebp
 8051db2:	c3                   	ret    
 8051db3:	8d b6 00 00 00 00    	lea    0x0(%esi),%esi
 8051db9:	8d bc 27 00 00 00 00 	lea    0x0(%edi,%eiz,1),%edi

08051dc0 <__any_on>:
 8051dc0:	55                   	push   %ebp
 8051dc1:	89 e5                	mov    %esp,%ebp
 8051dc3:	8b 45 08             	mov    0x8(%ebp),%eax
 8051dc6:	57                   	push   %edi
 8051dc7:	56                   	push   %esi
 8051dc8:	53                   	push   %ebx
 8051dc9:	8b 5d 0c             	mov    0xc(%ebp),%ebx
 8051dcc:	8d 50 14             	lea    0x14(%eax),%edx
 8051dcf:	8b 40 10             	mov    0x10(%eax),%eax
 8051dd2:	c1 fb 05             	sar    $0x5,%ebx
 8051dd5:	39 d8                	cmp    %ebx,%eax
 8051dd7:	7d 2f                	jge    8051e08 <__any_on+0x48>
 8051dd9:	8d 1c 82             	lea    (%edx,%eax,4),%ebx
 8051ddc:	39 da                	cmp    %ebx,%edx
 8051dde:	73 1d                	jae    8051dfd <__any_on+0x3d>
 8051de0:	8d 43 fc             	lea    -0x4(%ebx),%eax
 8051de3:	8b 5b fc             	mov    -0x4(%ebx),%ebx
 8051de6:	85 db                	test   %ebx,%ebx
 8051de8:	74 0f                	je     8051df9 <__any_on+0x39>
 8051dea:	eb 44                	jmp    8051e30 <__any_on+0x70>
 8051dec:	8d 74 26 00          	lea    0x0(%esi,%eiz,1),%esi
 8051df0:	83 e8 04             	sub    $0x4,%eax
 8051df3:	8b 08                	mov    (%eax),%ecx
 8051df5:	85 c9                	test   %ecx,%ecx
 8051df7:	75 37                	jne    8051e30 <__any_on+0x70>
 8051df9:	39 c2                	cmp    %eax,%edx
 8051dfb:	72 f3                	jb     8051df0 <__any_on+0x30>
 8051dfd:	31 c0                	xor    %eax,%eax
 8051dff:	5b                   	pop    %ebx
 8051e00:	5e                   	pop    %esi
 8051e01:	5f                   	pop    %edi
 8051e02:	5d                   	pop    %ebp
 8051e03:	c3                   	ret    
 8051e04:	8d 74 26 00          	lea    0x0(%esi,%eiz,1),%esi
 8051e08:	7e 1e                	jle    8051e28 <__any_on+0x68>
 8051e0a:	8b 4d 0c             	mov    0xc(%ebp),%ecx
 8051e0d:	8d 1c 9a             	lea    (%edx,%ebx,4),%ebx
 8051e10:	83 e1 1f             	and    $0x1f,%ecx
 8051e13:	74 c7                	je     8051ddc <__any_on+0x1c>
 8051e15:	8b 3b                	mov    (%ebx),%edi
 8051e17:	b8 01 00 00 00       	mov    $0x1,%eax
 8051e1c:	89 fe                	mov    %edi,%esi
 8051e1e:	d3 ee                	shr    %cl,%esi
 8051e20:	d3 e6                	shl    %cl,%esi
 8051e22:	39 fe                	cmp    %edi,%esi
 8051e24:	75 d9                	jne    8051dff <__any_on+0x3f>
 8051e26:	eb b4                	jmp    8051ddc <__any_on+0x1c>
 8051e28:	8d 1c 9a             	lea    (%edx,%ebx,4),%ebx
 8051e2b:	eb af                	jmp    8051ddc <__any_on+0x1c>
 8051e2d:	8d 76 00             	lea    0x0(%esi),%esi
 8051e30:	5b                   	pop    %ebx
 8051e31:	b8 01 00 00 00       	mov    $0x1,%eax
 8051e36:	5e                   	pop    %esi
 8051e37:	5f                   	pop    %edi
 8051e38:	5d                   	pop    %ebp
 8051e39:	c3                   	ret    
 8051e3a:	66 90                	xchg   %ax,%ax
 8051e3c:	66 90                	xchg   %ax,%ax
 8051e3e:	66 90                	xchg   %ax,%ax

08051e40 <_sbrk_r>:
 8051e40:	55                   	push   %ebp
 8051e41:	89 e5                	mov    %esp,%ebp
 8051e43:	83 ec 18             	sub    $0x18,%esp
 8051e46:	8b 45 0c             	mov    0xc(%ebp),%eax
 8051e49:	c7 05 94 06 07 08 00 	movl   $0x0,0x8070694
 8051e50:	00 00 00 
 8051e53:	89 04 24             	mov    %eax,(%esp)
 8051e56:	e8 92 73 ff ff       	call   80491ed <sbrk>
 8051e5b:	83 f8 ff             	cmp    $0xffffffff,%eax
 8051e5e:	74 08                	je     8051e68 <_sbrk_r+0x28>
 8051e60:	c9                   	leave  
 8051e61:	c3                   	ret    
 8051e62:	8d b6 00 00 00 00    	lea    0x0(%esi),%esi
 8051e68:	8b 15 94 06 07 08    	mov    0x8070694,%edx
 8051e6e:	85 d2                	test   %edx,%edx
 8051e70:	74 ee                	je     8051e60 <_sbrk_r+0x20>
 8051e72:	8b 4d 08             	mov    0x8(%ebp),%ecx
 8051e75:	89 11                	mov    %edx,(%ecx)
 8051e77:	c9                   	leave  
 8051e78:	c3                   	ret    
 8051e79:	66 90                	xchg   %ax,%ax
 8051e7b:	66 90                	xchg   %ax,%ax
 8051e7d:	66 90                	xchg   %ax,%ax
 8051e7f:	90                   	nop

08051e80 <__fpclassifyd>:
 8051e80:	55                   	push   %ebp
 8051e81:	b8 02 00 00 00       	mov    $0x2,%eax
 8051e86:	89 e5                	mov    %esp,%ebp
 8051e88:	53                   	push   %ebx
 8051e89:	83 ec 0c             	sub    $0xc,%esp
 8051e8c:	dd 45 08             	fldl   0x8(%ebp)
 8051e8f:	dd 5d f0             	fstpl  -0x10(%ebp)
 8051e92:	8b 55 f0             	mov    -0x10(%ebp),%edx
 8051e95:	8b 4d f4             	mov    -0xc(%ebp),%ecx
 8051e98:	89 d3                	mov    %edx,%ebx
 8051e9a:	09 cb                	or     %ecx,%ebx
 8051e9c:	75 0a                	jne    8051ea8 <__fpclassifyd+0x28>
 8051e9e:	83 c4 0c             	add    $0xc,%esp
 8051ea1:	5b                   	pop    %ebx
 8051ea2:	5d                   	pop    %ebp
 8051ea3:	c3                   	ret    
 8051ea4:	8d 74 26 00          	lea    0x0(%esi,%eiz,1),%esi
 8051ea8:	85 d2                	test   %edx,%edx
 8051eaa:	0f 94 c2             	sete   %dl
 8051ead:	75 08                	jne    8051eb7 <__fpclassifyd+0x37>
 8051eaf:	81 f9 00 00 00 80    	cmp    $0x80000000,%ecx
 8051eb5:	74 e7                	je     8051e9e <__fpclassifyd+0x1e>
 8051eb7:	81 e1 ff ff ff 7f    	and    $0x7fffffff,%ecx
 8051ebd:	b8 04 00 00 00       	mov    $0x4,%eax
 8051ec2:	8d 99 00 00 f0 ff    	lea    -0x100000(%ecx),%ebx
 8051ec8:	81 fb ff ff df 7f    	cmp    $0x7fdfffff,%ebx
 8051ece:	76 ce                	jbe    8051e9e <__fpclassifyd+0x1e>
 8051ed0:	81 f9 ff ff 0f 00    	cmp    $0xfffff,%ecx
 8051ed6:	b0 03                	mov    $0x3,%al
 8051ed8:	76 c4                	jbe    8051e9e <__fpclassifyd+0x1e>
 8051eda:	31 c0                	xor    %eax,%eax
 8051edc:	81 f9 00 00 f0 7f    	cmp    $0x7ff00000,%ecx
 8051ee2:	0f 94 c0             	sete   %al
 8051ee5:	21 d0                	and    %edx,%eax
 8051ee7:	eb b5                	jmp    8051e9e <__fpclassifyd+0x1e>
 8051ee9:	66 90                	xchg   %ax,%ax
 8051eeb:	66 90                	xchg   %ax,%ax
 8051eed:	66 90                	xchg   %ax,%ax
 8051eef:	90                   	nop

08051ef0 <__sread>:
 8051ef0:	55                   	push   %ebp
 8051ef1:	89 e5                	mov    %esp,%ebp
 8051ef3:	53                   	push   %ebx
 8051ef4:	83 ec 14             	sub    $0x14,%esp
 8051ef7:	8b 45 14             	mov    0x14(%ebp),%eax
 8051efa:	8b 5d 0c             	mov    0xc(%ebp),%ebx
 8051efd:	89 44 24 0c          	mov    %eax,0xc(%esp)
 8051f01:	8b 45 10             	mov    0x10(%ebp),%eax
 8051f04:	89 44 24 08          	mov    %eax,0x8(%esp)
 8051f08:	0f bf 43 0e          	movswl 0xe(%ebx),%eax
 8051f0c:	89 44 24 04          	mov    %eax,0x4(%esp)
 8051f10:	8b 45 08             	mov    0x8(%ebp),%eax
 8051f13:	89 04 24             	mov    %eax,(%esp)
 8051f16:	e8 75 2d 00 00       	call   8054c90 <_read_r>
 8051f1b:	85 c0                	test   %eax,%eax
 8051f1d:	78 09                	js     8051f28 <__sread+0x38>
 8051f1f:	01 43 50             	add    %eax,0x50(%ebx)
 8051f22:	83 c4 14             	add    $0x14,%esp
 8051f25:	5b                   	pop    %ebx
 8051f26:	5d                   	pop    %ebp
 8051f27:	c3                   	ret    
 8051f28:	66 81 63 0c ff ef    	andw   $0xefff,0xc(%ebx)
 8051f2e:	83 c4 14             	add    $0x14,%esp
 8051f31:	5b                   	pop    %ebx
 8051f32:	5d                   	pop    %ebp
 8051f33:	c3                   	ret    
 8051f34:	8d b6 00 00 00 00    	lea    0x0(%esi),%esi
 8051f3a:	8d bf 00 00 00 00    	lea    0x0(%edi),%edi

08051f40 <__seofread>:
 8051f40:	55                   	push   %ebp
 8051f41:	31 c0                	xor    %eax,%eax
 8051f43:	89 e5                	mov    %esp,%ebp
 8051f45:	5d                   	pop    %ebp
 8051f46:	c3                   	ret    
 8051f47:	89 f6                	mov    %esi,%esi
 8051f49:	8d bc 27 00 00 00 00 	lea    0x0(%edi,%eiz,1),%edi

08051f50 <__swrite>:
 8051f50:	55                   	push   %ebp
 8051f51:	89 e5                	mov    %esp,%ebp
 8051f53:	57                   	push   %edi
 8051f54:	56                   	push   %esi
 8051f55:	53                   	push   %ebx
 8051f56:	83 ec 2c             	sub    $0x2c,%esp
 8051f59:	8b 5d 0c             	mov    0xc(%ebp),%ebx
 8051f5c:	8b 75 08             	mov    0x8(%ebp),%esi
 8051f5f:	8b 7d 10             	mov    0x10(%ebp),%edi
 8051f62:	8b 55 14             	mov    0x14(%ebp),%edx
 8051f65:	0f b7 43 0c          	movzwl 0xc(%ebx),%eax
 8051f69:	f6 c4 01             	test   $0x1,%ah
 8051f6c:	74 2a                	je     8051f98 <__swrite+0x48>
 8051f6e:	c7 44 24 0c 02 00 00 	movl   $0x2,0xc(%esp)
 8051f75:	00 
 8051f76:	c7 44 24 08 00 00 00 	movl   $0x0,0x8(%esp)
 8051f7d:	00 
 8051f7e:	0f bf 43 0e          	movswl 0xe(%ebx),%eax
 8051f82:	89 34 24             	mov    %esi,(%esp)
 8051f85:	89 55 e4             	mov    %edx,-0x1c(%ebp)
 8051f88:	89 44 24 04          	mov    %eax,0x4(%esp)
 8051f8c:	e8 1f 2c 00 00       	call   8054bb0 <_lseek_r>
 8051f91:	0f b7 43 0c          	movzwl 0xc(%ebx),%eax
 8051f95:	8b 55 e4             	mov    -0x1c(%ebp),%edx
 8051f98:	80 e4 ef             	and    $0xef,%ah
 8051f9b:	66 89 43 0c          	mov    %ax,0xc(%ebx)
 8051f9f:	89 7d 10             	mov    %edi,0x10(%ebp)
 8051fa2:	89 55 14             	mov    %edx,0x14(%ebp)
 8051fa5:	0f bf 43 0e          	movswl 0xe(%ebx),%eax
 8051fa9:	89 75 08             	mov    %esi,0x8(%ebp)
 8051fac:	89 45 0c             	mov    %eax,0xc(%ebp)
 8051faf:	83 c4 2c             	add    $0x2c,%esp
 8051fb2:	5b                   	pop    %ebx
 8051fb3:	5e                   	pop    %esi
 8051fb4:	5f                   	pop    %edi
 8051fb5:	5d                   	pop    %ebp
 8051fb6:	e9 b5 22 00 00       	jmp    8054270 <_write_r>
 8051fbb:	90                   	nop
 8051fbc:	8d 74 26 00          	lea    0x0(%esi,%eiz,1),%esi

08051fc0 <__sseek>:
 8051fc0:	55                   	push   %ebp
 8051fc1:	89 e5                	mov    %esp,%ebp
 8051fc3:	53                   	push   %ebx
 8051fc4:	83 ec 14             	sub    $0x14,%esp
 8051fc7:	8b 45 14             	mov    0x14(%ebp),%eax
 8051fca:	8b 5d 0c             	mov    0xc(%ebp),%ebx
 8051fcd:	89 44 24 0c          	mov    %eax,0xc(%esp)
 8051fd1:	8b 45 10             	mov    0x10(%ebp),%eax
 8051fd4:	89 44 24 08          	mov    %eax,0x8(%esp)
 8051fd8:	0f bf 43 0e          	movswl 0xe(%ebx),%eax
 8051fdc:	89 44 24 04          	mov    %eax,0x4(%esp)
 8051fe0:	8b 45 08             	mov    0x8(%ebp),%eax
 8051fe3:	89 04 24             	mov    %eax,(%esp)
 8051fe6:	e8 c5 2b 00 00       	call   8054bb0 <_lseek_r>
 8051feb:	83 f8 ff             	cmp    $0xffffffff,%eax
 8051fee:	74 10                	je     8052000 <__sseek+0x40>
 8051ff0:	66 81 4b 0c 00 10    	orw    $0x1000,0xc(%ebx)
 8051ff6:	89 43 50             	mov    %eax,0x50(%ebx)
 8051ff9:	83 c4 14             	add    $0x14,%esp
 8051ffc:	5b                   	pop    %ebx
 8051ffd:	5d                   	pop    %ebp
 8051ffe:	c3                   	ret    
 8051fff:	90                   	nop
 8052000:	66 81 63 0c ff ef    	andw   $0xefff,0xc(%ebx)
 8052006:	83 c4 14             	add    $0x14,%esp
 8052009:	5b                   	pop    %ebx
 805200a:	5d                   	pop    %ebp
 805200b:	c3                   	ret    
 805200c:	8d 74 26 00          	lea    0x0(%esi,%eiz,1),%esi

08052010 <__sclose>:
 8052010:	55                   	push   %ebp
 8052011:	89 e5                	mov    %esp,%ebp
 8052013:	8b 45 0c             	mov    0xc(%ebp),%eax
 8052016:	0f bf 40 0e          	movswl 0xe(%eax),%eax
 805201a:	89 45 0c             	mov    %eax,0xc(%ebp)
 805201d:	5d                   	pop    %ebp
 805201e:	e9 5d 23 00 00       	jmp    8054380 <_close_r>
 8052023:	66 90                	xchg   %ax,%ax
 8052025:	66 90                	xchg   %ax,%ax
 8052027:	66 90                	xchg   %ax,%ax
 8052029:	66 90                	xchg   %ax,%ax
 805202b:	66 90                	xchg   %ax,%ax
 805202d:	66 90                	xchg   %ax,%ax
 805202f:	90                   	nop

08052030 <strcmp>:
 8052030:	55                   	push   %ebp
 8052031:	89 e5                	mov    %esp,%ebp
 8052033:	8b 45 08             	mov    0x8(%ebp),%eax
 8052036:	8b 55 0c             	mov    0xc(%ebp),%edx
 8052039:	53                   	push   %ebx
 805203a:	89 c1                	mov    %eax,%ecx
 805203c:	09 d1                	or     %edx,%ecx
 805203e:	83 e1 03             	and    $0x3,%ecx
 8052041:	75 17                	jne    805205a <strcmp+0x2a>
 8052043:	8b 08                	mov    (%eax),%ecx
 8052045:	3b 0a                	cmp    (%edx),%ecx
 8052047:	74 33                	je     805207c <strcmp+0x4c>
 8052049:	eb 0f                	jmp    805205a <strcmp+0x2a>
 805204b:	90                   	nop
 805204c:	8d 74 26 00          	lea    0x0(%esi,%eiz,1),%esi
 8052050:	3a 0a                	cmp    (%edx),%cl
 8052052:	75 0d                	jne    8052061 <strcmp+0x31>
 8052054:	83 c0 01             	add    $0x1,%eax
 8052057:	83 c2 01             	add    $0x1,%edx
 805205a:	0f b6 08             	movzbl (%eax),%ecx
 805205d:	84 c9                	test   %cl,%cl
 805205f:	75 ef                	jne    8052050 <strcmp+0x20>
 8052061:	0f b6 00             	movzbl (%eax),%eax
 8052064:	0f b6 12             	movzbl (%edx),%edx
 8052067:	5b                   	pop    %ebx
 8052068:	5d                   	pop    %ebp
 8052069:	29 d0                	sub    %edx,%eax
 805206b:	c3                   	ret    
 805206c:	8d 74 26 00          	lea    0x0(%esi,%eiz,1),%esi
 8052070:	83 c0 04             	add    $0x4,%eax
 8052073:	83 c2 04             	add    $0x4,%edx
 8052076:	8b 08                	mov    (%eax),%ecx
 8052078:	3b 0a                	cmp    (%edx),%ecx
 805207a:	75 de                	jne    805205a <strcmp+0x2a>
 805207c:	8d 99 ff fe fe fe    	lea    -0x1010101(%ecx),%ebx
 8052082:	f7 d1                	not    %ecx
 8052084:	21 cb                	and    %ecx,%ebx
 8052086:	81 e3 80 80 80 80    	and    $0x80808080,%ebx
 805208c:	74 e2                	je     8052070 <strcmp+0x40>
 805208e:	31 c0                	xor    %eax,%eax
 8052090:	5b                   	pop    %ebx
 8052091:	5d                   	pop    %ebp
 8052092:	c3                   	ret    
 8052093:	66 90                	xchg   %ax,%ax
 8052095:	66 90                	xchg   %ax,%ax
 8052097:	66 90                	xchg   %ax,%ax
 8052099:	66 90                	xchg   %ax,%ax
 805209b:	66 90                	xchg   %ax,%ax
 805209d:	66 90                	xchg   %ax,%ax
 805209f:	90                   	nop

080520a0 <__ssprint_r>:
 80520a0:	55                   	push   %ebp
 80520a1:	89 e5                	mov    %esp,%ebp
 80520a3:	57                   	push   %edi
 80520a4:	56                   	push   %esi
 80520a5:	53                   	push   %ebx
 80520a6:	83 ec 2c             	sub    $0x2c,%esp
 80520a9:	8b 45 10             	mov    0x10(%ebp),%eax
 80520ac:	8b 5d 0c             	mov    0xc(%ebp),%ebx
 80520af:	8b 00                	mov    (%eax),%eax
 80520b1:	89 c7                	mov    %eax,%edi
 80520b3:	8b 45 10             	mov    0x10(%ebp),%eax
 80520b6:	8b 40 08             	mov    0x8(%eax),%eax
 80520b9:	85 c0                	test   %eax,%eax
 80520bb:	0f 84 af 01 00 00    	je     8052270 <__ssprint_r+0x1d0>
 80520c1:	31 c9                	xor    %ecx,%ecx
 80520c3:	31 d2                	xor    %edx,%edx
 80520c5:	8b 03                	mov    (%ebx),%eax
 80520c7:	89 ce                	mov    %ecx,%esi
 80520c9:	85 f6                	test   %esi,%esi
 80520cb:	89 55 e4             	mov    %edx,-0x1c(%ebp)
 80520ce:	0f 84 ec 00 00 00    	je     80521c0 <__ssprint_r+0x120>
 80520d4:	8b 53 08             	mov    0x8(%ebx),%edx
 80520d7:	39 d6                	cmp    %edx,%esi
 80520d9:	0f 82 fc 00 00 00    	jb     80521db <__ssprint_r+0x13b>
 80520df:	0f b7 4b 0c          	movzwl 0xc(%ebx),%ecx
 80520e3:	66 f7 c1 80 04       	test   $0x480,%cx
 80520e8:	0f 84 fa 00 00 00    	je     80521e8 <__ssprint_r+0x148>
 80520ee:	8b 53 10             	mov    0x10(%ebx),%edx
 80520f1:	29 d0                	sub    %edx,%eax
 80520f3:	89 45 dc             	mov    %eax,-0x24(%ebp)
 80520f6:	8b 43 14             	mov    0x14(%ebx),%eax
 80520f9:	89 55 d8             	mov    %edx,-0x28(%ebp)
 80520fc:	8d 04 40             	lea    (%eax,%eax,2),%eax
 80520ff:	89 c2                	mov    %eax,%edx
 8052101:	c1 ea 1f             	shr    $0x1f,%edx
 8052104:	01 d0                	add    %edx,%eax
 8052106:	89 45 e0             	mov    %eax,-0x20(%ebp)
 8052109:	8b 45 dc             	mov    -0x24(%ebp),%eax
 805210c:	d1 7d e0             	sarl   -0x20(%ebp)
 805210f:	8d 44 06 01          	lea    0x1(%esi,%eax,1),%eax
 8052113:	39 45 e0             	cmp    %eax,-0x20(%ebp)
 8052116:	0f 83 34 01 00 00    	jae    8052250 <__ssprint_r+0x1b0>
 805211c:	89 45 e0             	mov    %eax,-0x20(%ebp)
 805211f:	80 e5 04             	and    $0x4,%ch
 8052122:	0f 84 c8 00 00 00    	je     80521f0 <__ssprint_r+0x150>
 8052128:	89 44 24 04          	mov    %eax,0x4(%esp)
 805212c:	8b 45 08             	mov    0x8(%ebp),%eax
 805212f:	89 04 24             	mov    %eax,(%esp)
 8052132:	e8 e9 e6 ff ff       	call   8050820 <_malloc_r>
 8052137:	85 c0                	test   %eax,%eax
 8052139:	89 c2                	mov    %eax,%edx
 805213b:	0f 84 e1 00 00 00    	je     8052222 <__ssprint_r+0x182>
 8052141:	8b 45 dc             	mov    -0x24(%ebp),%eax
 8052144:	89 55 d8             	mov    %edx,-0x28(%ebp)
 8052147:	89 44 24 08          	mov    %eax,0x8(%esp)
 805214b:	8b 43 10             	mov    0x10(%ebx),%eax
 805214e:	89 14 24             	mov    %edx,(%esp)
 8052151:	89 44 24 04          	mov    %eax,0x4(%esp)
 8052155:	e8 9e ee ff ff       	call   8050ff8 <memcpy>
 805215a:	0f b7 43 0c          	movzwl 0xc(%ebx),%eax
 805215e:	8b 55 d8             	mov    -0x28(%ebp),%edx
 8052161:	66 25 7f fb          	and    $0xfb7f,%ax
 8052165:	0c 80                	or     $0x80,%al
 8052167:	66 89 43 0c          	mov    %ax,0xc(%ebx)
 805216b:	8b 4d e0             	mov    -0x20(%ebp),%ecx
 805216e:	8b 45 dc             	mov    -0x24(%ebp),%eax
 8052171:	89 53 10             	mov    %edx,0x10(%ebx)
 8052174:	89 4b 14             	mov    %ecx,0x14(%ebx)
 8052177:	2b 4d dc             	sub    -0x24(%ebp),%ecx
 805217a:	01 d0                	add    %edx,%eax
 805217c:	89 03                	mov    %eax,(%ebx)
 805217e:	89 f2                	mov    %esi,%edx
 8052180:	89 4b 08             	mov    %ecx,0x8(%ebx)
 8052183:	89 f1                	mov    %esi,%ecx
 8052185:	89 4c 24 08          	mov    %ecx,0x8(%esp)
 8052189:	89 4d e0             	mov    %ecx,-0x20(%ebp)
 805218c:	8b 4d e4             	mov    -0x1c(%ebp),%ecx
 805218f:	89 04 24             	mov    %eax,(%esp)
 8052192:	89 55 dc             	mov    %edx,-0x24(%ebp)
 8052195:	89 4c 24 04          	mov    %ecx,0x4(%esp)
 8052199:	e8 62 2a 00 00       	call   8054c00 <memmove>
 805219e:	8b 03                	mov    (%ebx),%eax
 80521a0:	8b 4d e0             	mov    -0x20(%ebp),%ecx
 80521a3:	8b 55 dc             	mov    -0x24(%ebp),%edx
 80521a6:	29 53 08             	sub    %edx,0x8(%ebx)
 80521a9:	01 c8                	add    %ecx,%eax
 80521ab:	8b 4d 10             	mov    0x10(%ebp),%ecx
 80521ae:	89 03                	mov    %eax,(%ebx)
 80521b0:	8b 51 08             	mov    0x8(%ecx),%edx
 80521b3:	29 f2                	sub    %esi,%edx
 80521b5:	85 d2                	test   %edx,%edx
 80521b7:	89 51 08             	mov    %edx,0x8(%ecx)
 80521ba:	0f 84 98 00 00 00    	je     8052258 <__ssprint_r+0x1b8>
 80521c0:	8b 77 04             	mov    0x4(%edi),%esi
 80521c3:	83 c7 08             	add    $0x8,%edi
 80521c6:	8b 4f f8             	mov    -0x8(%edi),%ecx
 80521c9:	85 f6                	test   %esi,%esi
 80521cb:	89 4d e4             	mov    %ecx,-0x1c(%ebp)
 80521ce:	74 f0                	je     80521c0 <__ssprint_r+0x120>
 80521d0:	8b 53 08             	mov    0x8(%ebx),%edx
 80521d3:	39 d6                	cmp    %edx,%esi
 80521d5:	0f 83 04 ff ff ff    	jae    80520df <__ssprint_r+0x3f>
 80521db:	89 f2                	mov    %esi,%edx
 80521dd:	89 f1                	mov    %esi,%ecx
 80521df:	eb a4                	jmp    8052185 <__ssprint_r+0xe5>
 80521e1:	8d b4 26 00 00 00 00 	lea    0x0(%esi,%eiz,1),%esi
 80521e8:	89 d1                	mov    %edx,%ecx
 80521ea:	eb 99                	jmp    8052185 <__ssprint_r+0xe5>
 80521ec:	8d 74 26 00          	lea    0x0(%esi,%eiz,1),%esi
 80521f0:	89 44 24 08          	mov    %eax,0x8(%esp)
 80521f4:	8b 45 d8             	mov    -0x28(%ebp),%eax
 80521f7:	89 44 24 04          	mov    %eax,0x4(%esp)
 80521fb:	8b 45 08             	mov    0x8(%ebp),%eax
 80521fe:	89 04 24             	mov    %eax,(%esp)
 8052201:	e8 da 2a 00 00       	call   8054ce0 <_realloc_r>
 8052206:	85 c0                	test   %eax,%eax
 8052208:	89 c2                	mov    %eax,%edx
 805220a:	0f 85 5b ff ff ff    	jne    805216b <__ssprint_r+0xcb>
 8052210:	8b 43 10             	mov    0x10(%ebx),%eax
 8052213:	89 44 24 04          	mov    %eax,0x4(%esp)
 8052217:	8b 45 08             	mov    0x8(%ebp),%eax
 805221a:	89 04 24             	mov    %eax,(%esp)
 805221d:	e8 4e e0 ff ff       	call   8050270 <_free_r>
 8052222:	8b 45 08             	mov    0x8(%ebp),%eax
 8052225:	c7 00 0c 00 00 00    	movl   $0xc,(%eax)
 805222b:	8b 45 10             	mov    0x10(%ebp),%eax
 805222e:	66 83 4b 0c 40       	orw    $0x40,0xc(%ebx)
 8052233:	c7 40 08 00 00 00 00 	movl   $0x0,0x8(%eax)
 805223a:	c7 40 04 00 00 00 00 	movl   $0x0,0x4(%eax)
 8052241:	83 c4 2c             	add    $0x2c,%esp
 8052244:	b8 ff ff ff ff       	mov    $0xffffffff,%eax
 8052249:	5b                   	pop    %ebx
 805224a:	5e                   	pop    %esi
 805224b:	5f                   	pop    %edi
 805224c:	5d                   	pop    %ebp
 805224d:	c3                   	ret    
 805224e:	66 90                	xchg   %ax,%ax
 8052250:	8b 45 e0             	mov    -0x20(%ebp),%eax
 8052253:	e9 c7 fe ff ff       	jmp    805211f <__ssprint_r+0x7f>
 8052258:	c7 41 04 00 00 00 00 	movl   $0x0,0x4(%ecx)
 805225f:	83 c4 2c             	add    $0x2c,%esp
 8052262:	31 c0                	xor    %eax,%eax
 8052264:	5b                   	pop    %ebx
 8052265:	5e                   	pop    %esi
 8052266:	5f                   	pop    %edi
 8052267:	5d                   	pop    %ebp
 8052268:	c3                   	ret    
 8052269:	8d b4 26 00 00 00 00 	lea    0x0(%esi,%eiz,1),%esi
 8052270:	8b 45 10             	mov    0x10(%ebp),%eax
 8052273:	c7 40 04 00 00 00 00 	movl   $0x0,0x4(%eax)
 805227a:	83 c4 2c             	add    $0x2c,%esp
 805227d:	31 c0                	xor    %eax,%eax
 805227f:	5b                   	pop    %ebx
 8052280:	5e                   	pop    %esi
 8052281:	5f                   	pop    %edi
 8052282:	5d                   	pop    %ebp
 8052283:	c3                   	ret    
 8052284:	8d b6 00 00 00 00    	lea    0x0(%esi),%esi
 805228a:	8d bf 00 00 00 00    	lea    0x0(%edi),%edi

08052290 <_svfiprintf_r>:
 8052290:	55                   	push   %ebp
 8052291:	89 e5                	mov    %esp,%ebp
 8052293:	57                   	push   %edi
 8052294:	56                   	push   %esi
 8052295:	53                   	push   %ebx
 8052296:	81 ec cc 00 00 00    	sub    $0xcc,%esp
 805229c:	8b 45 0c             	mov    0xc(%ebp),%eax
 805229f:	f6 40 0c 80          	testb  $0x80,0xc(%eax)
 80522a3:	74 0b                	je     80522b0 <_svfiprintf_r+0x20>
 80522a5:	8b 50 10             	mov    0x10(%eax),%edx
 80522a8:	85 d2                	test   %edx,%edx
 80522aa:	0f 84 1c 0d 00 00    	je     8052fcc <_svfiprintf_r+0xd3c>
 80522b0:	8d 45 a8             	lea    -0x58(%ebp),%eax
 80522b3:	8d 5d a7             	lea    -0x59(%ebp),%ebx
 80522b6:	89 c6                	mov    %eax,%esi
 80522b8:	89 85 74 ff ff ff    	mov    %eax,-0x8c(%ebp)
 80522be:	29 d8                	sub    %ebx,%eax
 80522c0:	c7 85 7c ff ff ff 00 	movl   $0x0,-0x84(%ebp)
 80522c7:	00 00 00 
 80522ca:	c7 85 78 ff ff ff 00 	movl   $0x0,-0x88(%ebp)
 80522d1:	00 00 00 
 80522d4:	c7 85 44 ff ff ff 00 	movl   $0x0,-0xbc(%ebp)
 80522db:	00 00 00 
 80522de:	c7 85 50 ff ff ff 00 	movl   $0x0,-0xb0(%ebp)
 80522e5:	00 00 00 
 80522e8:	89 85 3c ff ff ff    	mov    %eax,-0xc4(%ebp)
 80522ee:	8b 45 10             	mov    0x10(%ebp),%eax
 80522f1:	8b 5d 10             	mov    0x10(%ebp),%ebx
 80522f4:	0f b6 00             	movzbl (%eax),%eax
 80522f7:	84 c0                	test   %al,%al
 80522f9:	74 58                	je     8052353 <_svfiprintf_r+0xc3>
 80522fb:	3c 25                	cmp    $0x25,%al
 80522fd:	75 13                	jne    8052312 <_svfiprintf_r+0x82>
 80522ff:	eb 52                	jmp    8052353 <_svfiprintf_r+0xc3>
 8052301:	8d b4 26 00 00 00 00 	lea    0x0(%esi,%eiz,1),%esi
 8052308:	84 c0                	test   %al,%al
 805230a:	8d b6 00 00 00 00    	lea    0x0(%esi),%esi
 8052310:	74 0a                	je     805231c <_svfiprintf_r+0x8c>
 8052312:	83 c3 01             	add    $0x1,%ebx
 8052315:	0f b6 03             	movzbl (%ebx),%eax
 8052318:	3c 25                	cmp    $0x25,%al
 805231a:	75 ec                	jne    8052308 <_svfiprintf_r+0x78>
 805231c:	89 df                	mov    %ebx,%edi
 805231e:	2b 7d 10             	sub    0x10(%ebp),%edi
 8052321:	74 30                	je     8052353 <_svfiprintf_r+0xc3>
 8052323:	8b 45 10             	mov    0x10(%ebp),%eax
 8052326:	83 c6 08             	add    $0x8,%esi
 8052329:	89 7e fc             	mov    %edi,-0x4(%esi)
 805232c:	01 bd 7c ff ff ff    	add    %edi,-0x84(%ebp)
 8052332:	89 46 f8             	mov    %eax,-0x8(%esi)
 8052335:	8b 85 78 ff ff ff    	mov    -0x88(%ebp),%eax
 805233b:	83 c0 01             	add    $0x1,%eax
 805233e:	83 f8 07             	cmp    $0x7,%eax
 8052341:	89 85 78 ff ff ff    	mov    %eax,-0x88(%ebp)
 8052347:	0f 8f eb 0a 00 00    	jg     8052e38 <_svfiprintf_r+0xba8>
 805234d:	01 bd 50 ff ff ff    	add    %edi,-0xb0(%ebp)
 8052353:	80 3b 00             	cmpb   $0x0,(%ebx)
 8052356:	0f 84 11 09 00 00    	je     8052c6d <_svfiprintf_r+0x9dd>
 805235c:	8d 43 01             	lea    0x1(%ebx),%eax
 805235f:	31 ff                	xor    %edi,%edi
 8052361:	c6 85 71 ff ff ff 00 	movb   $0x0,-0x8f(%ebp)
 8052368:	c7 85 5c ff ff ff ff 	movl   $0xffffffff,-0xa4(%ebp)
 805236f:	ff ff ff 
 8052372:	c7 85 54 ff ff ff 00 	movl   $0x0,-0xac(%ebp)
 8052379:	00 00 00 
 805237c:	c7 85 64 ff ff ff 00 	movl   $0x0,-0x9c(%ebp)
 8052383:	00 00 00 
 8052386:	8d 50 01             	lea    0x1(%eax),%edx
 8052389:	0f be 00             	movsbl (%eax),%eax
 805238c:	8d 48 e0             	lea    -0x20(%eax),%ecx
 805238f:	83 f9 58             	cmp    $0x58,%ecx
 8052392:	0f 87 63 03 00 00    	ja     80526fb <_svfiprintf_r+0x46b>
 8052398:	ff 24 8d a8 69 05 08 	jmp    *0x80569a8(,%ecx,4)
 805239f:	90                   	nop
 80523a0:	83 8d 64 ff ff ff 10 	orl    $0x10,-0x9c(%ebp)
 80523a7:	89 d0                	mov    %edx,%eax
 80523a9:	eb db                	jmp    8052386 <_svfiprintf_r+0xf6>
 80523ab:	8b 45 14             	mov    0x14(%ebp),%eax
 80523ae:	8b 5d 14             	mov    0x14(%ebp),%ebx
 80523b1:	8b 00                	mov    (%eax),%eax
 80523b3:	83 c3 04             	add    $0x4,%ebx
 80523b6:	89 5d 14             	mov    %ebx,0x14(%ebp)
 80523b9:	85 c0                	test   %eax,%eax
 80523bb:	89 85 54 ff ff ff    	mov    %eax,-0xac(%ebp)
 80523c1:	79 e4                	jns    80523a7 <_svfiprintf_r+0x117>
 80523c3:	f7 9d 54 ff ff ff    	negl   -0xac(%ebp)
 80523c9:	83 8d 64 ff ff ff 04 	orl    $0x4,-0x9c(%ebp)
 80523d0:	89 d0                	mov    %edx,%eax
 80523d2:	eb b2                	jmp    8052386 <_svfiprintf_r+0xf6>
 80523d4:	bf 2b 00 00 00       	mov    $0x2b,%edi
 80523d9:	89 d0                	mov    %edx,%eax
 80523db:	eb a9                	jmp    8052386 <_svfiprintf_r+0xf6>
 80523dd:	8b 45 14             	mov    0x14(%ebp),%eax
 80523e0:	83 8d 64 ff ff ff 02 	orl    $0x2,-0x9c(%ebp)
 80523e7:	89 55 10             	mov    %edx,0x10(%ebp)
 80523ea:	ba 02 00 00 00       	mov    $0x2,%edx
 80523ef:	8b 08                	mov    (%eax),%ecx
 80523f1:	83 c0 04             	add    $0x4,%eax
 80523f4:	c6 85 72 ff ff ff 30 	movb   $0x30,-0x8e(%ebp)
 80523fb:	c6 85 73 ff ff ff 78 	movb   $0x78,-0x8d(%ebp)
 8052402:	89 45 14             	mov    %eax,0x14(%ebp)
 8052405:	c7 85 44 ff ff ff b9 	movl   $0x80564b9,-0xbc(%ebp)
 805240c:	64 05 08 
 805240f:	90                   	nop
 8052410:	c6 85 71 ff ff ff 00 	movb   $0x0,-0x8f(%ebp)
 8052417:	31 ff                	xor    %edi,%edi
 8052419:	8b 9d 64 ff ff ff    	mov    -0x9c(%ebp),%ebx
 805241f:	89 d8                	mov    %ebx,%eax
 8052421:	24 7f                	and    $0x7f,%al
 8052423:	83 bd 5c ff ff ff 00 	cmpl   $0x0,-0xa4(%ebp)
 805242a:	0f 48 c3             	cmovs  %ebx,%eax
 805242d:	89 85 64 ff ff ff    	mov    %eax,-0x9c(%ebp)
 8052433:	8b 85 5c ff ff ff    	mov    -0xa4(%ebp),%eax
 8052439:	85 c0                	test   %eax,%eax
 805243b:	75 08                	jne    8052445 <_svfiprintf_r+0x1b5>
 805243d:	85 c9                	test   %ecx,%ecx
 805243f:	0f 84 03 08 00 00    	je     8052c48 <_svfiprintf_r+0x9b8>
 8052445:	80 fa 01             	cmp    $0x1,%dl
 8052448:	0f 84 8a 0a 00 00    	je     8052ed8 <_svfiprintf_r+0xc48>
 805244e:	80 fa 02             	cmp    $0x2,%dl
 8052451:	8d 5d a8             	lea    -0x58(%ebp),%ebx
 8052454:	0f 85 86 01 00 00    	jne    80525e0 <_svfiprintf_r+0x350>
 805245a:	8b 95 44 ff ff ff    	mov    -0xbc(%ebp),%edx
 8052460:	89 c8                	mov    %ecx,%eax
 8052462:	83 eb 01             	sub    $0x1,%ebx
 8052465:	83 e0 0f             	and    $0xf,%eax
 8052468:	0f b6 04 02          	movzbl (%edx,%eax,1),%eax
 805246c:	c1 e9 04             	shr    $0x4,%ecx
 805246f:	85 c9                	test   %ecx,%ecx
 8052471:	88 03                	mov    %al,(%ebx)
 8052473:	75 eb                	jne    8052460 <_svfiprintf_r+0x1d0>
 8052475:	8d 45 a8             	lea    -0x58(%ebp),%eax
 8052478:	29 d8                	sub    %ebx,%eax
 805247a:	89 85 58 ff ff ff    	mov    %eax,-0xa8(%ebp)
 8052480:	8b 85 5c ff ff ff    	mov    -0xa4(%ebp),%eax
 8052486:	8b 8d 58 ff ff ff    	mov    -0xa8(%ebp),%ecx
 805248c:	39 c1                	cmp    %eax,%ecx
 805248e:	0f 4d c1             	cmovge %ecx,%eax
 8052491:	89 85 60 ff ff ff    	mov    %eax,-0xa0(%ebp)
 8052497:	89 f8                	mov    %edi,%eax
 8052499:	3c 01                	cmp    $0x1,%al
 805249b:	83 9d 60 ff ff ff ff 	sbbl   $0xffffffff,-0xa0(%ebp)
 80524a2:	8b 95 60 ff ff ff    	mov    -0xa0(%ebp),%edx
 80524a8:	8b 8d 64 ff ff ff    	mov    -0x9c(%ebp),%ecx
 80524ae:	89 d0                	mov    %edx,%eax
 80524b0:	89 cf                	mov    %ecx,%edi
 80524b2:	83 c0 02             	add    $0x2,%eax
 80524b5:	83 e7 02             	and    $0x2,%edi
 80524b8:	89 bd 4c ff ff ff    	mov    %edi,-0xb4(%ebp)
 80524be:	89 cf                	mov    %ecx,%edi
 80524c0:	0f 44 c2             	cmove  %edx,%eax
 80524c3:	81 e7 84 00 00 00    	and    $0x84,%edi
 80524c9:	89 85 60 ff ff ff    	mov    %eax,-0xa0(%ebp)
 80524cf:	89 bd 48 ff ff ff    	mov    %edi,-0xb8(%ebp)
 80524d5:	0f 85 cd 04 00 00    	jne    80529a8 <_svfiprintf_r+0x718>
 80524db:	8b bd 54 ff ff ff    	mov    -0xac(%ebp),%edi
 80524e1:	2b bd 60 ff ff ff    	sub    -0xa0(%ebp),%edi
 80524e7:	85 ff                	test   %edi,%edi
 80524e9:	0f 8e b9 04 00 00    	jle    80529a8 <_svfiprintf_r+0x718>
 80524ef:	83 ff 10             	cmp    $0x10,%edi
 80524f2:	8b 95 7c ff ff ff    	mov    -0x84(%ebp),%edx
 80524f8:	8b 85 78 ff ff ff    	mov    -0x88(%ebp),%eax
 80524fe:	7e 7c                	jle    805257c <_svfiprintf_r+0x2ec>
 8052500:	89 9d 40 ff ff ff    	mov    %ebx,-0xc0(%ebp)
 8052506:	89 f1                	mov    %esi,%ecx
 8052508:	8b 5d 08             	mov    0x8(%ebp),%ebx
 805250b:	8b 75 0c             	mov    0xc(%ebp),%esi
 805250e:	eb 08                	jmp    8052518 <_svfiprintf_r+0x288>
 8052510:	83 ef 10             	sub    $0x10,%edi
 8052513:	83 ff 10             	cmp    $0x10,%edi
 8052516:	7e 5c                	jle    8052574 <_svfiprintf_r+0x2e4>
 8052518:	83 c0 01             	add    $0x1,%eax
 805251b:	83 c2 10             	add    $0x10,%edx
 805251e:	c7 01 1c 6b 05 08    	movl   $0x8056b1c,(%ecx)
 8052524:	83 c1 08             	add    $0x8,%ecx
 8052527:	c7 41 fc 10 00 00 00 	movl   $0x10,-0x4(%ecx)
 805252e:	83 f8 07             	cmp    $0x7,%eax
 8052531:	89 95 7c ff ff ff    	mov    %edx,-0x84(%ebp)
 8052537:	89 85 78 ff ff ff    	mov    %eax,-0x88(%ebp)
 805253d:	7e d1                	jle    8052510 <_svfiprintf_r+0x280>
 805253f:	8d 85 74 ff ff ff    	lea    -0x8c(%ebp),%eax
 8052545:	89 44 24 08          	mov    %eax,0x8(%esp)
 8052549:	89 74 24 04          	mov    %esi,0x4(%esp)
 805254d:	89 1c 24             	mov    %ebx,(%esp)
 8052550:	e8 4b fb ff ff       	call   80520a0 <__ssprint_r>
 8052555:	85 c0                	test   %eax,%eax
 8052557:	0f 85 3b 07 00 00    	jne    8052c98 <_svfiprintf_r+0xa08>
 805255d:	83 ef 10             	sub    $0x10,%edi
 8052560:	8b 95 7c ff ff ff    	mov    -0x84(%ebp),%edx
 8052566:	83 ff 10             	cmp    $0x10,%edi
 8052569:	8b 85 78 ff ff ff    	mov    -0x88(%ebp),%eax
 805256f:	8d 4d a8             	lea    -0x58(%ebp),%ecx
 8052572:	7f a4                	jg     8052518 <_svfiprintf_r+0x288>
 8052574:	8b 9d 40 ff ff ff    	mov    -0xc0(%ebp),%ebx
 805257a:	89 ce                	mov    %ecx,%esi
 805257c:	83 c0 01             	add    $0x1,%eax
 805257f:	01 fa                	add    %edi,%edx
 8052581:	c7 06 1c 6b 05 08    	movl   $0x8056b1c,(%esi)
 8052587:	83 c6 08             	add    $0x8,%esi
 805258a:	89 7e fc             	mov    %edi,-0x4(%esi)
 805258d:	83 f8 07             	cmp    $0x7,%eax
 8052590:	89 95 7c ff ff ff    	mov    %edx,-0x84(%ebp)
 8052596:	89 85 78 ff ff ff    	mov    %eax,-0x88(%ebp)
 805259c:	0f 8e 12 04 00 00    	jle    80529b4 <_svfiprintf_r+0x724>
 80525a2:	8d 85 74 ff ff ff    	lea    -0x8c(%ebp),%eax
 80525a8:	89 44 24 08          	mov    %eax,0x8(%esp)
 80525ac:	8b 45 0c             	mov    0xc(%ebp),%eax
 80525af:	89 44 24 04          	mov    %eax,0x4(%esp)
 80525b3:	8b 45 08             	mov    0x8(%ebp),%eax
 80525b6:	89 04 24             	mov    %eax,(%esp)
 80525b9:	e8 e2 fa ff ff       	call   80520a0 <__ssprint_r>
 80525be:	85 c0                	test   %eax,%eax
 80525c0:	0f 85 d2 06 00 00    	jne    8052c98 <_svfiprintf_r+0xa08>
 80525c6:	8b 95 7c ff ff ff    	mov    -0x84(%ebp),%edx
 80525cc:	8d 75 a8             	lea    -0x58(%ebp),%esi
 80525cf:	8b 85 78 ff ff ff    	mov    -0x88(%ebp),%eax
 80525d5:	e9 da 03 00 00       	jmp    80529b4 <_svfiprintf_r+0x724>
 80525da:	8d b6 00 00 00 00    	lea    0x0(%esi),%esi
 80525e0:	89 c8                	mov    %ecx,%eax
 80525e2:	83 eb 01             	sub    $0x1,%ebx
 80525e5:	83 e0 07             	and    $0x7,%eax
 80525e8:	c1 e9 03             	shr    $0x3,%ecx
 80525eb:	83 c0 30             	add    $0x30,%eax
 80525ee:	85 c9                	test   %ecx,%ecx
 80525f0:	88 03                	mov    %al,(%ebx)
 80525f2:	75 ec                	jne    80525e0 <_svfiprintf_r+0x350>
 80525f4:	f6 85 64 ff ff ff 01 	testb  $0x1,-0x9c(%ebp)
 80525fb:	89 da                	mov    %ebx,%edx
 80525fd:	0f 84 72 fe ff ff    	je     8052475 <_svfiprintf_r+0x1e5>
 8052603:	3c 30                	cmp    $0x30,%al
 8052605:	0f 84 6a fe ff ff    	je     8052475 <_svfiprintf_r+0x1e5>
 805260b:	83 eb 01             	sub    $0x1,%ebx
 805260e:	8d 45 a8             	lea    -0x58(%ebp),%eax
 8052611:	29 d8                	sub    %ebx,%eax
 8052613:	c6 42 ff 30          	movb   $0x30,-0x1(%edx)
 8052617:	89 85 58 ff ff ff    	mov    %eax,-0xa8(%ebp)
 805261d:	e9 5e fe ff ff       	jmp    8052480 <_svfiprintf_r+0x1f0>
 8052622:	83 8d 64 ff ff ff 10 	orl    $0x10,-0x9c(%ebp)
 8052629:	f6 85 64 ff ff ff 10 	testb  $0x10,-0x9c(%ebp)
 8052630:	89 55 10             	mov    %edx,0x10(%ebp)
 8052633:	8b 45 14             	mov    0x14(%ebp),%eax
 8052636:	0f 85 48 01 00 00    	jne    8052784 <_svfiprintf_r+0x4f4>
 805263c:	f6 85 64 ff ff ff 40 	testb  $0x40,-0x9c(%ebp)
 8052643:	0f 84 3b 01 00 00    	je     8052784 <_svfiprintf_r+0x4f4>
 8052649:	0f b7 08             	movzwl (%eax),%ecx
 805264c:	83 c0 04             	add    $0x4,%eax
 805264f:	31 d2                	xor    %edx,%edx
 8052651:	89 45 14             	mov    %eax,0x14(%ebp)
 8052654:	e9 b7 fd ff ff       	jmp    8052410 <_svfiprintf_r+0x180>
 8052659:	83 8d 64 ff ff ff 10 	orl    $0x10,-0x9c(%ebp)
 8052660:	89 f8                	mov    %edi,%eax
 8052662:	89 55 10             	mov    %edx,0x10(%ebp)
 8052665:	88 85 71 ff ff ff    	mov    %al,-0x8f(%ebp)
 805266b:	f6 85 64 ff ff ff 10 	testb  $0x10,-0x9c(%ebp)
 8052672:	8b 45 14             	mov    0x14(%ebp),%eax
 8052675:	75 0d                	jne    8052684 <_svfiprintf_r+0x3f4>
 8052677:	f6 85 64 ff ff ff 40 	testb  $0x40,-0x9c(%ebp)
 805267e:	0f 85 f2 08 00 00    	jne    8052f76 <_svfiprintf_r+0xce6>
 8052684:	8b 08                	mov    (%eax),%ecx
 8052686:	83 c0 04             	add    $0x4,%eax
 8052689:	89 45 14             	mov    %eax,0x14(%ebp)
 805268c:	85 c9                	test   %ecx,%ecx
 805268e:	0f 88 f3 08 00 00    	js     8052f87 <_svfiprintf_r+0xcf7>
 8052694:	0f b6 bd 71 ff ff ff 	movzbl -0x8f(%ebp),%edi
 805269b:	ba 01 00 00 00       	mov    $0x1,%edx
 80526a0:	e9 74 fd ff ff       	jmp    8052419 <_svfiprintf_r+0x189>
 80526a5:	0f be 02             	movsbl (%edx),%eax
 80526a8:	8d 5a 01             	lea    0x1(%edx),%ebx
 80526ab:	83 f8 2a             	cmp    $0x2a,%eax
 80526ae:	0f 84 af 09 00 00    	je     8053063 <_svfiprintf_r+0xdd3>
 80526b4:	8d 48 d0             	lea    -0x30(%eax),%ecx
 80526b7:	31 d2                	xor    %edx,%edx
 80526b9:	83 f9 09             	cmp    $0x9,%ecx
 80526bc:	0f 87 90 09 00 00    	ja     8053052 <_svfiprintf_r+0xdc2>
 80526c2:	8d b6 00 00 00 00    	lea    0x0(%esi),%esi
 80526c8:	8d 04 92             	lea    (%edx,%edx,4),%eax
 80526cb:	83 c3 01             	add    $0x1,%ebx
 80526ce:	8d 14 41             	lea    (%ecx,%eax,2),%edx
 80526d1:	0f be 43 ff          	movsbl -0x1(%ebx),%eax
 80526d5:	8d 48 d0             	lea    -0x30(%eax),%ecx
 80526d8:	83 f9 09             	cmp    $0x9,%ecx
 80526db:	76 eb                	jbe    80526c8 <_svfiprintf_r+0x438>
 80526dd:	85 d2                	test   %edx,%edx
 80526df:	b9 ff ff ff ff       	mov    $0xffffffff,%ecx
 80526e4:	0f 48 d1             	cmovs  %ecx,%edx
 80526e7:	8d 48 e0             	lea    -0x20(%eax),%ecx
 80526ea:	83 f9 58             	cmp    $0x58,%ecx
 80526ed:	89 95 5c ff ff ff    	mov    %edx,-0xa4(%ebp)
 80526f3:	89 da                	mov    %ebx,%edx
 80526f5:	0f 86 9d fc ff ff    	jbe    8052398 <_svfiprintf_r+0x108>
 80526fb:	89 fb                	mov    %edi,%ebx
 80526fd:	85 c0                	test   %eax,%eax
 80526ff:	89 55 10             	mov    %edx,0x10(%ebp)
 8052702:	88 9d 71 ff ff ff    	mov    %bl,-0x8f(%ebp)
 8052708:	0f 84 5f 05 00 00    	je     8052c6d <_svfiprintf_r+0x9dd>
 805270e:	88 45 80             	mov    %al,-0x80(%ebp)
 8052711:	8d 5d 80             	lea    -0x80(%ebp),%ebx
 8052714:	c6 85 71 ff ff ff 00 	movb   $0x0,-0x8f(%ebp)
 805271b:	c7 85 60 ff ff ff 01 	movl   $0x1,-0xa0(%ebp)
 8052722:	00 00 00 
 8052725:	c7 85 58 ff ff ff 01 	movl   $0x1,-0xa8(%ebp)
 805272c:	00 00 00 
 805272f:	e9 5a 01 00 00       	jmp    805288e <_svfiprintf_r+0x5fe>
 8052734:	31 db                	xor    %ebx,%ebx
 8052736:	8d 48 d0             	lea    -0x30(%eax),%ecx
 8052739:	8d b4 26 00 00 00 00 	lea    0x0(%esi,%eiz,1),%esi
 8052740:	8d 04 9b             	lea    (%ebx,%ebx,4),%eax
 8052743:	83 c2 01             	add    $0x1,%edx
 8052746:	8d 1c 41             	lea    (%ecx,%eax,2),%ebx
 8052749:	0f be 42 ff          	movsbl -0x1(%edx),%eax
 805274d:	8d 48 d0             	lea    -0x30(%eax),%ecx
 8052750:	83 f9 09             	cmp    $0x9,%ecx
 8052753:	76 eb                	jbe    8052740 <_svfiprintf_r+0x4b0>
 8052755:	89 9d 54 ff ff ff    	mov    %ebx,-0xac(%ebp)
 805275b:	e9 2c fc ff ff       	jmp    805238c <_svfiprintf_r+0xfc>
 8052760:	81 8d 64 ff ff ff 80 	orl    $0x80,-0x9c(%ebp)
 8052767:	00 00 00 
 805276a:	89 d0                	mov    %edx,%eax
 805276c:	e9 15 fc ff ff       	jmp    8052386 <_svfiprintf_r+0xf6>
 8052771:	f6 85 64 ff ff ff 10 	testb  $0x10,-0x9c(%ebp)
 8052778:	89 55 10             	mov    %edx,0x10(%ebp)
 805277b:	8b 45 14             	mov    0x14(%ebp),%eax
 805277e:	0f 84 b8 fe ff ff    	je     805263c <_svfiprintf_r+0x3ac>
 8052784:	8b 08                	mov    (%eax),%ecx
 8052786:	83 c0 04             	add    $0x4,%eax
 8052789:	31 d2                	xor    %edx,%edx
 805278b:	89 45 14             	mov    %eax,0x14(%ebp)
 805278e:	e9 7d fc ff ff       	jmp    8052410 <_svfiprintf_r+0x180>
 8052793:	f6 85 64 ff ff ff 10 	testb  $0x10,-0x9c(%ebp)
 805279a:	89 f8                	mov    %edi,%eax
 805279c:	89 55 10             	mov    %edx,0x10(%ebp)
 805279f:	88 85 71 ff ff ff    	mov    %al,-0x8f(%ebp)
 80527a5:	0f 85 a2 07 00 00    	jne    8052f4d <_svfiprintf_r+0xcbd>
 80527ab:	f6 85 64 ff ff ff 40 	testb  $0x40,-0x9c(%ebp)
 80527b2:	0f 84 95 07 00 00    	je     8052f4d <_svfiprintf_r+0xcbd>
 80527b8:	8b 45 14             	mov    0x14(%ebp),%eax
 80527bb:	0f b7 9d 50 ff ff ff 	movzwl -0xb0(%ebp),%ebx
 80527c2:	8b 00                	mov    (%eax),%eax
 80527c4:	66 89 18             	mov    %bx,(%eax)
 80527c7:	8b 45 14             	mov    0x14(%ebp),%eax
 80527ca:	83 c0 04             	add    $0x4,%eax
 80527cd:	89 45 14             	mov    %eax,0x14(%ebp)
 80527d0:	e9 19 fb ff ff       	jmp    80522ee <_svfiprintf_r+0x5e>
 80527d5:	89 fb                	mov    %edi,%ebx
 80527d7:	89 55 10             	mov    %edx,0x10(%ebp)
 80527da:	88 9d 71 ff ff ff    	mov    %bl,-0x8f(%ebp)
 80527e0:	c7 85 44 ff ff ff b9 	movl   $0x80564b9,-0xbc(%ebp)
 80527e7:	64 05 08 
 80527ea:	f6 85 64 ff ff ff 10 	testb  $0x10,-0x9c(%ebp)
 80527f1:	8b 5d 14             	mov    0x14(%ebp),%ebx
 80527f4:	75 0d                	jne    8052803 <_svfiprintf_r+0x573>
 80527f6:	f6 85 64 ff ff ff 40 	testb  $0x40,-0x9c(%ebp)
 80527fd:	0f 85 65 07 00 00    	jne    8052f68 <_svfiprintf_r+0xcd8>
 8052803:	8b 0b                	mov    (%ebx),%ecx
 8052805:	83 c3 04             	add    $0x4,%ebx
 8052808:	89 5d 14             	mov    %ebx,0x14(%ebp)
 805280b:	f6 85 64 ff ff ff 01 	testb  $0x1,-0x9c(%ebp)
 8052812:	ba 02 00 00 00       	mov    $0x2,%edx
 8052817:	0f 84 f3 fb ff ff    	je     8052410 <_svfiprintf_r+0x180>
 805281d:	85 c9                	test   %ecx,%ecx
 805281f:	0f 84 eb fb ff ff    	je     8052410 <_svfiprintf_r+0x180>
 8052825:	c6 85 72 ff ff ff 30 	movb   $0x30,-0x8e(%ebp)
 805282c:	88 85 73 ff ff ff    	mov    %al,-0x8d(%ebp)
 8052832:	83 8d 64 ff ff ff 02 	orl    $0x2,-0x9c(%ebp)
 8052839:	e9 d2 fb ff ff       	jmp    8052410 <_svfiprintf_r+0x180>
 805283e:	83 8d 64 ff ff ff 40 	orl    $0x40,-0x9c(%ebp)
 8052845:	89 d0                	mov    %edx,%eax
 8052847:	e9 3a fb ff ff       	jmp    8052386 <_svfiprintf_r+0xf6>
 805284c:	89 f8                	mov    %edi,%eax
 805284e:	89 55 10             	mov    %edx,0x10(%ebp)
 8052851:	88 85 71 ff ff ff    	mov    %al,-0x8f(%ebp)
 8052857:	e9 0f fe ff ff       	jmp    805266b <_svfiprintf_r+0x3db>
 805285c:	8b 45 14             	mov    0x14(%ebp),%eax
 805285f:	8d 5d 80             	lea    -0x80(%ebp),%ebx
 8052862:	89 55 10             	mov    %edx,0x10(%ebp)
 8052865:	c6 85 71 ff ff ff 00 	movb   $0x0,-0x8f(%ebp)
 805286c:	c7 85 60 ff ff ff 01 	movl   $0x1,-0xa0(%ebp)
 8052873:	00 00 00 
 8052876:	8b 00                	mov    (%eax),%eax
 8052878:	c7 85 58 ff ff ff 01 	movl   $0x1,-0xa8(%ebp)
 805287f:	00 00 00 
 8052882:	88 45 80             	mov    %al,-0x80(%ebp)
 8052885:	8b 45 14             	mov    0x14(%ebp),%eax
 8052888:	83 c0 04             	add    $0x4,%eax
 805288b:	89 45 14             	mov    %eax,0x14(%ebp)
 805288e:	c7 85 5c ff ff ff 00 	movl   $0x0,-0xa4(%ebp)
 8052895:	00 00 00 
 8052898:	e9 05 fc ff ff       	jmp    80524a2 <_svfiprintf_r+0x212>
 805289d:	89 fb                	mov    %edi,%ebx
 805289f:	89 55 10             	mov    %edx,0x10(%ebp)
 80528a2:	88 9d 71 ff ff ff    	mov    %bl,-0x8f(%ebp)
 80528a8:	c7 85 44 ff ff ff a8 	movl   $0x80564a8,-0xbc(%ebp)
 80528af:	64 05 08 
 80528b2:	e9 33 ff ff ff       	jmp    80527ea <_svfiprintf_r+0x55a>
 80528b7:	83 8d 64 ff ff ff 10 	orl    $0x10,-0x9c(%ebp)
 80528be:	f6 85 64 ff ff ff 10 	testb  $0x10,-0x9c(%ebp)
 80528c5:	89 55 10             	mov    %edx,0x10(%ebp)
 80528c8:	8b 45 14             	mov    0x14(%ebp),%eax
 80528cb:	75 39                	jne    8052906 <_svfiprintf_r+0x676>
 80528cd:	f6 85 64 ff ff ff 40 	testb  $0x40,-0x9c(%ebp)
 80528d4:	74 30                	je     8052906 <_svfiprintf_r+0x676>
 80528d6:	0f b7 08             	movzwl (%eax),%ecx
 80528d9:	83 c0 04             	add    $0x4,%eax
 80528dc:	ba 01 00 00 00       	mov    $0x1,%edx
 80528e1:	89 45 14             	mov    %eax,0x14(%ebp)
 80528e4:	e9 27 fb ff ff       	jmp    8052410 <_svfiprintf_r+0x180>
 80528e9:	83 8d 64 ff ff ff 01 	orl    $0x1,-0x9c(%ebp)
 80528f0:	89 d0                	mov    %edx,%eax
 80528f2:	e9 8f fa ff ff       	jmp    8052386 <_svfiprintf_r+0xf6>
 80528f7:	f6 85 64 ff ff ff 10 	testb  $0x10,-0x9c(%ebp)
 80528fe:	89 55 10             	mov    %edx,0x10(%ebp)
 8052901:	8b 45 14             	mov    0x14(%ebp),%eax
 8052904:	74 c7                	je     80528cd <_svfiprintf_r+0x63d>
 8052906:	8b 08                	mov    (%eax),%ecx
 8052908:	83 c0 04             	add    $0x4,%eax
 805290b:	ba 01 00 00 00       	mov    $0x1,%edx
 8052910:	89 45 14             	mov    %eax,0x14(%ebp)
 8052913:	e9 f8 fa ff ff       	jmp    8052410 <_svfiprintf_r+0x180>
 8052918:	8b 45 14             	mov    0x14(%ebp),%eax
 805291b:	89 55 10             	mov    %edx,0x10(%ebp)
 805291e:	c6 85 71 ff ff ff 00 	movb   $0x0,-0x8f(%ebp)
 8052925:	8b 18                	mov    (%eax),%ebx
 8052927:	8d 50 04             	lea    0x4(%eax),%edx
 805292a:	85 db                	test   %ebx,%ebx
 805292c:	0f 84 cc 06 00 00    	je     8052ffe <_svfiprintf_r+0xd6e>
 8052932:	8b bd 5c ff ff ff    	mov    -0xa4(%ebp),%edi
 8052938:	89 95 60 ff ff ff    	mov    %edx,-0xa0(%ebp)
 805293e:	85 ff                	test   %edi,%edi
 8052940:	0f 88 59 06 00 00    	js     8052f9f <_svfiprintf_r+0xd0f>
 8052946:	89 7c 24 08          	mov    %edi,0x8(%esp)
 805294a:	c7 44 24 04 00 00 00 	movl   $0x0,0x4(%esp)
 8052951:	00 
 8052952:	89 1c 24             	mov    %ebx,(%esp)
 8052955:	e8 06 e6 ff ff       	call   8050f60 <memchr>
 805295a:	8b 95 60 ff ff ff    	mov    -0xa0(%ebp),%edx
 8052960:	85 c0                	test   %eax,%eax
 8052962:	0f 84 c5 06 00 00    	je     805302d <_svfiprintf_r+0xd9d>
 8052968:	29 d8                	sub    %ebx,%eax
 805296a:	39 f8                	cmp    %edi,%eax
 805296c:	0f 4f c7             	cmovg  %edi,%eax
 805296f:	0f b6 bd 71 ff ff ff 	movzbl -0x8f(%ebp),%edi
 8052976:	89 85 58 ff ff ff    	mov    %eax,-0xa8(%ebp)
 805297c:	89 55 14             	mov    %edx,0x14(%ebp)
 805297f:	c7 85 5c ff ff ff 00 	movl   $0x0,-0xa4(%ebp)
 8052986:	00 00 00 
 8052989:	e9 f2 fa ff ff       	jmp    8052480 <_svfiprintf_r+0x1f0>
 805298e:	89 f8                	mov    %edi,%eax
 8052990:	84 c0                	test   %al,%al
 8052992:	b8 20 00 00 00       	mov    $0x20,%eax
 8052997:	0f 44 f8             	cmove  %eax,%edi
 805299a:	89 d0                	mov    %edx,%eax
 805299c:	e9 e5 f9 ff ff       	jmp    8052386 <_svfiprintf_r+0xf6>
 80529a1:	8d b4 26 00 00 00 00 	lea    0x0(%esi,%eiz,1),%esi
 80529a8:	8b 95 7c ff ff ff    	mov    -0x84(%ebp),%edx
 80529ae:	8b 85 78 ff ff ff    	mov    -0x88(%ebp),%eax
 80529b4:	80 bd 71 ff ff ff 00 	cmpb   $0x0,-0x8f(%ebp)
 80529bb:	74 2e                	je     80529eb <_svfiprintf_r+0x75b>
 80529bd:	83 c0 01             	add    $0x1,%eax
 80529c0:	83 c2 01             	add    $0x1,%edx
 80529c3:	8d 8d 71 ff ff ff    	lea    -0x8f(%ebp),%ecx
 80529c9:	83 c6 08             	add    $0x8,%esi
 80529cc:	89 4e f8             	mov    %ecx,-0x8(%esi)
 80529cf:	c7 46 fc 01 00 00 00 	movl   $0x1,-0x4(%esi)
 80529d6:	83 f8 07             	cmp    $0x7,%eax
 80529d9:	89 95 7c ff ff ff    	mov    %edx,-0x84(%ebp)
 80529df:	89 85 78 ff ff ff    	mov    %eax,-0x88(%ebp)
 80529e5:	0f 8f b5 04 00 00    	jg     8052ea0 <_svfiprintf_r+0xc10>
 80529eb:	8b 8d 4c ff ff ff    	mov    -0xb4(%ebp),%ecx
 80529f1:	85 c9                	test   %ecx,%ecx
 80529f3:	74 2e                	je     8052a23 <_svfiprintf_r+0x793>
 80529f5:	83 c0 01             	add    $0x1,%eax
 80529f8:	83 c2 02             	add    $0x2,%edx
 80529fb:	8d 8d 72 ff ff ff    	lea    -0x8e(%ebp),%ecx
 8052a01:	83 c6 08             	add    $0x8,%esi
 8052a04:	89 4e f8             	mov    %ecx,-0x8(%esi)
 8052a07:	c7 46 fc 02 00 00 00 	movl   $0x2,-0x4(%esi)
 8052a0e:	83 f8 07             	cmp    $0x7,%eax
 8052a11:	89 95 7c ff ff ff    	mov    %edx,-0x84(%ebp)
 8052a17:	89 85 78 ff ff ff    	mov    %eax,-0x88(%ebp)
 8052a1d:	0f 8f 45 04 00 00    	jg     8052e68 <_svfiprintf_r+0xbd8>
 8052a23:	81 bd 48 ff ff ff 80 	cmpl   $0x80,-0xb8(%ebp)
 8052a2a:	00 00 00 
 8052a2d:	0f 84 9d 02 00 00    	je     8052cd0 <_svfiprintf_r+0xa40>
 8052a33:	8b bd 5c ff ff ff    	mov    -0xa4(%ebp),%edi
 8052a39:	2b bd 58 ff ff ff    	sub    -0xa8(%ebp),%edi
 8052a3f:	85 ff                	test   %edi,%edi
 8052a41:	0f 8e e1 00 00 00    	jle    8052b28 <_svfiprintf_r+0x898>
 8052a47:	83 ff 10             	cmp    $0x10,%edi
 8052a4a:	0f 8e 7c 00 00 00    	jle    8052acc <_svfiprintf_r+0x83c>
 8052a50:	89 9d 5c ff ff ff    	mov    %ebx,-0xa4(%ebp)
 8052a56:	89 f1                	mov    %esi,%ecx
 8052a58:	8b 5d 08             	mov    0x8(%ebp),%ebx
 8052a5b:	8b 75 0c             	mov    0xc(%ebp),%esi
 8052a5e:	eb 08                	jmp    8052a68 <_svfiprintf_r+0x7d8>
 8052a60:	83 ef 10             	sub    $0x10,%edi
 8052a63:	83 ff 10             	cmp    $0x10,%edi
 8052a66:	7e 5c                	jle    8052ac4 <_svfiprintf_r+0x834>
 8052a68:	83 c0 01             	add    $0x1,%eax
 8052a6b:	83 c2 10             	add    $0x10,%edx
 8052a6e:	c7 01 0c 6b 05 08    	movl   $0x8056b0c,(%ecx)
 8052a74:	83 c1 08             	add    $0x8,%ecx
 8052a77:	c7 41 fc 10 00 00 00 	movl   $0x10,-0x4(%ecx)
 8052a7e:	83 f8 07             	cmp    $0x7,%eax
 8052a81:	89 95 7c ff ff ff    	mov    %edx,-0x84(%ebp)
 8052a87:	89 85 78 ff ff ff    	mov    %eax,-0x88(%ebp)
 8052a8d:	7e d1                	jle    8052a60 <_svfiprintf_r+0x7d0>
 8052a8f:	8d 85 74 ff ff ff    	lea    -0x8c(%ebp),%eax
 8052a95:	89 44 24 08          	mov    %eax,0x8(%esp)
 8052a99:	89 74 24 04          	mov    %esi,0x4(%esp)
 8052a9d:	89 1c 24             	mov    %ebx,(%esp)
 8052aa0:	e8 fb f5 ff ff       	call   80520a0 <__ssprint_r>
 8052aa5:	85 c0                	test   %eax,%eax
 8052aa7:	0f 85 eb 01 00 00    	jne    8052c98 <_svfiprintf_r+0xa08>
 8052aad:	83 ef 10             	sub    $0x10,%edi
 8052ab0:	8b 95 7c ff ff ff    	mov    -0x84(%ebp),%edx
 8052ab6:	83 ff 10             	cmp    $0x10,%edi
 8052ab9:	8b 85 78 ff ff ff    	mov    -0x88(%ebp),%eax
 8052abf:	8d 4d a8             	lea    -0x58(%ebp),%ecx
 8052ac2:	7f a4                	jg     8052a68 <_svfiprintf_r+0x7d8>
 8052ac4:	8b 9d 5c ff ff ff    	mov    -0xa4(%ebp),%ebx
 8052aca:	89 ce                	mov    %ecx,%esi
 8052acc:	83 c0 01             	add    $0x1,%eax
 8052acf:	01 fa                	add    %edi,%edx
 8052ad1:	c7 06 0c 6b 05 08    	movl   $0x8056b0c,(%esi)
 8052ad7:	83 c6 08             	add    $0x8,%esi
 8052ada:	89 7e fc             	mov    %edi,-0x4(%esi)
 8052add:	83 f8 07             	cmp    $0x7,%eax
 8052ae0:	89 95 7c ff ff ff    	mov    %edx,-0x84(%ebp)
 8052ae6:	89 85 78 ff ff ff    	mov    %eax,-0x88(%ebp)
 8052aec:	7e 3a                	jle    8052b28 <_svfiprintf_r+0x898>
 8052aee:	8d 85 74 ff ff ff    	lea    -0x8c(%ebp),%eax
 8052af4:	89 44 24 08          	mov    %eax,0x8(%esp)
 8052af8:	8b 45 0c             	mov    0xc(%ebp),%eax
 8052afb:	89 44 24 04          	mov    %eax,0x4(%esp)
 8052aff:	8b 45 08             	mov    0x8(%ebp),%eax
 8052b02:	89 04 24             	mov    %eax,(%esp)
 8052b05:	e8 96 f5 ff ff       	call   80520a0 <__ssprint_r>
 8052b0a:	85 c0                	test   %eax,%eax
 8052b0c:	0f 85 86 01 00 00    	jne    8052c98 <_svfiprintf_r+0xa08>
 8052b12:	8b 95 7c ff ff ff    	mov    -0x84(%ebp),%edx
 8052b18:	8d 75 a8             	lea    -0x58(%ebp),%esi
 8052b1b:	8b 85 78 ff ff ff    	mov    -0x88(%ebp),%eax
 8052b21:	8d b4 26 00 00 00 00 	lea    0x0(%esi,%eiz,1),%esi
 8052b28:	89 1e                	mov    %ebx,(%esi)
 8052b2a:	8b 9d 58 ff ff ff    	mov    -0xa8(%ebp),%ebx
 8052b30:	83 c0 01             	add    $0x1,%eax
 8052b33:	83 c6 08             	add    $0x8,%esi
 8052b36:	89 85 78 ff ff ff    	mov    %eax,-0x88(%ebp)
 8052b3c:	89 5e fc             	mov    %ebx,-0x4(%esi)
 8052b3f:	01 da                	add    %ebx,%edx
 8052b41:	83 f8 07             	cmp    $0x7,%eax
 8052b44:	89 95 7c ff ff ff    	mov    %edx,-0x84(%ebp)
 8052b4a:	0f 8f 80 02 00 00    	jg     8052dd0 <_svfiprintf_r+0xb40>
 8052b50:	f6 85 64 ff ff ff 04 	testb  $0x4,-0x9c(%ebp)
 8052b57:	0f 84 b9 00 00 00    	je     8052c16 <_svfiprintf_r+0x986>
 8052b5d:	8b bd 54 ff ff ff    	mov    -0xac(%ebp),%edi
 8052b63:	2b bd 60 ff ff ff    	sub    -0xa0(%ebp),%edi
 8052b69:	85 ff                	test   %edi,%edi
 8052b6b:	0f 8e a5 00 00 00    	jle    8052c16 <_svfiprintf_r+0x986>
 8052b71:	83 ff 10             	cmp    $0x10,%edi
 8052b74:	8b 85 78 ff ff ff    	mov    -0x88(%ebp),%eax
 8052b7a:	8d 9d 74 ff ff ff    	lea    -0x8c(%ebp),%ebx
 8052b80:	7e 71                	jle    8052bf3 <_svfiprintf_r+0x963>
 8052b82:	89 f1                	mov    %esi,%ecx
 8052b84:	8b 75 08             	mov    0x8(%ebp),%esi
 8052b87:	eb 0f                	jmp    8052b98 <_svfiprintf_r+0x908>
 8052b89:	8d b4 26 00 00 00 00 	lea    0x0(%esi,%eiz,1),%esi
 8052b90:	83 ef 10             	sub    $0x10,%edi
 8052b93:	83 ff 10             	cmp    $0x10,%edi
 8052b96:	7e 59                	jle    8052bf1 <_svfiprintf_r+0x961>
 8052b98:	83 c0 01             	add    $0x1,%eax
 8052b9b:	83 c2 10             	add    $0x10,%edx
 8052b9e:	c7 01 1c 6b 05 08    	movl   $0x8056b1c,(%ecx)
 8052ba4:	83 c1 08             	add    $0x8,%ecx
 8052ba7:	c7 41 fc 10 00 00 00 	movl   $0x10,-0x4(%ecx)
 8052bae:	83 f8 07             	cmp    $0x7,%eax
 8052bb1:	89 95 7c ff ff ff    	mov    %edx,-0x84(%ebp)
 8052bb7:	89 85 78 ff ff ff    	mov    %eax,-0x88(%ebp)
 8052bbd:	7e d1                	jle    8052b90 <_svfiprintf_r+0x900>
 8052bbf:	8b 45 0c             	mov    0xc(%ebp),%eax
 8052bc2:	89 5c 24 08          	mov    %ebx,0x8(%esp)
 8052bc6:	89 34 24             	mov    %esi,(%esp)
 8052bc9:	89 44 24 04          	mov    %eax,0x4(%esp)
 8052bcd:	e8 ce f4 ff ff       	call   80520a0 <__ssprint_r>
 8052bd2:	85 c0                	test   %eax,%eax
 8052bd4:	0f 85 be 00 00 00    	jne    8052c98 <_svfiprintf_r+0xa08>
 8052bda:	83 ef 10             	sub    $0x10,%edi
 8052bdd:	8b 95 7c ff ff ff    	mov    -0x84(%ebp),%edx
 8052be3:	83 ff 10             	cmp    $0x10,%edi
 8052be6:	8b 85 78 ff ff ff    	mov    -0x88(%ebp),%eax
 8052bec:	8d 4d a8             	lea    -0x58(%ebp),%ecx
 8052bef:	7f a7                	jg     8052b98 <_svfiprintf_r+0x908>
 8052bf1:	89 ce                	mov    %ecx,%esi
 8052bf3:	83 c0 01             	add    $0x1,%eax
 8052bf6:	01 fa                	add    %edi,%edx
 8052bf8:	83 f8 07             	cmp    $0x7,%eax
 8052bfb:	c7 06 1c 6b 05 08    	movl   $0x8056b1c,(%esi)
 8052c01:	89 7e 04             	mov    %edi,0x4(%esi)
 8052c04:	89 95 7c ff ff ff    	mov    %edx,-0x84(%ebp)
 8052c0a:	89 85 78 ff ff ff    	mov    %eax,-0x88(%ebp)
 8052c10:	0f 8f ee 02 00 00    	jg     8052f04 <_svfiprintf_r+0xc74>
 8052c16:	8b 85 54 ff ff ff    	mov    -0xac(%ebp),%eax
 8052c1c:	8b b5 60 ff ff ff    	mov    -0xa0(%ebp),%esi
 8052c22:	39 c6                	cmp    %eax,%esi
 8052c24:	0f 4d c6             	cmovge %esi,%eax
 8052c27:	01 85 50 ff ff ff    	add    %eax,-0xb0(%ebp)
 8052c2d:	85 d2                	test   %edx,%edx
 8052c2f:	0f 85 d3 01 00 00    	jne    8052e08 <_svfiprintf_r+0xb78>
 8052c35:	c7 85 78 ff ff ff 00 	movl   $0x0,-0x88(%ebp)
 8052c3c:	00 00 00 
 8052c3f:	8d 75 a8             	lea    -0x58(%ebp),%esi
 8052c42:	e9 a7 f6 ff ff       	jmp    80522ee <_svfiprintf_r+0x5e>
 8052c47:	90                   	nop
 8052c48:	84 d2                	test   %dl,%dl
 8052c4a:	75 6c                	jne    8052cb8 <_svfiprintf_r+0xa28>
 8052c4c:	f6 85 64 ff ff ff 01 	testb  $0x1,-0x9c(%ebp)
 8052c53:	74 63                	je     8052cb8 <_svfiprintf_r+0xa28>
 8052c55:	8b 85 3c ff ff ff    	mov    -0xc4(%ebp),%eax
 8052c5b:	8d 5d a7             	lea    -0x59(%ebp),%ebx
 8052c5e:	c6 45 a7 30          	movb   $0x30,-0x59(%ebp)
 8052c62:	89 85 58 ff ff ff    	mov    %eax,-0xa8(%ebp)
 8052c68:	e9 13 f8 ff ff       	jmp    8052480 <_svfiprintf_r+0x1f0>
 8052c6d:	8b 85 7c ff ff ff    	mov    -0x84(%ebp),%eax
 8052c73:	85 c0                	test   %eax,%eax
 8052c75:	74 21                	je     8052c98 <_svfiprintf_r+0xa08>
 8052c77:	8d 85 74 ff ff ff    	lea    -0x8c(%ebp),%eax
 8052c7d:	89 44 24 08          	mov    %eax,0x8(%esp)
 8052c81:	8b 45 0c             	mov    0xc(%ebp),%eax
 8052c84:	89 44 24 04          	mov    %eax,0x4(%esp)
 8052c88:	8b 45 08             	mov    0x8(%ebp),%eax
 8052c8b:	89 04 24             	mov    %eax,(%esp)
 8052c8e:	e8 0d f4 ff ff       	call   80520a0 <__ssprint_r>
 8052c93:	90                   	nop
 8052c94:	8d 74 26 00          	lea    0x0(%esi,%eiz,1),%esi
 8052c98:	8b 75 0c             	mov    0xc(%ebp),%esi
 8052c9b:	b8 ff ff ff ff       	mov    $0xffffffff,%eax
 8052ca0:	f6 46 0c 40          	testb  $0x40,0xc(%esi)
 8052ca4:	0f 44 85 50 ff ff ff 	cmove  -0xb0(%ebp),%eax
 8052cab:	81 c4 cc 00 00 00    	add    $0xcc,%esp
 8052cb1:	5b                   	pop    %ebx
 8052cb2:	5e                   	pop    %esi
 8052cb3:	5f                   	pop    %edi
 8052cb4:	5d                   	pop    %ebp
 8052cb5:	c3                   	ret    
 8052cb6:	66 90                	xchg   %ax,%ax
 8052cb8:	c7 85 58 ff ff ff 00 	movl   $0x0,-0xa8(%ebp)
 8052cbf:	00 00 00 
 8052cc2:	8d 5d a8             	lea    -0x58(%ebp),%ebx
 8052cc5:	e9 b6 f7 ff ff       	jmp    8052480 <_svfiprintf_r+0x1f0>
 8052cca:	8d b6 00 00 00 00    	lea    0x0(%esi),%esi
 8052cd0:	8b bd 54 ff ff ff    	mov    -0xac(%ebp),%edi
 8052cd6:	2b bd 60 ff ff ff    	sub    -0xa0(%ebp),%edi
 8052cdc:	85 ff                	test   %edi,%edi
 8052cde:	0f 8e 4f fd ff ff    	jle    8052a33 <_svfiprintf_r+0x7a3>
 8052ce4:	83 ff 10             	cmp    $0x10,%edi
 8052ce7:	0f 8e 7f 00 00 00    	jle    8052d6c <_svfiprintf_r+0xadc>
 8052ced:	89 9d 4c ff ff ff    	mov    %ebx,-0xb4(%ebp)
 8052cf3:	89 f1                	mov    %esi,%ecx
 8052cf5:	8b 5d 08             	mov    0x8(%ebp),%ebx
 8052cf8:	8b 75 0c             	mov    0xc(%ebp),%esi
 8052cfb:	eb 0b                	jmp    8052d08 <_svfiprintf_r+0xa78>
 8052cfd:	8d 76 00             	lea    0x0(%esi),%esi
 8052d00:	83 ef 10             	sub    $0x10,%edi
 8052d03:	83 ff 10             	cmp    $0x10,%edi
 8052d06:	7e 5c                	jle    8052d64 <_svfiprintf_r+0xad4>
 8052d08:	83 c0 01             	add    $0x1,%eax
 8052d0b:	83 c2 10             	add    $0x10,%edx
 8052d0e:	c7 01 0c 6b 05 08    	movl   $0x8056b0c,(%ecx)
 8052d14:	83 c1 08             	add    $0x8,%ecx
 8052d17:	c7 41 fc 10 00 00 00 	movl   $0x10,-0x4(%ecx)
 8052d1e:	83 f8 07             	cmp    $0x7,%eax
 8052d21:	89 95 7c ff ff ff    	mov    %edx,-0x84(%ebp)
 8052d27:	89 85 78 ff ff ff    	mov    %eax,-0x88(%ebp)
 8052d2d:	7e d1                	jle    8052d00 <_svfiprintf_r+0xa70>
 8052d2f:	8d 85 74 ff ff ff    	lea    -0x8c(%ebp),%eax
 8052d35:	89 44 24 08          	mov    %eax,0x8(%esp)
 8052d39:	89 74 24 04          	mov    %esi,0x4(%esp)
 8052d3d:	89 1c 24             	mov    %ebx,(%esp)
 8052d40:	e8 5b f3 ff ff       	call   80520a0 <__ssprint_r>
 8052d45:	85 c0                	test   %eax,%eax
 8052d47:	0f 85 4b ff ff ff    	jne    8052c98 <_svfiprintf_r+0xa08>
 8052d4d:	83 ef 10             	sub    $0x10,%edi
 8052d50:	8b 95 7c ff ff ff    	mov    -0x84(%ebp),%edx
 8052d56:	83 ff 10             	cmp    $0x10,%edi
 8052d59:	8b 85 78 ff ff ff    	mov    -0x88(%ebp),%eax
 8052d5f:	8d 4d a8             	lea    -0x58(%ebp),%ecx
 8052d62:	7f a4                	jg     8052d08 <_svfiprintf_r+0xa78>
 8052d64:	8b 9d 4c ff ff ff    	mov    -0xb4(%ebp),%ebx
 8052d6a:	89 ce                	mov    %ecx,%esi
 8052d6c:	83 c0 01             	add    $0x1,%eax
 8052d6f:	01 fa                	add    %edi,%edx
 8052d71:	c7 06 0c 6b 05 08    	movl   $0x8056b0c,(%esi)
 8052d77:	83 c6 08             	add    $0x8,%esi
 8052d7a:	89 7e fc             	mov    %edi,-0x4(%esi)
 8052d7d:	83 f8 07             	cmp    $0x7,%eax
 8052d80:	89 95 7c ff ff ff    	mov    %edx,-0x84(%ebp)
 8052d86:	89 85 78 ff ff ff    	mov    %eax,-0x88(%ebp)
 8052d8c:	0f 8e a1 fc ff ff    	jle    8052a33 <_svfiprintf_r+0x7a3>
 8052d92:	8d 85 74 ff ff ff    	lea    -0x8c(%ebp),%eax
 8052d98:	89 44 24 08          	mov    %eax,0x8(%esp)
 8052d9c:	8b 45 0c             	mov    0xc(%ebp),%eax
 8052d9f:	89 44 24 04          	mov    %eax,0x4(%esp)
 8052da3:	8b 45 08             	mov    0x8(%ebp),%eax
 8052da6:	89 04 24             	mov    %eax,(%esp)
 8052da9:	e8 f2 f2 ff ff       	call   80520a0 <__ssprint_r>
 8052dae:	85 c0                	test   %eax,%eax
 8052db0:	0f 85 e2 fe ff ff    	jne    8052c98 <_svfiprintf_r+0xa08>
 8052db6:	8b 95 7c ff ff ff    	mov    -0x84(%ebp),%edx
 8052dbc:	8d 75 a8             	lea    -0x58(%ebp),%esi
 8052dbf:	8b 85 78 ff ff ff    	mov    -0x88(%ebp),%eax
 8052dc5:	e9 69 fc ff ff       	jmp    8052a33 <_svfiprintf_r+0x7a3>
 8052dca:	8d b6 00 00 00 00    	lea    0x0(%esi),%esi
 8052dd0:	8d 85 74 ff ff ff    	lea    -0x8c(%ebp),%eax
 8052dd6:	89 44 24 08          	mov    %eax,0x8(%esp)
 8052dda:	8b 45 0c             	mov    0xc(%ebp),%eax
 8052ddd:	89 44 24 04          	mov    %eax,0x4(%esp)
 8052de1:	8b 45 08             	mov    0x8(%ebp),%eax
 8052de4:	89 04 24             	mov    %eax,(%esp)
 8052de7:	e8 b4 f2 ff ff       	call   80520a0 <__ssprint_r>
 8052dec:	85 c0                	test   %eax,%eax
 8052dee:	0f 85 a4 fe ff ff    	jne    8052c98 <_svfiprintf_r+0xa08>
 8052df4:	8b 95 7c ff ff ff    	mov    -0x84(%ebp),%edx
 8052dfa:	8d 75 a8             	lea    -0x58(%ebp),%esi
 8052dfd:	e9 4e fd ff ff       	jmp    8052b50 <_svfiprintf_r+0x8c0>
 8052e02:	8d b6 00 00 00 00    	lea    0x0(%esi),%esi
 8052e08:	8d 85 74 ff ff ff    	lea    -0x8c(%ebp),%eax
 8052e0e:	89 44 24 08          	mov    %eax,0x8(%esp)
 8052e12:	8b 45 0c             	mov    0xc(%ebp),%eax
 8052e15:	89 44 24 04          	mov    %eax,0x4(%esp)
 8052e19:	8b 45 08             	mov    0x8(%ebp),%eax
 8052e1c:	89 04 24             	mov    %eax,(%esp)
 8052e1f:	e8 7c f2 ff ff       	call   80520a0 <__ssprint_r>
 8052e24:	85 c0                	test   %eax,%eax
 8052e26:	0f 84 09 fe ff ff    	je     8052c35 <_svfiprintf_r+0x9a5>
 8052e2c:	e9 67 fe ff ff       	jmp    8052c98 <_svfiprintf_r+0xa08>
 8052e31:	8d b4 26 00 00 00 00 	lea    0x0(%esi,%eiz,1),%esi
 8052e38:	8d 85 74 ff ff ff    	lea    -0x8c(%ebp),%eax
 8052e3e:	89 44 24 08          	mov    %eax,0x8(%esp)
 8052e42:	8b 45 0c             	mov    0xc(%ebp),%eax
 8052e45:	89 44 24 04          	mov    %eax,0x4(%esp)
 8052e49:	8b 45 08             	mov    0x8(%ebp),%eax
 8052e4c:	89 04 24             	mov    %eax,(%esp)
 8052e4f:	e8 4c f2 ff ff       	call   80520a0 <__ssprint_r>
 8052e54:	85 c0                	test   %eax,%eax
 8052e56:	0f 85 3c fe ff ff    	jne    8052c98 <_svfiprintf_r+0xa08>
 8052e5c:	8d 75 a8             	lea    -0x58(%ebp),%esi
 8052e5f:	e9 e9 f4 ff ff       	jmp    805234d <_svfiprintf_r+0xbd>
 8052e64:	8d 74 26 00          	lea    0x0(%esi,%eiz,1),%esi
 8052e68:	8d 85 74 ff ff ff    	lea    -0x8c(%ebp),%eax
 8052e6e:	89 44 24 08          	mov    %eax,0x8(%esp)
 8052e72:	8b 45 0c             	mov    0xc(%ebp),%eax
 8052e75:	89 44 24 04          	mov    %eax,0x4(%esp)
 8052e79:	8b 45 08             	mov    0x8(%ebp),%eax
 8052e7c:	89 04 24             	mov    %eax,(%esp)
 8052e7f:	e8 1c f2 ff ff       	call   80520a0 <__ssprint_r>
 8052e84:	85 c0                	test   %eax,%eax
 8052e86:	0f 85 0c fe ff ff    	jne    8052c98 <_svfiprintf_r+0xa08>
 8052e8c:	8b 95 7c ff ff ff    	mov    -0x84(%ebp),%edx
 8052e92:	8d 75 a8             	lea    -0x58(%ebp),%esi
 8052e95:	8b 85 78 ff ff ff    	mov    -0x88(%ebp),%eax
 8052e9b:	e9 83 fb ff ff       	jmp    8052a23 <_svfiprintf_r+0x793>
 8052ea0:	8d 85 74 ff ff ff    	lea    -0x8c(%ebp),%eax
 8052ea6:	89 44 24 08          	mov    %eax,0x8(%esp)
 8052eaa:	8b 45 0c             	mov    0xc(%ebp),%eax
 8052ead:	89 44 24 04          	mov    %eax,0x4(%esp)
 8052eb1:	8b 45 08             	mov    0x8(%ebp),%eax
 8052eb4:	89 04 24             	mov    %eax,(%esp)
 8052eb7:	e8 e4 f1 ff ff       	call   80520a0 <__ssprint_r>
 8052ebc:	85 c0                	test   %eax,%eax
 8052ebe:	0f 85 d4 fd ff ff    	jne    8052c98 <_svfiprintf_r+0xa08>
 8052ec4:	8b 95 7c ff ff ff    	mov    -0x84(%ebp),%edx
 8052eca:	8d 75 a8             	lea    -0x58(%ebp),%esi
 8052ecd:	8b 85 78 ff ff ff    	mov    -0x88(%ebp),%eax
 8052ed3:	e9 13 fb ff ff       	jmp    80529eb <_svfiprintf_r+0x75b>
 8052ed8:	83 f9 09             	cmp    $0x9,%ecx
 8052edb:	76 56                	jbe    8052f33 <_svfiprintf_r+0xca3>
 8052edd:	8d 5d a8             	lea    -0x58(%ebp),%ebx
 8052ee0:	b8 cd cc cc cc       	mov    $0xcccccccd,%eax
 8052ee5:	83 eb 01             	sub    $0x1,%ebx
 8052ee8:	f7 e1                	mul    %ecx
 8052eea:	c1 ea 03             	shr    $0x3,%edx
 8052eed:	8d 04 92             	lea    (%edx,%edx,4),%eax
 8052ef0:	01 c0                	add    %eax,%eax
 8052ef2:	29 c1                	sub    %eax,%ecx
 8052ef4:	83 c1 30             	add    $0x30,%ecx
 8052ef7:	85 d2                	test   %edx,%edx
 8052ef9:	88 0b                	mov    %cl,(%ebx)
 8052efb:	89 d1                	mov    %edx,%ecx
 8052efd:	75 e1                	jne    8052ee0 <_svfiprintf_r+0xc50>
 8052eff:	e9 71 f5 ff ff       	jmp    8052475 <_svfiprintf_r+0x1e5>
 8052f04:	8d 85 74 ff ff ff    	lea    -0x8c(%ebp),%eax
 8052f0a:	89 44 24 08          	mov    %eax,0x8(%esp)
 8052f0e:	8b 45 0c             	mov    0xc(%ebp),%eax
 8052f11:	89 44 24 04          	mov    %eax,0x4(%esp)
 8052f15:	8b 45 08             	mov    0x8(%ebp),%eax
 8052f18:	89 04 24             	mov    %eax,(%esp)
 8052f1b:	e8 80 f1 ff ff       	call   80520a0 <__ssprint_r>
 8052f20:	85 c0                	test   %eax,%eax
 8052f22:	0f 85 70 fd ff ff    	jne    8052c98 <_svfiprintf_r+0xa08>
 8052f28:	8b 95 7c ff ff ff    	mov    -0x84(%ebp),%edx
 8052f2e:	e9 e3 fc ff ff       	jmp    8052c16 <_svfiprintf_r+0x986>
 8052f33:	8b 85 3c ff ff ff    	mov    -0xc4(%ebp),%eax
 8052f39:	83 c1 30             	add    $0x30,%ecx
 8052f3c:	88 4d a7             	mov    %cl,-0x59(%ebp)
 8052f3f:	8d 5d a7             	lea    -0x59(%ebp),%ebx
 8052f42:	89 85 58 ff ff ff    	mov    %eax,-0xa8(%ebp)
 8052f48:	e9 33 f5 ff ff       	jmp    8052480 <_svfiprintf_r+0x1f0>
 8052f4d:	8b 45 14             	mov    0x14(%ebp),%eax
 8052f50:	8b 9d 50 ff ff ff    	mov    -0xb0(%ebp),%ebx
 8052f56:	8b 00                	mov    (%eax),%eax
 8052f58:	89 18                	mov    %ebx,(%eax)
 8052f5a:	8b 45 14             	mov    0x14(%ebp),%eax
 8052f5d:	83 c0 04             	add    $0x4,%eax
 8052f60:	89 45 14             	mov    %eax,0x14(%ebp)
 8052f63:	e9 86 f3 ff ff       	jmp    80522ee <_svfiprintf_r+0x5e>
 8052f68:	0f b7 0b             	movzwl (%ebx),%ecx
 8052f6b:	83 c3 04             	add    $0x4,%ebx
 8052f6e:	89 5d 14             	mov    %ebx,0x14(%ebp)
 8052f71:	e9 95 f8 ff ff       	jmp    805280b <_svfiprintf_r+0x57b>
 8052f76:	0f bf 08             	movswl (%eax),%ecx
 8052f79:	83 c0 04             	add    $0x4,%eax
 8052f7c:	89 45 14             	mov    %eax,0x14(%ebp)
 8052f7f:	85 c9                	test   %ecx,%ecx
 8052f81:	0f 89 0d f7 ff ff    	jns    8052694 <_svfiprintf_r+0x404>
 8052f87:	f7 d9                	neg    %ecx
 8052f89:	bf 2d 00 00 00       	mov    $0x2d,%edi
 8052f8e:	c6 85 71 ff ff ff 2d 	movb   $0x2d,-0x8f(%ebp)
 8052f95:	ba 01 00 00 00       	mov    $0x1,%edx
 8052f9a:	e9 7a f4 ff ff       	jmp    8052419 <_svfiprintf_r+0x189>
 8052f9f:	89 1c 24             	mov    %ebx,(%esp)
 8052fa2:	e8 09 76 ff ff       	call   804a5b0 <strlen>
 8052fa7:	8b 95 60 ff ff ff    	mov    -0xa0(%ebp),%edx
 8052fad:	0f b6 bd 71 ff ff ff 	movzbl -0x8f(%ebp),%edi
 8052fb4:	c7 85 5c ff ff ff 00 	movl   $0x0,-0xa4(%ebp)
 8052fbb:	00 00 00 
 8052fbe:	89 55 14             	mov    %edx,0x14(%ebp)
 8052fc1:	89 85 58 ff ff ff    	mov    %eax,-0xa8(%ebp)
 8052fc7:	e9 b4 f4 ff ff       	jmp    8052480 <_svfiprintf_r+0x1f0>
 8052fcc:	8b 45 08             	mov    0x8(%ebp),%eax
 8052fcf:	c7 44 24 04 40 00 00 	movl   $0x40,0x4(%esp)
 8052fd6:	00 
 8052fd7:	89 04 24             	mov    %eax,(%esp)
 8052fda:	e8 41 d8 ff ff       	call   8050820 <_malloc_r>
 8052fdf:	8b 75 0c             	mov    0xc(%ebp),%esi
 8052fe2:	85 c0                	test   %eax,%eax
 8052fe4:	89 06                	mov    %eax,(%esi)
 8052fe6:	89 46 10             	mov    %eax,0x10(%esi)
 8052fe9:	0f 84 a3 00 00 00    	je     8053092 <_svfiprintf_r+0xe02>
 8052fef:	8b 45 0c             	mov    0xc(%ebp),%eax
 8052ff2:	c7 40 14 40 00 00 00 	movl   $0x40,0x14(%eax)
 8052ff9:	e9 b2 f2 ff ff       	jmp    80522b0 <_svfiprintf_r+0x20>
 8052ffe:	8b bd 5c ff ff ff    	mov    -0xa4(%ebp),%edi
 8053004:	b8 06 00 00 00       	mov    $0x6,%eax
 8053009:	89 55 14             	mov    %edx,0x14(%ebp)
 805300c:	83 ff 06             	cmp    $0x6,%edi
 805300f:	0f 46 c7             	cmovbe %edi,%eax
 8053012:	85 c0                	test   %eax,%eax
 8053014:	0f 49 d8             	cmovns %eax,%ebx
 8053017:	89 9d 60 ff ff ff    	mov    %ebx,-0xa0(%ebp)
 805301d:	bb ca 64 05 08       	mov    $0x80564ca,%ebx
 8053022:	89 85 58 ff ff ff    	mov    %eax,-0xa8(%ebp)
 8053028:	e9 61 f8 ff ff       	jmp    805288e <_svfiprintf_r+0x5fe>
 805302d:	8b 85 5c ff ff ff    	mov    -0xa4(%ebp),%eax
 8053033:	0f b6 bd 71 ff ff ff 	movzbl -0x8f(%ebp),%edi
 805303a:	89 55 14             	mov    %edx,0x14(%ebp)
 805303d:	c7 85 5c ff ff ff 00 	movl   $0x0,-0xa4(%ebp)
 8053044:	00 00 00 
 8053047:	89 85 58 ff ff ff    	mov    %eax,-0xa8(%ebp)
 805304d:	e9 2e f4 ff ff       	jmp    8052480 <_svfiprintf_r+0x1f0>
 8053052:	89 da                	mov    %ebx,%edx
 8053054:	c7 85 5c ff ff ff 00 	movl   $0x0,-0xa4(%ebp)
 805305b:	00 00 00 
 805305e:	e9 29 f3 ff ff       	jmp    805238c <_svfiprintf_r+0xfc>
 8053063:	8b 4d 14             	mov    0x14(%ebp),%ecx
 8053066:	89 da                	mov    %ebx,%edx
 8053068:	8b 45 14             	mov    0x14(%ebp),%eax
 805306b:	8b 09                	mov    (%ecx),%ecx
 805306d:	83 c0 04             	add    $0x4,%eax
 8053070:	89 45 14             	mov    %eax,0x14(%ebp)
 8053073:	85 c9                	test   %ecx,%ecx
 8053075:	89 8d 5c ff ff ff    	mov    %ecx,-0xa4(%ebp)
 805307b:	0f 89 26 f3 ff ff    	jns    80523a7 <_svfiprintf_r+0x117>
 8053081:	c7 85 5c ff ff ff ff 	movl   $0xffffffff,-0xa4(%ebp)
 8053088:	ff ff ff 
 805308b:	89 d0                	mov    %edx,%eax
 805308d:	e9 f4 f2 ff ff       	jmp    8052386 <_svfiprintf_r+0xf6>
 8053092:	8b 45 08             	mov    0x8(%ebp),%eax
 8053095:	c7 00 0c 00 00 00    	movl   $0xc,(%eax)
 805309b:	b8 ff ff ff ff       	mov    $0xffffffff,%eax
 80530a0:	e9 06 fc ff ff       	jmp    8052cab <_svfiprintf_r+0xa1b>
 80530a5:	66 90                	xchg   %ax,%ax
 80530a7:	66 90                	xchg   %ax,%ax
 80530a9:	66 90                	xchg   %ax,%ax
 80530ab:	66 90                	xchg   %ax,%ax
 80530ad:	66 90                	xchg   %ax,%ax
 80530af:	90                   	nop

080530b0 <__sprint_r.part.0>:
 80530b0:	55                   	push   %ebp
 80530b1:	89 e5                	mov    %esp,%ebp
 80530b3:	57                   	push   %edi
 80530b4:	56                   	push   %esi
 80530b5:	53                   	push   %ebx
 80530b6:	83 ec 2c             	sub    $0x2c,%esp
 80530b9:	f6 42 65 20          	testb  $0x20,0x65(%edx)
 80530bd:	89 45 e4             	mov    %eax,-0x1c(%ebp)
 80530c0:	89 c8                	mov    %ecx,%eax
 80530c2:	89 4d dc             	mov    %ecx,-0x24(%ebp)
 80530c5:	0f 84 a5 00 00 00    	je     8053170 <__sprint_r.part.0+0xc0>
 80530cb:	8b 40 08             	mov    0x8(%eax),%eax
 80530ce:	8b 09                	mov    (%ecx),%ecx
 80530d0:	85 c0                	test   %eax,%eax
 80530d2:	89 4d d8             	mov    %ecx,-0x28(%ebp)
 80530d5:	0f 84 8a 00 00 00    	je     8053165 <__sprint_r.part.0+0xb5>
 80530db:	89 55 d4             	mov    %edx,-0x2c(%ebp)
 80530de:	8b 45 d8             	mov    -0x28(%ebp),%eax
 80530e1:	31 ff                	xor    %edi,%edi
 80530e3:	8b 58 04             	mov    0x4(%eax),%ebx
 80530e6:	8b 30                	mov    (%eax),%esi
 80530e8:	c1 eb 02             	shr    $0x2,%ebx
 80530eb:	85 db                	test   %ebx,%ebx
 80530ed:	7e 5c                	jle    805314b <__sprint_r.part.0+0x9b>
 80530ef:	89 5d e0             	mov    %ebx,-0x20(%ebp)
 80530f2:	89 f3                	mov    %esi,%ebx
 80530f4:	89 fe                	mov    %edi,%esi
 80530f6:	8b 7d d4             	mov    -0x2c(%ebp),%edi
 80530f9:	eb 0d                	jmp    8053108 <__sprint_r.part.0+0x58>
 80530fb:	90                   	nop
 80530fc:	8d 74 26 00          	lea    0x0(%esi,%eiz,1),%esi
 8053100:	83 c6 01             	add    $0x1,%esi
 8053103:	39 75 e0             	cmp    %esi,-0x20(%ebp)
 8053106:	74 40                	je     8053148 <__sprint_r.part.0+0x98>
 8053108:	89 7c 24 08          	mov    %edi,0x8(%esp)
 805310c:	8b 04 b3             	mov    (%ebx,%esi,4),%eax
 805310f:	89 44 24 04          	mov    %eax,0x4(%esp)
 8053113:	8b 45 e4             	mov    -0x1c(%ebp),%eax
 8053116:	89 04 24             	mov    %eax,(%esp)
 8053119:	e8 b2 13 00 00       	call   80544d0 <_fputwc_r>
 805311e:	83 f8 ff             	cmp    $0xffffffff,%eax
 8053121:	75 dd                	jne    8053100 <__sprint_r.part.0+0x50>
 8053123:	b8 ff ff ff ff       	mov    $0xffffffff,%eax
 8053128:	8b 55 dc             	mov    -0x24(%ebp),%edx
 805312b:	c7 42 08 00 00 00 00 	movl   $0x0,0x8(%edx)
 8053132:	c7 42 04 00 00 00 00 	movl   $0x0,0x4(%edx)
 8053139:	83 c4 2c             	add    $0x2c,%esp
 805313c:	5b                   	pop    %ebx
 805313d:	5e                   	pop    %esi
 805313e:	5f                   	pop    %edi
 805313f:	5d                   	pop    %ebp
 8053140:	c3                   	ret    
 8053141:	8d b4 26 00 00 00 00 	lea    0x0(%esi,%eiz,1),%esi
 8053148:	8b 5d e0             	mov    -0x20(%ebp),%ebx
 805314b:	8b 4d dc             	mov    -0x24(%ebp),%ecx
 805314e:	c1 e3 02             	shl    $0x2,%ebx
 8053151:	83 45 d8 08          	addl   $0x8,-0x28(%ebp)
 8053155:	8b 41 08             	mov    0x8(%ecx),%eax
 8053158:	29 d8                	sub    %ebx,%eax
 805315a:	85 c0                	test   %eax,%eax
 805315c:	89 41 08             	mov    %eax,0x8(%ecx)
 805315f:	0f 85 79 ff ff ff    	jne    80530de <__sprint_r.part.0+0x2e>
 8053165:	31 c0                	xor    %eax,%eax
 8053167:	eb bf                	jmp    8053128 <__sprint_r.part.0+0x78>
 8053169:	8d b4 26 00 00 00 00 	lea    0x0(%esi,%eiz,1),%esi
 8053170:	8b 45 dc             	mov    -0x24(%ebp),%eax
 8053173:	89 54 24 04          	mov    %edx,0x4(%esp)
 8053177:	89 44 24 08          	mov    %eax,0x8(%esp)
 805317b:	8b 45 e4             	mov    -0x1c(%ebp),%eax
 805317e:	89 04 24             	mov    %eax,(%esp)
 8053181:	e8 1a 15 00 00       	call   80546a0 <__sfvwrite_r>
 8053186:	eb a0                	jmp    8053128 <__sprint_r.part.0+0x78>
 8053188:	90                   	nop
 8053189:	8d b4 26 00 00 00 00 	lea    0x0(%esi,%eiz,1),%esi

08053190 <__sprint_r>:
 8053190:	55                   	push   %ebp
 8053191:	89 e5                	mov    %esp,%ebp
 8053193:	8b 4d 10             	mov    0x10(%ebp),%ecx
 8053196:	8b 45 08             	mov    0x8(%ebp),%eax
 8053199:	8b 55 0c             	mov    0xc(%ebp),%edx
 805319c:	83 79 08 00          	cmpl   $0x0,0x8(%ecx)
 80531a0:	74 06                	je     80531a8 <__sprint_r+0x18>
 80531a2:	5d                   	pop    %ebp
 80531a3:	e9 08 ff ff ff       	jmp    80530b0 <__sprint_r.part.0>
 80531a8:	c7 41 04 00 00 00 00 	movl   $0x0,0x4(%ecx)
 80531af:	31 c0                	xor    %eax,%eax
 80531b1:	5d                   	pop    %ebp
 80531b2:	c3                   	ret    
 80531b3:	8d b6 00 00 00 00    	lea    0x0(%esi),%esi
 80531b9:	8d bc 27 00 00 00 00 	lea    0x0(%edi,%eiz,1),%edi

080531c0 <_vfiprintf_r>:
 80531c0:	55                   	push   %ebp
 80531c1:	89 e5                	mov    %esp,%ebp
 80531c3:	57                   	push   %edi
 80531c4:	56                   	push   %esi
 80531c5:	53                   	push   %ebx
 80531c6:	81 ec cc 00 00 00    	sub    $0xcc,%esp
 80531cc:	8b 5d 08             	mov    0x8(%ebp),%ebx
 80531cf:	85 db                	test   %ebx,%ebx
 80531d1:	74 0e                	je     80531e1 <_vfiprintf_r+0x21>
 80531d3:	8b 45 08             	mov    0x8(%ebp),%eax
 80531d6:	8b 48 38             	mov    0x38(%eax),%ecx
 80531d9:	85 c9                	test   %ecx,%ecx
 80531db:	0f 84 c7 01 00 00    	je     80533a8 <_vfiprintf_r+0x1e8>
 80531e1:	8b 45 0c             	mov    0xc(%ebp),%eax
 80531e4:	0f b7 40 0c          	movzwl 0xc(%eax),%eax
 80531e8:	f6 c4 20             	test   $0x20,%ah
 80531eb:	75 11                	jne    80531fe <_vfiprintf_r+0x3e>
 80531ed:	8b 7d 0c             	mov    0xc(%ebp),%edi
 80531f0:	80 cc 20             	or     $0x20,%ah
 80531f3:	81 67 64 ff df ff ff 	andl   $0xffffdfff,0x64(%edi)
 80531fa:	66 89 47 0c          	mov    %ax,0xc(%edi)
 80531fe:	a8 08                	test   $0x8,%al
 8053200:	0f 84 3a 01 00 00    	je     8053340 <_vfiprintf_r+0x180>
 8053206:	8b 7d 0c             	mov    0xc(%ebp),%edi
 8053209:	8b 57 10             	mov    0x10(%edi),%edx
 805320c:	85 d2                	test   %edx,%edx
 805320e:	0f 84 2c 01 00 00    	je     8053340 <_vfiprintf_r+0x180>
 8053214:	83 e0 1a             	and    $0x1a,%eax
 8053217:	66 83 f8 0a          	cmp    $0xa,%ax
 805321b:	0f 84 49 01 00 00    	je     805336a <_vfiprintf_r+0x1aa>
 8053221:	8d 45 a8             	lea    -0x58(%ebp),%eax
 8053224:	8d 7d a7             	lea    -0x59(%ebp),%edi
 8053227:	89 c6                	mov    %eax,%esi
 8053229:	89 85 74 ff ff ff    	mov    %eax,-0x8c(%ebp)
 805322f:	29 f8                	sub    %edi,%eax
 8053231:	c7 85 7c ff ff ff 00 	movl   $0x0,-0x84(%ebp)
 8053238:	00 00 00 
 805323b:	c7 85 78 ff ff ff 00 	movl   $0x0,-0x88(%ebp)
 8053242:	00 00 00 
 8053245:	c7 85 40 ff ff ff 00 	movl   $0x0,-0xc0(%ebp)
 805324c:	00 00 00 
 805324f:	c7 85 50 ff ff ff 00 	movl   $0x0,-0xb0(%ebp)
 8053256:	00 00 00 
 8053259:	89 85 3c ff ff ff    	mov    %eax,-0xc4(%ebp)
 805325f:	8b 45 10             	mov    0x10(%ebp),%eax
 8053262:	8b 5d 10             	mov    0x10(%ebp),%ebx
 8053265:	0f b6 00             	movzbl (%eax),%eax
 8053268:	84 c0                	test   %al,%al
 805326a:	74 5b                	je     80532c7 <_vfiprintf_r+0x107>
 805326c:	3c 25                	cmp    $0x25,%al
 805326e:	75 12                	jne    8053282 <_vfiprintf_r+0xc2>
 8053270:	eb 55                	jmp    80532c7 <_vfiprintf_r+0x107>
 8053272:	8d b6 00 00 00 00    	lea    0x0(%esi),%esi
 8053278:	84 c0                	test   %al,%al
 805327a:	8d b6 00 00 00 00    	lea    0x0(%esi),%esi
 8053280:	74 0a                	je     805328c <_vfiprintf_r+0xcc>
 8053282:	83 c3 01             	add    $0x1,%ebx
 8053285:	0f b6 03             	movzbl (%ebx),%eax
 8053288:	3c 25                	cmp    $0x25,%al
 805328a:	75 ec                	jne    8053278 <_vfiprintf_r+0xb8>
 805328c:	89 df                	mov    %ebx,%edi
 805328e:	2b 7d 10             	sub    0x10(%ebp),%edi
 8053291:	74 34                	je     80532c7 <_vfiprintf_r+0x107>
 8053293:	8b 45 10             	mov    0x10(%ebp),%eax
 8053296:	83 c6 08             	add    $0x8,%esi
 8053299:	8b 95 7c ff ff ff    	mov    -0x84(%ebp),%edx
 805329f:	89 7e fc             	mov    %edi,-0x4(%esi)
 80532a2:	89 46 f8             	mov    %eax,-0x8(%esi)
 80532a5:	8b 85 78 ff ff ff    	mov    -0x88(%ebp),%eax
 80532ab:	01 fa                	add    %edi,%edx
 80532ad:	89 95 7c ff ff ff    	mov    %edx,-0x84(%ebp)
 80532b3:	83 c0 01             	add    $0x1,%eax
 80532b6:	83 f8 07             	cmp    $0x7,%eax
 80532b9:	89 85 78 ff ff ff    	mov    %eax,-0x88(%ebp)
 80532bf:	7f 57                	jg     8053318 <_vfiprintf_r+0x158>
 80532c1:	01 bd 50 ff ff ff    	add    %edi,-0xb0(%ebp)
 80532c7:	80 3b 00             	cmpb   $0x0,(%ebx)
 80532ca:	0f 84 f9 07 00 00    	je     8053ac9 <_vfiprintf_r+0x909>
 80532d0:	83 c3 01             	add    $0x1,%ebx
 80532d3:	31 ff                	xor    %edi,%edi
 80532d5:	c6 85 71 ff ff ff 00 	movb   $0x0,-0x8f(%ebp)
 80532dc:	c7 85 5c ff ff ff ff 	movl   $0xffffffff,-0xa4(%ebp)
 80532e3:	ff ff ff 
 80532e6:	c7 85 54 ff ff ff 00 	movl   $0x0,-0xac(%ebp)
 80532ed:	00 00 00 
 80532f0:	c7 85 64 ff ff ff 00 	movl   $0x0,-0x9c(%ebp)
 80532f7:	00 00 00 
 80532fa:	0f be 03             	movsbl (%ebx),%eax
 80532fd:	8d 53 01             	lea    0x1(%ebx),%edx
 8053300:	8d 48 e0             	lea    -0x20(%eax),%ecx
 8053303:	83 f9 58             	cmp    $0x58,%ecx
 8053306:	0f 87 15 06 00 00    	ja     8053921 <_vfiprintf_r+0x761>
 805330c:	ff 24 8d 2c 6b 05 08 	jmp    *0x8056b2c(,%ecx,4)
 8053313:	90                   	nop
 8053314:	8d 74 26 00          	lea    0x0(%esi,%eiz,1),%esi
 8053318:	85 d2                	test   %edx,%edx
 805331a:	0f 85 e8 0b 00 00    	jne    8053f08 <_vfiprintf_r+0xd48>
 8053320:	c7 85 78 ff ff ff 00 	movl   $0x0,-0x88(%ebp)
 8053327:	00 00 00 
 805332a:	8d 75 a8             	lea    -0x58(%ebp),%esi
 805332d:	eb 92                	jmp    80532c1 <_vfiprintf_r+0x101>
 805332f:	90                   	nop
 8053330:	83 8d 64 ff ff ff 10 	orl    $0x10,-0x9c(%ebp)
 8053337:	89 d3                	mov    %edx,%ebx
 8053339:	eb bf                	jmp    80532fa <_vfiprintf_r+0x13a>
 805333b:	90                   	nop
 805333c:	8d 74 26 00          	lea    0x0(%esi,%eiz,1),%esi
 8053340:	8b 45 0c             	mov    0xc(%ebp),%eax
 8053343:	89 44 24 04          	mov    %eax,0x4(%esp)
 8053347:	8b 45 08             	mov    0x8(%ebp),%eax
 805334a:	89 04 24             	mov    %eax,(%esp)
 805334d:	e8 5e b2 ff ff       	call   804e5b0 <__swsetup_r>
 8053352:	85 c0                	test   %eax,%eax
 8053354:	75 42                	jne    8053398 <_vfiprintf_r+0x1d8>
 8053356:	8b 45 0c             	mov    0xc(%ebp),%eax
 8053359:	0f b7 40 0c          	movzwl 0xc(%eax),%eax
 805335d:	83 e0 1a             	and    $0x1a,%eax
 8053360:	66 83 f8 0a          	cmp    $0xa,%ax
 8053364:	0f 85 b7 fe ff ff    	jne    8053221 <_vfiprintf_r+0x61>
 805336a:	8b 45 0c             	mov    0xc(%ebp),%eax
 805336d:	66 83 78 0e 00       	cmpw   $0x0,0xe(%eax)
 8053372:	0f 88 a9 fe ff ff    	js     8053221 <_vfiprintf_r+0x61>
 8053378:	8b 45 14             	mov    0x14(%ebp),%eax
 805337b:	8b 4d 10             	mov    0x10(%ebp),%ecx
 805337e:	8b 55 0c             	mov    0xc(%ebp),%edx
 8053381:	89 04 24             	mov    %eax,(%esp)
 8053384:	8b 45 08             	mov    0x8(%ebp),%eax
 8053387:	e8 04 0e 00 00       	call   8054190 <__sbprintf>
 805338c:	81 c4 cc 00 00 00    	add    $0xcc,%esp
 8053392:	5b                   	pop    %ebx
 8053393:	5e                   	pop    %esi
 8053394:	5f                   	pop    %edi
 8053395:	5d                   	pop    %ebp
 8053396:	c3                   	ret    
 8053397:	90                   	nop
 8053398:	81 c4 cc 00 00 00    	add    $0xcc,%esp
 805339e:	b8 ff ff ff ff       	mov    $0xffffffff,%eax
 80533a3:	5b                   	pop    %ebx
 80533a4:	5e                   	pop    %esi
 80533a5:	5f                   	pop    %edi
 80533a6:	5d                   	pop    %ebp
 80533a7:	c3                   	ret    
 80533a8:	89 04 24             	mov    %eax,(%esp)
 80533ab:	e8 70 ca ff ff       	call   804fe20 <__sinit>
 80533b0:	e9 2c fe ff ff       	jmp    80531e1 <_vfiprintf_r+0x21>
 80533b5:	8b 45 14             	mov    0x14(%ebp),%eax
 80533b8:	8b 4d 14             	mov    0x14(%ebp),%ecx
 80533bb:	8b 00                	mov    (%eax),%eax
 80533bd:	83 c1 04             	add    $0x4,%ecx
 80533c0:	89 4d 14             	mov    %ecx,0x14(%ebp)
 80533c3:	85 c0                	test   %eax,%eax
 80533c5:	89 85 54 ff ff ff    	mov    %eax,-0xac(%ebp)
 80533cb:	0f 89 66 ff ff ff    	jns    8053337 <_vfiprintf_r+0x177>
 80533d1:	f7 9d 54 ff ff ff    	negl   -0xac(%ebp)
 80533d7:	83 8d 64 ff ff ff 04 	orl    $0x4,-0x9c(%ebp)
 80533de:	89 d3                	mov    %edx,%ebx
 80533e0:	e9 15 ff ff ff       	jmp    80532fa <_vfiprintf_r+0x13a>
 80533e5:	bf 2b 00 00 00       	mov    $0x2b,%edi
 80533ea:	89 d3                	mov    %edx,%ebx
 80533ec:	e9 09 ff ff ff       	jmp    80532fa <_vfiprintf_r+0x13a>
 80533f1:	8b 45 14             	mov    0x14(%ebp),%eax
 80533f4:	83 8d 64 ff ff ff 02 	orl    $0x2,-0x9c(%ebp)
 80533fb:	89 55 10             	mov    %edx,0x10(%ebp)
 80533fe:	ba 02 00 00 00       	mov    $0x2,%edx
 8053403:	8b 08                	mov    (%eax),%ecx
 8053405:	83 c0 04             	add    $0x4,%eax
 8053408:	c6 85 72 ff ff ff 30 	movb   $0x30,-0x8e(%ebp)
 805340f:	c6 85 73 ff ff ff 78 	movb   $0x78,-0x8d(%ebp)
 8053416:	89 45 14             	mov    %eax,0x14(%ebp)
 8053419:	c7 85 40 ff ff ff b9 	movl   $0x80564b9,-0xc0(%ebp)
 8053420:	64 05 08 
 8053423:	90                   	nop
 8053424:	8d 74 26 00          	lea    0x0(%esi,%eiz,1),%esi
 8053428:	c6 85 71 ff ff ff 00 	movb   $0x0,-0x8f(%ebp)
 805342f:	31 ff                	xor    %edi,%edi
 8053431:	8b 9d 64 ff ff ff    	mov    -0x9c(%ebp),%ebx
 8053437:	89 d8                	mov    %ebx,%eax
 8053439:	24 7f                	and    $0x7f,%al
 805343b:	83 bd 5c ff ff ff 00 	cmpl   $0x0,-0xa4(%ebp)
 8053442:	0f 48 c3             	cmovs  %ebx,%eax
 8053445:	89 85 64 ff ff ff    	mov    %eax,-0x9c(%ebp)
 805344b:	8b 85 5c ff ff ff    	mov    -0xa4(%ebp),%eax
 8053451:	85 c0                	test   %eax,%eax
 8053453:	75 08                	jne    805345d <_vfiprintf_r+0x29d>
 8053455:	85 c9                	test   %ecx,%ecx
 8053457:	0f 84 8b 08 00 00    	je     8053ce8 <_vfiprintf_r+0xb28>
 805345d:	80 fa 01             	cmp    $0x1,%dl
 8053460:	0f 84 52 0a 00 00    	je     8053eb8 <_vfiprintf_r+0xcf8>
 8053466:	80 fa 02             	cmp    $0x2,%dl
 8053469:	8d 45 a8             	lea    -0x58(%ebp),%eax
 805346c:	0f 85 ee 09 00 00    	jne    8053e60 <_vfiprintf_r+0xca0>
 8053472:	8b 9d 40 ff ff ff    	mov    -0xc0(%ebp),%ebx
 8053478:	89 ca                	mov    %ecx,%edx
 805347a:	83 e8 01             	sub    $0x1,%eax
 805347d:	83 e2 0f             	and    $0xf,%edx
 8053480:	0f b6 14 13          	movzbl (%ebx,%edx,1),%edx
 8053484:	c1 e9 04             	shr    $0x4,%ecx
 8053487:	85 c9                	test   %ecx,%ecx
 8053489:	88 10                	mov    %dl,(%eax)
 805348b:	75 eb                	jne    8053478 <_vfiprintf_r+0x2b8>
 805348d:	8d 4d a8             	lea    -0x58(%ebp),%ecx
 8053490:	29 c1                	sub    %eax,%ecx
 8053492:	89 85 44 ff ff ff    	mov    %eax,-0xbc(%ebp)
 8053498:	89 8d 58 ff ff ff    	mov    %ecx,-0xa8(%ebp)
 805349e:	66 90                	xchg   %ax,%ax
 80534a0:	8b 85 5c ff ff ff    	mov    -0xa4(%ebp),%eax
 80534a6:	8b 8d 58 ff ff ff    	mov    -0xa8(%ebp),%ecx
 80534ac:	39 c1                	cmp    %eax,%ecx
 80534ae:	0f 4d c1             	cmovge %ecx,%eax
 80534b1:	89 85 60 ff ff ff    	mov    %eax,-0xa0(%ebp)
 80534b7:	89 f8                	mov    %edi,%eax
 80534b9:	3c 01                	cmp    $0x1,%al
 80534bb:	83 9d 60 ff ff ff ff 	sbbl   $0xffffffff,-0xa0(%ebp)
 80534c2:	8b 9d 60 ff ff ff    	mov    -0xa0(%ebp),%ebx
 80534c8:	8b 8d 64 ff ff ff    	mov    -0x9c(%ebp),%ecx
 80534ce:	89 d8                	mov    %ebx,%eax
 80534d0:	89 cf                	mov    %ecx,%edi
 80534d2:	83 c0 02             	add    $0x2,%eax
 80534d5:	83 e7 02             	and    $0x2,%edi
 80534d8:	89 bd 4c ff ff ff    	mov    %edi,-0xb4(%ebp)
 80534de:	89 cf                	mov    %ecx,%edi
 80534e0:	0f 44 c3             	cmove  %ebx,%eax
 80534e3:	81 e7 84 00 00 00    	and    $0x84,%edi
 80534e9:	89 85 60 ff ff ff    	mov    %eax,-0xa0(%ebp)
 80534ef:	89 bd 48 ff ff ff    	mov    %edi,-0xb8(%ebp)
 80534f5:	0f 85 b5 04 00 00    	jne    80539b0 <_vfiprintf_r+0x7f0>
 80534fb:	8b 9d 54 ff ff ff    	mov    -0xac(%ebp),%ebx
 8053501:	2b 9d 60 ff ff ff    	sub    -0xa0(%ebp),%ebx
 8053507:	85 db                	test   %ebx,%ebx
 8053509:	0f 8e a1 04 00 00    	jle    80539b0 <_vfiprintf_r+0x7f0>
 805350f:	8b 85 78 ff ff ff    	mov    -0x88(%ebp),%eax
 8053515:	8b 95 7c ff ff ff    	mov    -0x84(%ebp),%edx
 805351b:	83 c0 01             	add    $0x1,%eax
 805351e:	83 fb 10             	cmp    $0x10,%ebx
 8053521:	7e 5b                	jle    805357e <_vfiprintf_r+0x3be>
 8053523:	8b bd 78 ff ff ff    	mov    -0x88(%ebp),%edi
 8053529:	eb 15                	jmp    8053540 <_vfiprintf_r+0x380>
 805352b:	90                   	nop
 805352c:	8d 74 26 00          	lea    0x0(%esi,%eiz,1),%esi
 8053530:	8d 47 02             	lea    0x2(%edi),%eax
 8053533:	83 c6 08             	add    $0x8,%esi
 8053536:	89 cf                	mov    %ecx,%edi
 8053538:	83 eb 10             	sub    $0x10,%ebx
 805353b:	83 fb 10             	cmp    $0x10,%ebx
 805353e:	7e 3e                	jle    805357e <_vfiprintf_r+0x3be>
 8053540:	8d 4f 01             	lea    0x1(%edi),%ecx
 8053543:	83 c2 10             	add    $0x10,%edx
 8053546:	83 f9 07             	cmp    $0x7,%ecx
 8053549:	c7 06 a0 6c 05 08    	movl   $0x8056ca0,(%esi)
 805354f:	c7 46 04 10 00 00 00 	movl   $0x10,0x4(%esi)
 8053556:	89 95 7c ff ff ff    	mov    %edx,-0x84(%ebp)
 805355c:	89 8d 78 ff ff ff    	mov    %ecx,-0x88(%ebp)
 8053562:	7e cc                	jle    8053530 <_vfiprintf_r+0x370>
 8053564:	85 d2                	test   %edx,%edx
 8053566:	0f 85 14 04 00 00    	jne    8053980 <_vfiprintf_r+0x7c0>
 805356c:	83 eb 10             	sub    $0x10,%ebx
 805356f:	31 ff                	xor    %edi,%edi
 8053571:	83 fb 10             	cmp    $0x10,%ebx
 8053574:	b8 01 00 00 00       	mov    $0x1,%eax
 8053579:	8d 75 a8             	lea    -0x58(%ebp),%esi
 805357c:	7f c2                	jg     8053540 <_vfiprintf_r+0x380>
 805357e:	01 da                	add    %ebx,%edx
 8053580:	83 f8 07             	cmp    $0x7,%eax
 8053583:	c7 06 a0 6c 05 08    	movl   $0x8056ca0,(%esi)
 8053589:	89 5e 04             	mov    %ebx,0x4(%esi)
 805358c:	89 95 7c ff ff ff    	mov    %edx,-0x84(%ebp)
 8053592:	89 85 78 ff ff ff    	mov    %eax,-0x88(%ebp)
 8053598:	0f 8f 02 09 00 00    	jg     8053ea0 <_vfiprintf_r+0xce0>
 805359e:	83 c6 08             	add    $0x8,%esi
 80535a1:	8d 48 01             	lea    0x1(%eax),%ecx
 80535a4:	e9 16 04 00 00       	jmp    80539bf <_vfiprintf_r+0x7ff>
 80535a9:	8b 45 14             	mov    0x14(%ebp),%eax
 80535ac:	89 55 10             	mov    %edx,0x10(%ebp)
 80535af:	c6 85 71 ff ff ff 00 	movb   $0x0,-0x8f(%ebp)
 80535b6:	8d 58 04             	lea    0x4(%eax),%ebx
 80535b9:	8b 00                	mov    (%eax),%eax
 80535bb:	85 c0                	test   %eax,%eax
 80535bd:	89 85 44 ff ff ff    	mov    %eax,-0xbc(%ebp)
 80535c3:	0f 84 e9 0a 00 00    	je     80540b2 <_vfiprintf_r+0xef2>
 80535c9:	8b bd 5c ff ff ff    	mov    -0xa4(%ebp),%edi
 80535cf:	85 ff                	test   %edi,%edi
 80535d1:	0f 88 7e 0a 00 00    	js     8054055 <_vfiprintf_r+0xe95>
 80535d7:	8b 85 44 ff ff ff    	mov    -0xbc(%ebp),%eax
 80535dd:	89 7c 24 08          	mov    %edi,0x8(%esp)
 80535e1:	c7 44 24 04 00 00 00 	movl   $0x0,0x4(%esp)
 80535e8:	00 
 80535e9:	89 04 24             	mov    %eax,(%esp)
 80535ec:	e8 6f d9 ff ff       	call   8050f60 <memchr>
 80535f1:	85 c0                	test   %eax,%eax
 80535f3:	0f 84 f0 0a 00 00    	je     80540e9 <_vfiprintf_r+0xf29>
 80535f9:	2b 85 44 ff ff ff    	sub    -0xbc(%ebp),%eax
 80535ff:	89 5d 14             	mov    %ebx,0x14(%ebp)
 8053602:	c7 85 5c ff ff ff 00 	movl   $0x0,-0xa4(%ebp)
 8053609:	00 00 00 
 805360c:	39 f8                	cmp    %edi,%eax
 805360e:	0f 4f c7             	cmovg  %edi,%eax
 8053611:	0f b6 bd 71 ff ff ff 	movzbl -0x8f(%ebp),%edi
 8053618:	89 85 58 ff ff ff    	mov    %eax,-0xa8(%ebp)
 805361e:	e9 7d fe ff ff       	jmp    80534a0 <_vfiprintf_r+0x2e0>
 8053623:	83 8d 64 ff ff ff 40 	orl    $0x40,-0x9c(%ebp)
 805362a:	89 d3                	mov    %edx,%ebx
 805362c:	e9 c9 fc ff ff       	jmp    80532fa <_vfiprintf_r+0x13a>
 8053631:	f6 85 64 ff ff ff 10 	testb  $0x10,-0x9c(%ebp)
 8053638:	89 f9                	mov    %edi,%ecx
 805363a:	89 55 10             	mov    %edx,0x10(%ebp)
 805363d:	8b 7d 14             	mov    0x14(%ebp),%edi
 8053640:	88 8d 71 ff ff ff    	mov    %cl,-0x8f(%ebp)
 8053646:	c7 85 40 ff ff ff b9 	movl   $0x80564b9,-0xc0(%ebp)
 805364d:	64 05 08 
 8053650:	0f 85 44 01 00 00    	jne    805379a <_vfiprintf_r+0x5da>
 8053656:	f6 85 64 ff ff ff 40 	testb  $0x40,-0x9c(%ebp)
 805365d:	0f 84 37 01 00 00    	je     805379a <_vfiprintf_r+0x5da>
 8053663:	0f b7 0f             	movzwl (%edi),%ecx
 8053666:	83 c7 04             	add    $0x4,%edi
 8053669:	89 7d 14             	mov    %edi,0x14(%ebp)
 805366c:	f6 85 64 ff ff ff 01 	testb  $0x1,-0x9c(%ebp)
 8053673:	ba 02 00 00 00       	mov    $0x2,%edx
 8053678:	0f 84 aa fd ff ff    	je     8053428 <_vfiprintf_r+0x268>
 805367e:	85 c9                	test   %ecx,%ecx
 8053680:	0f 84 a2 fd ff ff    	je     8053428 <_vfiprintf_r+0x268>
 8053686:	c6 85 72 ff ff ff 30 	movb   $0x30,-0x8e(%ebp)
 805368d:	88 85 73 ff ff ff    	mov    %al,-0x8d(%ebp)
 8053693:	83 8d 64 ff ff ff 02 	orl    $0x2,-0x9c(%ebp)
 805369a:	e9 89 fd ff ff       	jmp    8053428 <_vfiprintf_r+0x268>
 805369f:	f6 85 64 ff ff ff 10 	testb  $0x10,-0x9c(%ebp)
 80536a6:	89 f8                	mov    %edi,%eax
 80536a8:	89 55 10             	mov    %edx,0x10(%ebp)
 80536ab:	88 85 71 ff ff ff    	mov    %al,-0x8f(%ebp)
 80536b1:	0f 85 a9 02 00 00    	jne    8053960 <_vfiprintf_r+0x7a0>
 80536b7:	f6 85 64 ff ff ff 40 	testb  $0x40,-0x9c(%ebp)
 80536be:	0f 84 9c 02 00 00    	je     8053960 <_vfiprintf_r+0x7a0>
 80536c4:	8b 45 14             	mov    0x14(%ebp),%eax
 80536c7:	0f b7 bd 50 ff ff ff 	movzwl -0xb0(%ebp),%edi
 80536ce:	8b 00                	mov    (%eax),%eax
 80536d0:	66 89 38             	mov    %di,(%eax)
 80536d3:	8b 45 14             	mov    0x14(%ebp),%eax
 80536d6:	83 c0 04             	add    $0x4,%eax
 80536d9:	89 45 14             	mov    %eax,0x14(%ebp)
 80536dc:	e9 7e fb ff ff       	jmp    805325f <_vfiprintf_r+0x9f>
 80536e1:	f6 85 64 ff ff ff 10 	testb  $0x10,-0x9c(%ebp)
 80536e8:	89 55 10             	mov    %edx,0x10(%ebp)
 80536eb:	8b 45 14             	mov    0x14(%ebp),%eax
 80536ee:	75 73                	jne    8053763 <_vfiprintf_r+0x5a3>
 80536f0:	f6 85 64 ff ff ff 40 	testb  $0x40,-0x9c(%ebp)
 80536f7:	74 6a                	je     8053763 <_vfiprintf_r+0x5a3>
 80536f9:	0f b7 08             	movzwl (%eax),%ecx
 80536fc:	83 c0 04             	add    $0x4,%eax
 80536ff:	ba 01 00 00 00       	mov    $0x1,%edx
 8053704:	89 45 14             	mov    %eax,0x14(%ebp)
 8053707:	e9 1c fd ff ff       	jmp    8053428 <_vfiprintf_r+0x268>
 805370c:	f6 85 64 ff ff ff 10 	testb  $0x10,-0x9c(%ebp)
 8053713:	89 55 10             	mov    %edx,0x10(%ebp)
 8053716:	8b 45 14             	mov    0x14(%ebp),%eax
 8053719:	0f 85 f3 01 00 00    	jne    8053912 <_vfiprintf_r+0x752>
 805371f:	f6 85 64 ff ff ff 40 	testb  $0x40,-0x9c(%ebp)
 8053726:	0f 84 e6 01 00 00    	je     8053912 <_vfiprintf_r+0x752>
 805372c:	0f b7 08             	movzwl (%eax),%ecx
 805372f:	83 c0 04             	add    $0x4,%eax
 8053732:	31 d2                	xor    %edx,%edx
 8053734:	89 45 14             	mov    %eax,0x14(%ebp)
 8053737:	e9 ec fc ff ff       	jmp    8053428 <_vfiprintf_r+0x268>
 805373c:	81 8d 64 ff ff ff 80 	orl    $0x80,-0x9c(%ebp)
 8053743:	00 00 00 
 8053746:	89 d3                	mov    %edx,%ebx
 8053748:	e9 ad fb ff ff       	jmp    80532fa <_vfiprintf_r+0x13a>
 805374d:	83 8d 64 ff ff ff 10 	orl    $0x10,-0x9c(%ebp)
 8053754:	f6 85 64 ff ff ff 10 	testb  $0x10,-0x9c(%ebp)
 805375b:	89 55 10             	mov    %edx,0x10(%ebp)
 805375e:	8b 45 14             	mov    0x14(%ebp),%eax
 8053761:	74 8d                	je     80536f0 <_vfiprintf_r+0x530>
 8053763:	8b 08                	mov    (%eax),%ecx
 8053765:	83 c0 04             	add    $0x4,%eax
 8053768:	ba 01 00 00 00       	mov    $0x1,%edx
 805376d:	89 45 14             	mov    %eax,0x14(%ebp)
 8053770:	e9 b3 fc ff ff       	jmp    8053428 <_vfiprintf_r+0x268>
 8053775:	f6 85 64 ff ff ff 10 	testb  $0x10,-0x9c(%ebp)
 805377c:	89 f9                	mov    %edi,%ecx
 805377e:	89 55 10             	mov    %edx,0x10(%ebp)
 8053781:	8b 7d 14             	mov    0x14(%ebp),%edi
 8053784:	88 8d 71 ff ff ff    	mov    %cl,-0x8f(%ebp)
 805378a:	c7 85 40 ff ff ff a8 	movl   $0x80564a8,-0xc0(%ebp)
 8053791:	64 05 08 
 8053794:	0f 84 bc fe ff ff    	je     8053656 <_vfiprintf_r+0x496>
 805379a:	8b 0f                	mov    (%edi),%ecx
 805379c:	83 c7 04             	add    $0x4,%edi
 805379f:	89 7d 14             	mov    %edi,0x14(%ebp)
 80537a2:	e9 c5 fe ff ff       	jmp    805366c <_vfiprintf_r+0x4ac>
 80537a7:	8b 45 14             	mov    0x14(%ebp),%eax
 80537aa:	89 55 10             	mov    %edx,0x10(%ebp)
 80537ad:	c6 85 71 ff ff ff 00 	movb   $0x0,-0x8f(%ebp)
 80537b4:	c7 85 60 ff ff ff 01 	movl   $0x1,-0xa0(%ebp)
 80537bb:	00 00 00 
 80537be:	8b 00                	mov    (%eax),%eax
 80537c0:	c7 85 58 ff ff ff 01 	movl   $0x1,-0xa8(%ebp)
 80537c7:	00 00 00 
 80537ca:	88 45 80             	mov    %al,-0x80(%ebp)
 80537cd:	8b 45 14             	mov    0x14(%ebp),%eax
 80537d0:	83 c0 04             	add    $0x4,%eax
 80537d3:	89 45 14             	mov    %eax,0x14(%ebp)
 80537d6:	8d 45 80             	lea    -0x80(%ebp),%eax
 80537d9:	89 85 44 ff ff ff    	mov    %eax,-0xbc(%ebp)
 80537df:	c7 85 5c ff ff ff 00 	movl   $0x0,-0xa4(%ebp)
 80537e6:	00 00 00 
 80537e9:	e9 d4 fc ff ff       	jmp    80534c2 <_vfiprintf_r+0x302>
 80537ee:	f6 85 64 ff ff ff 10 	testb  $0x10,-0x9c(%ebp)
 80537f5:	89 f8                	mov    %edi,%eax
 80537f7:	88 85 71 ff ff ff    	mov    %al,-0x8f(%ebp)
 80537fd:	8b 45 14             	mov    0x14(%ebp),%eax
 8053800:	89 55 10             	mov    %edx,0x10(%ebp)
 8053803:	0f 85 bd 00 00 00    	jne    80538c6 <_vfiprintf_r+0x706>
 8053809:	f6 85 64 ff ff ff 40 	testb  $0x40,-0x9c(%ebp)
 8053810:	0f 84 b0 00 00 00    	je     80538c6 <_vfiprintf_r+0x706>
 8053816:	0f bf 08             	movswl (%eax),%ecx
 8053819:	83 c0 04             	add    $0x4,%eax
 805381c:	89 45 14             	mov    %eax,0x14(%ebp)
 805381f:	85 c9                	test   %ecx,%ecx
 8053821:	0f 88 e6 07 00 00    	js     805400d <_vfiprintf_r+0xe4d>
 8053827:	0f b6 bd 71 ff ff ff 	movzbl -0x8f(%ebp),%edi
 805382e:	ba 01 00 00 00       	mov    $0x1,%edx
 8053833:	e9 f9 fb ff ff       	jmp    8053431 <_vfiprintf_r+0x271>
 8053838:	89 f8                	mov    %edi,%eax
 805383a:	89 d3                	mov    %edx,%ebx
 805383c:	84 c0                	test   %al,%al
 805383e:	b8 20 00 00 00       	mov    $0x20,%eax
 8053843:	0f 44 f8             	cmove  %eax,%edi
 8053846:	e9 af fa ff ff       	jmp    80532fa <_vfiprintf_r+0x13a>
 805384b:	83 8d 64 ff ff ff 01 	orl    $0x1,-0x9c(%ebp)
 8053852:	89 d3                	mov    %edx,%ebx
 8053854:	e9 a1 fa ff ff       	jmp    80532fa <_vfiprintf_r+0x13a>
 8053859:	0f be 02             	movsbl (%edx),%eax
 805385c:	8d 5a 01             	lea    0x1(%edx),%ebx
 805385f:	83 f8 2a             	cmp    $0x2a,%eax
 8053862:	0f 84 be 08 00 00    	je     8054126 <_vfiprintf_r+0xf66>
 8053868:	8d 48 d0             	lea    -0x30(%eax),%ecx
 805386b:	31 d2                	xor    %edx,%edx
 805386d:	83 f9 09             	cmp    $0x9,%ecx
 8053870:	0f 87 9f 08 00 00    	ja     8054115 <_vfiprintf_r+0xf55>
 8053876:	66 90                	xchg   %ax,%ax
 8053878:	8d 04 92             	lea    (%edx,%edx,4),%eax
 805387b:	83 c3 01             	add    $0x1,%ebx
 805387e:	8d 14 41             	lea    (%ecx,%eax,2),%edx
 8053881:	0f be 43 ff          	movsbl -0x1(%ebx),%eax
 8053885:	8d 48 d0             	lea    -0x30(%eax),%ecx
 8053888:	83 f9 09             	cmp    $0x9,%ecx
 805388b:	76 eb                	jbe    8053878 <_vfiprintf_r+0x6b8>
 805388d:	85 d2                	test   %edx,%edx
 805388f:	b9 ff ff ff ff       	mov    $0xffffffff,%ecx
 8053894:	0f 48 d1             	cmovs  %ecx,%edx
 8053897:	89 95 5c ff ff ff    	mov    %edx,-0xa4(%ebp)
 805389d:	89 da                	mov    %ebx,%edx
 805389f:	e9 5c fa ff ff       	jmp    8053300 <_vfiprintf_r+0x140>
 80538a4:	83 8d 64 ff ff ff 10 	orl    $0x10,-0x9c(%ebp)
 80538ab:	89 f8                	mov    %edi,%eax
 80538ad:	f6 85 64 ff ff ff 10 	testb  $0x10,-0x9c(%ebp)
 80538b4:	88 85 71 ff ff ff    	mov    %al,-0x8f(%ebp)
 80538ba:	8b 45 14             	mov    0x14(%ebp),%eax
 80538bd:	89 55 10             	mov    %edx,0x10(%ebp)
 80538c0:	0f 84 43 ff ff ff    	je     8053809 <_vfiprintf_r+0x649>
 80538c6:	8b 08                	mov    (%eax),%ecx
 80538c8:	83 c0 04             	add    $0x4,%eax
 80538cb:	89 45 14             	mov    %eax,0x14(%ebp)
 80538ce:	e9 4c ff ff ff       	jmp    805381f <_vfiprintf_r+0x65f>
 80538d3:	31 db                	xor    %ebx,%ebx
 80538d5:	8d 48 d0             	lea    -0x30(%eax),%ecx
 80538d8:	8d 04 9b             	lea    (%ebx,%ebx,4),%eax
 80538db:	83 c2 01             	add    $0x1,%edx
 80538de:	8d 1c 41             	lea    (%ecx,%eax,2),%ebx
 80538e1:	0f be 42 ff          	movsbl -0x1(%edx),%eax
 80538e5:	8d 48 d0             	lea    -0x30(%eax),%ecx
 80538e8:	83 f9 09             	cmp    $0x9,%ecx
 80538eb:	76 eb                	jbe    80538d8 <_vfiprintf_r+0x718>
 80538ed:	89 9d 54 ff ff ff    	mov    %ebx,-0xac(%ebp)
 80538f3:	e9 08 fa ff ff       	jmp    8053300 <_vfiprintf_r+0x140>
 80538f8:	83 8d 64 ff ff ff 10 	orl    $0x10,-0x9c(%ebp)
 80538ff:	f6 85 64 ff ff ff 10 	testb  $0x10,-0x9c(%ebp)
 8053906:	89 55 10             	mov    %edx,0x10(%ebp)
 8053909:	8b 45 14             	mov    0x14(%ebp),%eax
 805390c:	0f 84 0d fe ff ff    	je     805371f <_vfiprintf_r+0x55f>
 8053912:	8b 08                	mov    (%eax),%ecx
 8053914:	83 c0 04             	add    $0x4,%eax
 8053917:	31 d2                	xor    %edx,%edx
 8053919:	89 45 14             	mov    %eax,0x14(%ebp)
 805391c:	e9 07 fb ff ff       	jmp    8053428 <_vfiprintf_r+0x268>
 8053921:	89 f9                	mov    %edi,%ecx
 8053923:	85 c0                	test   %eax,%eax
 8053925:	89 55 10             	mov    %edx,0x10(%ebp)
 8053928:	88 8d 71 ff ff ff    	mov    %cl,-0x8f(%ebp)
 805392e:	0f 84 95 01 00 00    	je     8053ac9 <_vfiprintf_r+0x909>
 8053934:	88 45 80             	mov    %al,-0x80(%ebp)
 8053937:	8d 45 80             	lea    -0x80(%ebp),%eax
 805393a:	c6 85 71 ff ff ff 00 	movb   $0x0,-0x8f(%ebp)
 8053941:	c7 85 60 ff ff ff 01 	movl   $0x1,-0xa0(%ebp)
 8053948:	00 00 00 
 805394b:	c7 85 58 ff ff ff 01 	movl   $0x1,-0xa8(%ebp)
 8053952:	00 00 00 
 8053955:	89 85 44 ff ff ff    	mov    %eax,-0xbc(%ebp)
 805395b:	e9 7f fe ff ff       	jmp    80537df <_vfiprintf_r+0x61f>
 8053960:	8b 45 14             	mov    0x14(%ebp),%eax
 8053963:	8b bd 50 ff ff ff    	mov    -0xb0(%ebp),%edi
 8053969:	8b 00                	mov    (%eax),%eax
 805396b:	89 38                	mov    %edi,(%eax)
 805396d:	8b 45 14             	mov    0x14(%ebp),%eax
 8053970:	83 c0 04             	add    $0x4,%eax
 8053973:	89 45 14             	mov    %eax,0x14(%ebp)
 8053976:	e9 e4 f8 ff ff       	jmp    805325f <_vfiprintf_r+0x9f>
 805397b:	90                   	nop
 805397c:	8d 74 26 00          	lea    0x0(%esi,%eiz,1),%esi
 8053980:	8b 55 0c             	mov    0xc(%ebp),%edx
 8053983:	8d 8d 74 ff ff ff    	lea    -0x8c(%ebp),%ecx
 8053989:	8b 45 08             	mov    0x8(%ebp),%eax
 805398c:	e8 1f f7 ff ff       	call   80530b0 <__sprint_r.part.0>
 8053991:	85 c0                	test   %eax,%eax
 8053993:	0f 85 4f 01 00 00    	jne    8053ae8 <_vfiprintf_r+0x928>
 8053999:	8b bd 78 ff ff ff    	mov    -0x88(%ebp),%edi
 805399f:	8d 75 a8             	lea    -0x58(%ebp),%esi
 80539a2:	8b 95 7c ff ff ff    	mov    -0x84(%ebp),%edx
 80539a8:	8d 47 01             	lea    0x1(%edi),%eax
 80539ab:	e9 88 fb ff ff       	jmp    8053538 <_vfiprintf_r+0x378>
 80539b0:	8b 85 78 ff ff ff    	mov    -0x88(%ebp),%eax
 80539b6:	8b 95 7c ff ff ff    	mov    -0x84(%ebp),%edx
 80539bc:	8d 48 01             	lea    0x1(%eax),%ecx
 80539bf:	80 bd 71 ff ff ff 00 	cmpb   $0x0,-0x8f(%ebp)
 80539c6:	74 2f                	je     80539f7 <_vfiprintf_r+0x837>
 80539c8:	83 c2 01             	add    $0x1,%edx
 80539cb:	83 f9 07             	cmp    $0x7,%ecx
 80539ce:	8d 85 71 ff ff ff    	lea    -0x8f(%ebp),%eax
 80539d4:	89 06                	mov    %eax,(%esi)
 80539d6:	c7 46 04 01 00 00 00 	movl   $0x1,0x4(%esi)
 80539dd:	89 95 7c ff ff ff    	mov    %edx,-0x84(%ebp)
 80539e3:	89 8d 78 ff ff ff    	mov    %ecx,-0x88(%ebp)
 80539e9:	0f 8f 41 04 00 00    	jg     8053e30 <_vfiprintf_r+0xc70>
 80539ef:	89 c8                	mov    %ecx,%eax
 80539f1:	83 c6 08             	add    $0x8,%esi
 80539f4:	83 c1 01             	add    $0x1,%ecx
 80539f7:	8b 9d 4c ff ff ff    	mov    -0xb4(%ebp),%ebx
 80539fd:	85 db                	test   %ebx,%ebx
 80539ff:	74 2f                	je     8053a30 <_vfiprintf_r+0x870>
 8053a01:	83 c2 02             	add    $0x2,%edx
 8053a04:	83 f9 07             	cmp    $0x7,%ecx
 8053a07:	8d 85 72 ff ff ff    	lea    -0x8e(%ebp),%eax
 8053a0d:	89 06                	mov    %eax,(%esi)
 8053a0f:	c7 46 04 02 00 00 00 	movl   $0x2,0x4(%esi)
 8053a16:	89 95 7c ff ff ff    	mov    %edx,-0x84(%ebp)
 8053a1c:	89 8d 78 ff ff ff    	mov    %ecx,-0x88(%ebp)
 8053a22:	0f 8f 20 04 00 00    	jg     8053e48 <_vfiprintf_r+0xc88>
 8053a28:	89 c8                	mov    %ecx,%eax
 8053a2a:	83 c6 08             	add    $0x8,%esi
 8053a2d:	83 c1 01             	add    $0x1,%ecx
 8053a30:	81 bd 48 ff ff ff 80 	cmpl   $0x80,-0xb8(%ebp)
 8053a37:	00 00 00 
 8053a3a:	0f 84 28 03 00 00    	je     8053d68 <_vfiprintf_r+0xba8>
 8053a40:	8b 9d 5c ff ff ff    	mov    -0xa4(%ebp),%ebx
 8053a46:	2b 9d 58 ff ff ff    	sub    -0xa8(%ebp),%ebx
 8053a4c:	85 db                	test   %ebx,%ebx
 8053a4e:	7f 13                	jg     8053a63 <_vfiprintf_r+0x8a3>
 8053a50:	e9 db 00 00 00       	jmp    8053b30 <_vfiprintf_r+0x970>
 8053a55:	8d 76 00             	lea    0x0(%esi),%esi
 8053a58:	8d 48 02             	lea    0x2(%eax),%ecx
 8053a5b:	83 c6 08             	add    $0x8,%esi
 8053a5e:	89 f8                	mov    %edi,%eax
 8053a60:	83 eb 10             	sub    $0x10,%ebx
 8053a63:	83 fb 10             	cmp    $0x10,%ebx
 8053a66:	c7 06 90 6c 05 08    	movl   $0x8056c90,(%esi)
 8053a6c:	0f 8e 4e 02 00 00    	jle    8053cc0 <_vfiprintf_r+0xb00>
 8053a72:	8d 78 01             	lea    0x1(%eax),%edi
 8053a75:	83 c2 10             	add    $0x10,%edx
 8053a78:	83 ff 07             	cmp    $0x7,%edi
 8053a7b:	c7 46 04 10 00 00 00 	movl   $0x10,0x4(%esi)
 8053a82:	89 95 7c ff ff ff    	mov    %edx,-0x84(%ebp)
 8053a88:	89 bd 78 ff ff ff    	mov    %edi,-0x88(%ebp)
 8053a8e:	7e c8                	jle    8053a58 <_vfiprintf_r+0x898>
 8053a90:	85 d2                	test   %edx,%edx
 8053a92:	75 0c                	jne    8053aa0 <_vfiprintf_r+0x8e0>
 8053a94:	b9 01 00 00 00       	mov    $0x1,%ecx
 8053a99:	31 c0                	xor    %eax,%eax
 8053a9b:	8d 75 a8             	lea    -0x58(%ebp),%esi
 8053a9e:	eb c0                	jmp    8053a60 <_vfiprintf_r+0x8a0>
 8053aa0:	8b 55 0c             	mov    0xc(%ebp),%edx
 8053aa3:	8d 8d 74 ff ff ff    	lea    -0x8c(%ebp),%ecx
 8053aa9:	8b 45 08             	mov    0x8(%ebp),%eax
 8053aac:	e8 ff f5 ff ff       	call   80530b0 <__sprint_r.part.0>
 8053ab1:	85 c0                	test   %eax,%eax
 8053ab3:	75 33                	jne    8053ae8 <_vfiprintf_r+0x928>
 8053ab5:	8b 85 78 ff ff ff    	mov    -0x88(%ebp),%eax
 8053abb:	8d 75 a8             	lea    -0x58(%ebp),%esi
 8053abe:	8b 95 7c ff ff ff    	mov    -0x84(%ebp),%edx
 8053ac4:	8d 48 01             	lea    0x1(%eax),%ecx
 8053ac7:	eb 97                	jmp    8053a60 <_vfiprintf_r+0x8a0>
 8053ac9:	8b 85 7c ff ff ff    	mov    -0x84(%ebp),%eax
 8053acf:	85 c0                	test   %eax,%eax
 8053ad1:	74 15                	je     8053ae8 <_vfiprintf_r+0x928>
 8053ad3:	8b 55 0c             	mov    0xc(%ebp),%edx
 8053ad6:	8d 8d 74 ff ff ff    	lea    -0x8c(%ebp),%ecx
 8053adc:	8b 45 08             	mov    0x8(%ebp),%eax
 8053adf:	e8 cc f5 ff ff       	call   80530b0 <__sprint_r.part.0>
 8053ae4:	8d 74 26 00          	lea    0x0(%esi,%eiz,1),%esi
 8053ae8:	8b 45 0c             	mov    0xc(%ebp),%eax
 8053aeb:	f6 40 0c 40          	testb  $0x40,0xc(%eax)
 8053aef:	0f 85 a3 f8 ff ff    	jne    8053398 <_vfiprintf_r+0x1d8>
 8053af5:	8b 85 50 ff ff ff    	mov    -0xb0(%ebp),%eax
 8053afb:	81 c4 cc 00 00 00    	add    $0xcc,%esp
 8053b01:	5b                   	pop    %ebx
 8053b02:	5e                   	pop    %esi
 8053b03:	5f                   	pop    %edi
 8053b04:	5d                   	pop    %ebp
 8053b05:	c3                   	ret    
 8053b06:	8b 55 0c             	mov    0xc(%ebp),%edx
 8053b09:	8d 8d 74 ff ff ff    	lea    -0x8c(%ebp),%ecx
 8053b0f:	8b 45 08             	mov    0x8(%ebp),%eax
 8053b12:	e8 99 f5 ff ff       	call   80530b0 <__sprint_r.part.0>
 8053b17:	85 c0                	test   %eax,%eax
 8053b19:	75 cd                	jne    8053ae8 <_vfiprintf_r+0x928>
 8053b1b:	8b 85 78 ff ff ff    	mov    -0x88(%ebp),%eax
 8053b21:	8d 75 a8             	lea    -0x58(%ebp),%esi
 8053b24:	8b 95 7c ff ff ff    	mov    -0x84(%ebp),%edx
 8053b2a:	8d 48 01             	lea    0x1(%eax),%ecx
 8053b2d:	8d 76 00             	lea    0x0(%esi),%esi
 8053b30:	8b 85 44 ff ff ff    	mov    -0xbc(%ebp),%eax
 8053b36:	89 8d 78 ff ff ff    	mov    %ecx,-0x88(%ebp)
 8053b3c:	89 06                	mov    %eax,(%esi)
 8053b3e:	8b 85 58 ff ff ff    	mov    -0xa8(%ebp),%eax
 8053b44:	01 c2                	add    %eax,%edx
 8053b46:	83 f9 07             	cmp    $0x7,%ecx
 8053b49:	89 46 04             	mov    %eax,0x4(%esi)
 8053b4c:	89 95 7c ff ff ff    	mov    %edx,-0x84(%ebp)
 8053b52:	0f 8e ef 01 00 00    	jle    8053d47 <_vfiprintf_r+0xb87>
 8053b58:	85 d2                	test   %edx,%edx
 8053b5a:	0f 85 81 03 00 00    	jne    8053ee1 <_vfiprintf_r+0xd21>
 8053b60:	c7 85 78 ff ff ff 00 	movl   $0x0,-0x88(%ebp)
 8053b67:	00 00 00 
 8053b6a:	8d 75 a8             	lea    -0x58(%ebp),%esi
 8053b6d:	f6 85 64 ff ff ff 04 	testb  $0x4,-0x9c(%ebp)
 8053b74:	0f 84 ce 00 00 00    	je     8053c48 <_vfiprintf_r+0xa88>
 8053b7a:	8b 9d 54 ff ff ff    	mov    -0xac(%ebp),%ebx
 8053b80:	2b 9d 60 ff ff ff    	sub    -0xa0(%ebp),%ebx
 8053b86:	85 db                	test   %ebx,%ebx
 8053b88:	0f 8e ba 00 00 00    	jle    8053c48 <_vfiprintf_r+0xa88>
 8053b8e:	8b 8d 78 ff ff ff    	mov    -0x88(%ebp),%ecx
 8053b94:	83 fb 10             	cmp    $0x10,%ebx
 8053b97:	8d 79 01             	lea    0x1(%ecx),%edi
 8053b9a:	7f 14                	jg     8053bb0 <_vfiprintf_r+0x9f0>
 8053b9c:	eb 50                	jmp    8053bee <_vfiprintf_r+0xa2e>
 8053b9e:	66 90                	xchg   %ax,%ax
 8053ba0:	8d 79 02             	lea    0x2(%ecx),%edi
 8053ba3:	83 c6 08             	add    $0x8,%esi
 8053ba6:	89 c1                	mov    %eax,%ecx
 8053ba8:	83 eb 10             	sub    $0x10,%ebx
 8053bab:	83 fb 10             	cmp    $0x10,%ebx
 8053bae:	7e 3e                	jle    8053bee <_vfiprintf_r+0xa2e>
 8053bb0:	8d 41 01             	lea    0x1(%ecx),%eax
 8053bb3:	83 c2 10             	add    $0x10,%edx
 8053bb6:	83 f8 07             	cmp    $0x7,%eax
 8053bb9:	c7 06 a0 6c 05 08    	movl   $0x8056ca0,(%esi)
 8053bbf:	c7 46 04 10 00 00 00 	movl   $0x10,0x4(%esi)
 8053bc6:	89 95 7c ff ff ff    	mov    %edx,-0x84(%ebp)
 8053bcc:	89 85 78 ff ff ff    	mov    %eax,-0x88(%ebp)
 8053bd2:	7e cc                	jle    8053ba0 <_vfiprintf_r+0x9e0>
 8053bd4:	85 d2                	test   %edx,%edx
 8053bd6:	0f 85 b4 00 00 00    	jne    8053c90 <_vfiprintf_r+0xad0>
 8053bdc:	83 eb 10             	sub    $0x10,%ebx
 8053bdf:	31 c9                	xor    %ecx,%ecx
 8053be1:	83 fb 10             	cmp    $0x10,%ebx
 8053be4:	bf 01 00 00 00       	mov    $0x1,%edi
 8053be9:	8d 75 a8             	lea    -0x58(%ebp),%esi
 8053bec:	7f c2                	jg     8053bb0 <_vfiprintf_r+0x9f0>
 8053bee:	01 da                	add    %ebx,%edx
 8053bf0:	83 ff 07             	cmp    $0x7,%edi
 8053bf3:	c7 06 a0 6c 05 08    	movl   $0x8056ca0,(%esi)
 8053bf9:	89 5e 04             	mov    %ebx,0x4(%esi)
 8053bfc:	89 95 7c ff ff ff    	mov    %edx,-0x84(%ebp)
 8053c02:	89 bd 78 ff ff ff    	mov    %edi,-0x88(%ebp)
 8053c08:	7e 3e                	jle    8053c48 <_vfiprintf_r+0xa88>
 8053c0a:	85 d2                	test   %edx,%edx
 8053c0c:	75 19                	jne    8053c27 <_vfiprintf_r+0xa67>
 8053c0e:	8b 85 54 ff ff ff    	mov    -0xac(%ebp),%eax
 8053c14:	8b bd 60 ff ff ff    	mov    -0xa0(%ebp),%edi
 8053c1a:	39 c7                	cmp    %eax,%edi
 8053c1c:	0f 4d c7             	cmovge %edi,%eax
 8053c1f:	01 85 50 ff ff ff    	add    %eax,-0xb0(%ebp)
 8053c25:	eb 55                	jmp    8053c7c <_vfiprintf_r+0xabc>
 8053c27:	8b 55 0c             	mov    0xc(%ebp),%edx
 8053c2a:	8d 8d 74 ff ff ff    	lea    -0x8c(%ebp),%ecx
 8053c30:	8b 45 08             	mov    0x8(%ebp),%eax
 8053c33:	e8 78 f4 ff ff       	call   80530b0 <__sprint_r.part.0>
 8053c38:	85 c0                	test   %eax,%eax
 8053c3a:	0f 85 a8 fe ff ff    	jne    8053ae8 <_vfiprintf_r+0x928>
 8053c40:	8b 95 7c ff ff ff    	mov    -0x84(%ebp),%edx
 8053c46:	66 90                	xchg   %ax,%ax
 8053c48:	8b 85 54 ff ff ff    	mov    -0xac(%ebp),%eax
 8053c4e:	8b bd 60 ff ff ff    	mov    -0xa0(%ebp),%edi
 8053c54:	39 c7                	cmp    %eax,%edi
 8053c56:	0f 4d c7             	cmovge %edi,%eax
 8053c59:	01 85 50 ff ff ff    	add    %eax,-0xb0(%ebp)
 8053c5f:	85 d2                	test   %edx,%edx
 8053c61:	74 19                	je     8053c7c <_vfiprintf_r+0xabc>
 8053c63:	8b 55 0c             	mov    0xc(%ebp),%edx
 8053c66:	8d 8d 74 ff ff ff    	lea    -0x8c(%ebp),%ecx
 8053c6c:	8b 45 08             	mov    0x8(%ebp),%eax
 8053c6f:	e8 3c f4 ff ff       	call   80530b0 <__sprint_r.part.0>
 8053c74:	85 c0                	test   %eax,%eax
 8053c76:	0f 85 6c fe ff ff    	jne    8053ae8 <_vfiprintf_r+0x928>
 8053c7c:	c7 85 78 ff ff ff 00 	movl   $0x0,-0x88(%ebp)
 8053c83:	00 00 00 
 8053c86:	8d 75 a8             	lea    -0x58(%ebp),%esi
 8053c89:	e9 d1 f5 ff ff       	jmp    805325f <_vfiprintf_r+0x9f>
 8053c8e:	66 90                	xchg   %ax,%ax
 8053c90:	8b 55 0c             	mov    0xc(%ebp),%edx
 8053c93:	8d 8d 74 ff ff ff    	lea    -0x8c(%ebp),%ecx
 8053c99:	8b 45 08             	mov    0x8(%ebp),%eax
 8053c9c:	e8 0f f4 ff ff       	call   80530b0 <__sprint_r.part.0>
 8053ca1:	85 c0                	test   %eax,%eax
 8053ca3:	0f 85 3f fe ff ff    	jne    8053ae8 <_vfiprintf_r+0x928>
 8053ca9:	8b 8d 78 ff ff ff    	mov    -0x88(%ebp),%ecx
 8053caf:	8d 75 a8             	lea    -0x58(%ebp),%esi
 8053cb2:	8b 95 7c ff ff ff    	mov    -0x84(%ebp),%edx
 8053cb8:	8d 79 01             	lea    0x1(%ecx),%edi
 8053cbb:	e9 e8 fe ff ff       	jmp    8053ba8 <_vfiprintf_r+0x9e8>
 8053cc0:	01 da                	add    %ebx,%edx
 8053cc2:	83 f9 07             	cmp    $0x7,%ecx
 8053cc5:	89 5e 04             	mov    %ebx,0x4(%esi)
 8053cc8:	89 95 7c ff ff ff    	mov    %edx,-0x84(%ebp)
 8053cce:	89 8d 78 ff ff ff    	mov    %ecx,-0x88(%ebp)
 8053cd4:	7f 42                	jg     8053d18 <_vfiprintf_r+0xb58>
 8053cd6:	83 c6 08             	add    $0x8,%esi
 8053cd9:	83 c1 01             	add    $0x1,%ecx
 8053cdc:	e9 4f fe ff ff       	jmp    8053b30 <_vfiprintf_r+0x970>
 8053ce1:	8d b4 26 00 00 00 00 	lea    0x0(%esi,%eiz,1),%esi
 8053ce8:	84 d2                	test   %dl,%dl
 8053cea:	75 64                	jne    8053d50 <_vfiprintf_r+0xb90>
 8053cec:	f6 85 64 ff ff ff 01 	testb  $0x1,-0x9c(%ebp)
 8053cf3:	74 5b                	je     8053d50 <_vfiprintf_r+0xb90>
 8053cf5:	8b 85 3c ff ff ff    	mov    -0xc4(%ebp),%eax
 8053cfb:	c6 45 a7 30          	movb   $0x30,-0x59(%ebp)
 8053cff:	89 85 58 ff ff ff    	mov    %eax,-0xa8(%ebp)
 8053d05:	8d 45 a7             	lea    -0x59(%ebp),%eax
 8053d08:	89 85 44 ff ff ff    	mov    %eax,-0xbc(%ebp)
 8053d0e:	e9 8d f7 ff ff       	jmp    80534a0 <_vfiprintf_r+0x2e0>
 8053d13:	90                   	nop
 8053d14:	8d 74 26 00          	lea    0x0(%esi,%eiz,1),%esi
 8053d18:	85 d2                	test   %edx,%edx
 8053d1a:	0f 85 e6 fd ff ff    	jne    8053b06 <_vfiprintf_r+0x946>
 8053d20:	8b 85 44 ff ff ff    	mov    -0xbc(%ebp),%eax
 8053d26:	8d 75 a8             	lea    -0x58(%ebp),%esi
 8053d29:	c7 85 78 ff ff ff 01 	movl   $0x1,-0x88(%ebp)
 8053d30:	00 00 00 
 8053d33:	89 45 a8             	mov    %eax,-0x58(%ebp)
 8053d36:	8b 85 58 ff ff ff    	mov    -0xa8(%ebp),%eax
 8053d3c:	89 45 ac             	mov    %eax,-0x54(%ebp)
 8053d3f:	89 c2                	mov    %eax,%edx
 8053d41:	89 85 7c ff ff ff    	mov    %eax,-0x84(%ebp)
 8053d47:	83 c6 08             	add    $0x8,%esi
 8053d4a:	e9 1e fe ff ff       	jmp    8053b6d <_vfiprintf_r+0x9ad>
 8053d4f:	90                   	nop
 8053d50:	8d 45 a8             	lea    -0x58(%ebp),%eax
 8053d53:	c7 85 58 ff ff ff 00 	movl   $0x0,-0xa8(%ebp)
 8053d5a:	00 00 00 
 8053d5d:	89 85 44 ff ff ff    	mov    %eax,-0xbc(%ebp)
 8053d63:	e9 38 f7 ff ff       	jmp    80534a0 <_vfiprintf_r+0x2e0>
 8053d68:	8b bd 54 ff ff ff    	mov    -0xac(%ebp),%edi
 8053d6e:	2b bd 60 ff ff ff    	sub    -0xa0(%ebp),%edi
 8053d74:	85 ff                	test   %edi,%edi
 8053d76:	0f 8e c4 fc ff ff    	jle    8053a40 <_vfiprintf_r+0x880>
 8053d7c:	83 ff 10             	cmp    $0x10,%edi
 8053d7f:	7f 17                	jg     8053d98 <_vfiprintf_r+0xbd8>
 8053d81:	e9 88 03 00 00       	jmp    805410e <_vfiprintf_r+0xf4e>
 8053d86:	66 90                	xchg   %ax,%ax
 8053d88:	8d 58 02             	lea    0x2(%eax),%ebx
 8053d8b:	83 c6 08             	add    $0x8,%esi
 8053d8e:	89 c8                	mov    %ecx,%eax
 8053d90:	83 ef 10             	sub    $0x10,%edi
 8053d93:	83 ff 10             	cmp    $0x10,%edi
 8053d96:	7e 3a                	jle    8053dd2 <_vfiprintf_r+0xc12>
 8053d98:	8d 48 01             	lea    0x1(%eax),%ecx
 8053d9b:	83 c2 10             	add    $0x10,%edx
 8053d9e:	83 f9 07             	cmp    $0x7,%ecx
 8053da1:	c7 06 90 6c 05 08    	movl   $0x8056c90,(%esi)
 8053da7:	c7 46 04 10 00 00 00 	movl   $0x10,0x4(%esi)
 8053dae:	89 95 7c ff ff ff    	mov    %edx,-0x84(%ebp)
 8053db4:	89 8d 78 ff ff ff    	mov    %ecx,-0x88(%ebp)
 8053dba:	7e cc                	jle    8053d88 <_vfiprintf_r+0xbc8>
 8053dbc:	85 d2                	test   %edx,%edx
 8053dbe:	75 40                	jne    8053e00 <_vfiprintf_r+0xc40>
 8053dc0:	83 ef 10             	sub    $0x10,%edi
 8053dc3:	31 c0                	xor    %eax,%eax
 8053dc5:	83 ff 10             	cmp    $0x10,%edi
 8053dc8:	bb 01 00 00 00       	mov    $0x1,%ebx
 8053dcd:	8d 75 a8             	lea    -0x58(%ebp),%esi
 8053dd0:	7f c6                	jg     8053d98 <_vfiprintf_r+0xbd8>
 8053dd2:	01 fa                	add    %edi,%edx
 8053dd4:	83 fb 07             	cmp    $0x7,%ebx
 8053dd7:	c7 06 90 6c 05 08    	movl   $0x8056c90,(%esi)
 8053ddd:	89 7e 04             	mov    %edi,0x4(%esi)
 8053de0:	89 95 7c ff ff ff    	mov    %edx,-0x84(%ebp)
 8053de6:	89 9d 78 ff ff ff    	mov    %ebx,-0x88(%ebp)
 8053dec:	0f 8f 97 01 00 00    	jg     8053f89 <_vfiprintf_r+0xdc9>
 8053df2:	83 c6 08             	add    $0x8,%esi
 8053df5:	89 d8                	mov    %ebx,%eax
 8053df7:	8d 4b 01             	lea    0x1(%ebx),%ecx
 8053dfa:	e9 41 fc ff ff       	jmp    8053a40 <_vfiprintf_r+0x880>
 8053dff:	90                   	nop
 8053e00:	8b 55 0c             	mov    0xc(%ebp),%edx
 8053e03:	8d 8d 74 ff ff ff    	lea    -0x8c(%ebp),%ecx
 8053e09:	8b 45 08             	mov    0x8(%ebp),%eax
 8053e0c:	e8 9f f2 ff ff       	call   80530b0 <__sprint_r.part.0>
 8053e11:	85 c0                	test   %eax,%eax
 8053e13:	0f 85 cf fc ff ff    	jne    8053ae8 <_vfiprintf_r+0x928>
 8053e19:	8b 85 78 ff ff ff    	mov    -0x88(%ebp),%eax
 8053e1f:	8d 75 a8             	lea    -0x58(%ebp),%esi
 8053e22:	8b 95 7c ff ff ff    	mov    -0x84(%ebp),%edx
 8053e28:	8d 58 01             	lea    0x1(%eax),%ebx
 8053e2b:	e9 60 ff ff ff       	jmp    8053d90 <_vfiprintf_r+0xbd0>
 8053e30:	85 d2                	test   %edx,%edx
 8053e32:	0f 85 f1 00 00 00    	jne    8053f29 <_vfiprintf_r+0xd69>
 8053e38:	b9 01 00 00 00       	mov    $0x1,%ecx
 8053e3d:	31 c0                	xor    %eax,%eax
 8053e3f:	8d 75 a8             	lea    -0x58(%ebp),%esi
 8053e42:	e9 b0 fb ff ff       	jmp    80539f7 <_vfiprintf_r+0x837>
 8053e47:	90                   	nop
 8053e48:	85 d2                	test   %edx,%edx
 8053e4a:	0f 85 09 01 00 00    	jne    8053f59 <_vfiprintf_r+0xd99>
 8053e50:	b9 01 00 00 00       	mov    $0x1,%ecx
 8053e55:	31 c0                	xor    %eax,%eax
 8053e57:	8d 75 a8             	lea    -0x58(%ebp),%esi
 8053e5a:	e9 d1 fb ff ff       	jmp    8053a30 <_vfiprintf_r+0x870>
 8053e5f:	90                   	nop
 8053e60:	89 c2                	mov    %eax,%edx
 8053e62:	8d b6 00 00 00 00    	lea    0x0(%esi),%esi
 8053e68:	89 c8                	mov    %ecx,%eax
 8053e6a:	83 ea 01             	sub    $0x1,%edx
 8053e6d:	83 e0 07             	and    $0x7,%eax
 8053e70:	c1 e9 03             	shr    $0x3,%ecx
 8053e73:	83 c0 30             	add    $0x30,%eax
 8053e76:	85 c9                	test   %ecx,%ecx
 8053e78:	88 02                	mov    %al,(%edx)
 8053e7a:	75 ec                	jne    8053e68 <_vfiprintf_r+0xca8>
 8053e7c:	f6 85 64 ff ff ff 01 	testb  $0x1,-0x9c(%ebp)
 8053e83:	89 95 44 ff ff ff    	mov    %edx,-0xbc(%ebp)
 8053e89:	0f 85 5b 01 00 00    	jne    8053fea <_vfiprintf_r+0xe2a>
 8053e8f:	8d 45 a8             	lea    -0x58(%ebp),%eax
 8053e92:	29 d0                	sub    %edx,%eax
 8053e94:	89 85 58 ff ff ff    	mov    %eax,-0xa8(%ebp)
 8053e9a:	e9 01 f6 ff ff       	jmp    80534a0 <_vfiprintf_r+0x2e0>
 8053e9f:	90                   	nop
 8053ea0:	85 d2                	test   %edx,%edx
 8053ea2:	0f 85 7d 01 00 00    	jne    8054025 <_vfiprintf_r+0xe65>
 8053ea8:	31 c0                	xor    %eax,%eax
 8053eaa:	b9 01 00 00 00       	mov    $0x1,%ecx
 8053eaf:	8d 75 a8             	lea    -0x58(%ebp),%esi
 8053eb2:	e9 08 fb ff ff       	jmp    80539bf <_vfiprintf_r+0x7ff>
 8053eb7:	90                   	nop
 8053eb8:	83 f9 09             	cmp    $0x9,%ecx
 8053ebb:	0f 87 df 00 00 00    	ja     8053fa0 <_vfiprintf_r+0xde0>
 8053ec1:	8b 85 3c ff ff ff    	mov    -0xc4(%ebp),%eax
 8053ec7:	83 c1 30             	add    $0x30,%ecx
 8053eca:	88 4d a7             	mov    %cl,-0x59(%ebp)
 8053ecd:	89 85 58 ff ff ff    	mov    %eax,-0xa8(%ebp)
 8053ed3:	8d 45 a7             	lea    -0x59(%ebp),%eax
 8053ed6:	89 85 44 ff ff ff    	mov    %eax,-0xbc(%ebp)
 8053edc:	e9 bf f5 ff ff       	jmp    80534a0 <_vfiprintf_r+0x2e0>
 8053ee1:	8b 55 0c             	mov    0xc(%ebp),%edx
 8053ee4:	8d 8d 74 ff ff ff    	lea    -0x8c(%ebp),%ecx
 8053eea:	8b 45 08             	mov    0x8(%ebp),%eax
 8053eed:	e8 be f1 ff ff       	call   80530b0 <__sprint_r.part.0>
 8053ef2:	85 c0                	test   %eax,%eax
 8053ef4:	0f 85 ee fb ff ff    	jne    8053ae8 <_vfiprintf_r+0x928>
 8053efa:	8b 95 7c ff ff ff    	mov    -0x84(%ebp),%edx
 8053f00:	8d 75 a8             	lea    -0x58(%ebp),%esi
 8053f03:	e9 65 fc ff ff       	jmp    8053b6d <_vfiprintf_r+0x9ad>
 8053f08:	8b 55 0c             	mov    0xc(%ebp),%edx
 8053f0b:	8d 8d 74 ff ff ff    	lea    -0x8c(%ebp),%ecx
 8053f11:	8b 45 08             	mov    0x8(%ebp),%eax
 8053f14:	e8 97 f1 ff ff       	call   80530b0 <__sprint_r.part.0>
 8053f19:	85 c0                	test   %eax,%eax
 8053f1b:	0f 85 c7 fb ff ff    	jne    8053ae8 <_vfiprintf_r+0x928>
 8053f21:	8d 75 a8             	lea    -0x58(%ebp),%esi
 8053f24:	e9 98 f3 ff ff       	jmp    80532c1 <_vfiprintf_r+0x101>
 8053f29:	8b 55 0c             	mov    0xc(%ebp),%edx
 8053f2c:	8d 8d 74 ff ff ff    	lea    -0x8c(%ebp),%ecx
 8053f32:	8b 45 08             	mov    0x8(%ebp),%eax
 8053f35:	e8 76 f1 ff ff       	call   80530b0 <__sprint_r.part.0>
 8053f3a:	85 c0                	test   %eax,%eax
 8053f3c:	0f 85 a6 fb ff ff    	jne    8053ae8 <_vfiprintf_r+0x928>
 8053f42:	8b 85 78 ff ff ff    	mov    -0x88(%ebp),%eax
 8053f48:	8d 75 a8             	lea    -0x58(%ebp),%esi
 8053f4b:	8b 95 7c ff ff ff    	mov    -0x84(%ebp),%edx
 8053f51:	8d 48 01             	lea    0x1(%eax),%ecx
 8053f54:	e9 9e fa ff ff       	jmp    80539f7 <_vfiprintf_r+0x837>
 8053f59:	8b 55 0c             	mov    0xc(%ebp),%edx
 8053f5c:	8d 8d 74 ff ff ff    	lea    -0x8c(%ebp),%ecx
 8053f62:	8b 45 08             	mov    0x8(%ebp),%eax
 8053f65:	e8 46 f1 ff ff       	call   80530b0 <__sprint_r.part.0>
 8053f6a:	85 c0                	test   %eax,%eax
 8053f6c:	0f 85 76 fb ff ff    	jne    8053ae8 <_vfiprintf_r+0x928>
 8053f72:	8b 85 78 ff ff ff    	mov    -0x88(%ebp),%eax
 8053f78:	8d 75 a8             	lea    -0x58(%ebp),%esi
 8053f7b:	8b 95 7c ff ff ff    	mov    -0x84(%ebp),%edx
 8053f81:	8d 48 01             	lea    0x1(%eax),%ecx
 8053f84:	e9 a7 fa ff ff       	jmp    8053a30 <_vfiprintf_r+0x870>
 8053f89:	85 d2                	test   %edx,%edx
 8053f8b:	0f 85 f1 00 00 00    	jne    8054082 <_vfiprintf_r+0xec2>
 8053f91:	b9 01 00 00 00       	mov    $0x1,%ecx
 8053f96:	31 c0                	xor    %eax,%eax
 8053f98:	8d 75 a8             	lea    -0x58(%ebp),%esi
 8053f9b:	e9 a0 fa ff ff       	jmp    8053a40 <_vfiprintf_r+0x880>
 8053fa0:	8d 45 a8             	lea    -0x58(%ebp),%eax
 8053fa3:	bb cd cc cc cc       	mov    $0xcccccccd,%ebx
 8053fa8:	89 b5 60 ff ff ff    	mov    %esi,-0xa0(%ebp)
 8053fae:	89 c6                	mov    %eax,%esi
 8053fb0:	89 c8                	mov    %ecx,%eax
 8053fb2:	83 ee 01             	sub    $0x1,%esi
 8053fb5:	f7 e3                	mul    %ebx
 8053fb7:	c1 ea 03             	shr    $0x3,%edx
 8053fba:	8d 04 92             	lea    (%edx,%edx,4),%eax
 8053fbd:	01 c0                	add    %eax,%eax
 8053fbf:	29 c1                	sub    %eax,%ecx
 8053fc1:	83 c1 30             	add    $0x30,%ecx
 8053fc4:	85 d2                	test   %edx,%edx
 8053fc6:	88 0e                	mov    %cl,(%esi)
 8053fc8:	89 d1                	mov    %edx,%ecx
 8053fca:	75 e4                	jne    8053fb0 <_vfiprintf_r+0xdf0>
 8053fcc:	89 f1                	mov    %esi,%ecx
 8053fce:	8d 45 a8             	lea    -0x58(%ebp),%eax
 8053fd1:	29 c8                	sub    %ecx,%eax
 8053fd3:	89 b5 44 ff ff ff    	mov    %esi,-0xbc(%ebp)
 8053fd9:	8b b5 60 ff ff ff    	mov    -0xa0(%ebp),%esi
 8053fdf:	89 85 58 ff ff ff    	mov    %eax,-0xa8(%ebp)
 8053fe5:	e9 b6 f4 ff ff       	jmp    80534a0 <_vfiprintf_r+0x2e0>
 8053fea:	3c 30                	cmp    $0x30,%al
 8053fec:	74 0b                	je     8053ff9 <_vfiprintf_r+0xe39>
 8053fee:	83 ad 44 ff ff ff 01 	subl   $0x1,-0xbc(%ebp)
 8053ff5:	c6 42 ff 30          	movb   $0x30,-0x1(%edx)
 8053ff9:	8d 45 a8             	lea    -0x58(%ebp),%eax
 8053ffc:	2b 85 44 ff ff ff    	sub    -0xbc(%ebp),%eax
 8054002:	89 85 58 ff ff ff    	mov    %eax,-0xa8(%ebp)
 8054008:	e9 93 f4 ff ff       	jmp    80534a0 <_vfiprintf_r+0x2e0>
 805400d:	f7 d9                	neg    %ecx
 805400f:	bf 2d 00 00 00       	mov    $0x2d,%edi
 8054014:	c6 85 71 ff ff ff 2d 	movb   $0x2d,-0x8f(%ebp)
 805401b:	ba 01 00 00 00       	mov    $0x1,%edx
 8054020:	e9 0c f4 ff ff       	jmp    8053431 <_vfiprintf_r+0x271>
 8054025:	8b 55 0c             	mov    0xc(%ebp),%edx
 8054028:	8d 8d 74 ff ff ff    	lea    -0x8c(%ebp),%ecx
 805402e:	8b 45 08             	mov    0x8(%ebp),%eax
 8054031:	e8 7a f0 ff ff       	call   80530b0 <__sprint_r.part.0>
 8054036:	85 c0                	test   %eax,%eax
 8054038:	0f 85 aa fa ff ff    	jne    8053ae8 <_vfiprintf_r+0x928>
 805403e:	8b 85 78 ff ff ff    	mov    -0x88(%ebp),%eax
 8054044:	8d 75 a8             	lea    -0x58(%ebp),%esi
 8054047:	8b 95 7c ff ff ff    	mov    -0x84(%ebp),%edx
 805404d:	8d 48 01             	lea    0x1(%eax),%ecx
 8054050:	e9 6a f9 ff ff       	jmp    80539bf <_vfiprintf_r+0x7ff>
 8054055:	8b 85 44 ff ff ff    	mov    -0xbc(%ebp),%eax
 805405b:	89 04 24             	mov    %eax,(%esp)
 805405e:	e8 4d 65 ff ff       	call   804a5b0 <strlen>
 8054063:	0f b6 bd 71 ff ff ff 	movzbl -0x8f(%ebp),%edi
 805406a:	89 5d 14             	mov    %ebx,0x14(%ebp)
 805406d:	c7 85 5c ff ff ff 00 	movl   $0x0,-0xa4(%ebp)
 8054074:	00 00 00 
 8054077:	89 85 58 ff ff ff    	mov    %eax,-0xa8(%ebp)
 805407d:	e9 1e f4 ff ff       	jmp    80534a0 <_vfiprintf_r+0x2e0>
 8054082:	8b 55 0c             	mov    0xc(%ebp),%edx
 8054085:	8d 8d 74 ff ff ff    	lea    -0x8c(%ebp),%ecx
 805408b:	8b 45 08             	mov    0x8(%ebp),%eax
 805408e:	e8 1d f0 ff ff       	call   80530b0 <__sprint_r.part.0>
 8054093:	85 c0                	test   %eax,%eax
 8054095:	0f 85 4d fa ff ff    	jne    8053ae8 <_vfiprintf_r+0x928>
 805409b:	8b 85 78 ff ff ff    	mov    -0x88(%ebp),%eax
 80540a1:	8d 75 a8             	lea    -0x58(%ebp),%esi
 80540a4:	8b 95 7c ff ff ff    	mov    -0x84(%ebp),%edx
 80540aa:	8d 48 01             	lea    0x1(%eax),%ecx
 80540ad:	e9 8e f9 ff ff       	jmp    8053a40 <_vfiprintf_r+0x880>
 80540b2:	8b bd 5c ff ff ff    	mov    -0xa4(%ebp),%edi
 80540b8:	b0 06                	mov    $0x6,%al
 80540ba:	89 5d 14             	mov    %ebx,0x14(%ebp)
 80540bd:	83 ff 06             	cmp    $0x6,%edi
 80540c0:	0f 46 c7             	cmovbe %edi,%eax
 80540c3:	8b bd 44 ff ff ff    	mov    -0xbc(%ebp),%edi
 80540c9:	85 c0                	test   %eax,%eax
 80540cb:	89 85 58 ff ff ff    	mov    %eax,-0xa8(%ebp)
 80540d1:	c7 85 44 ff ff ff ca 	movl   $0x80564ca,-0xbc(%ebp)
 80540d8:	64 05 08 
 80540db:	0f 49 f8             	cmovns %eax,%edi
 80540de:	89 bd 60 ff ff ff    	mov    %edi,-0xa0(%ebp)
 80540e4:	e9 f6 f6 ff ff       	jmp    80537df <_vfiprintf_r+0x61f>
 80540e9:	8b 85 5c ff ff ff    	mov    -0xa4(%ebp),%eax
 80540ef:	0f b6 bd 71 ff ff ff 	movzbl -0x8f(%ebp),%edi
 80540f6:	89 5d 14             	mov    %ebx,0x14(%ebp)
 80540f9:	c7 85 5c ff ff ff 00 	movl   $0x0,-0xa4(%ebp)
 8054100:	00 00 00 
 8054103:	89 85 58 ff ff ff    	mov    %eax,-0xa8(%ebp)
 8054109:	e9 92 f3 ff ff       	jmp    80534a0 <_vfiprintf_r+0x2e0>
 805410e:	89 cb                	mov    %ecx,%ebx
 8054110:	e9 bd fc ff ff       	jmp    8053dd2 <_vfiprintf_r+0xc12>
 8054115:	89 da                	mov    %ebx,%edx
 8054117:	c7 85 5c ff ff ff 00 	movl   $0x0,-0xa4(%ebp)
 805411e:	00 00 00 
 8054121:	e9 da f1 ff ff       	jmp    8053300 <_vfiprintf_r+0x140>
 8054126:	8b 4d 14             	mov    0x14(%ebp),%ecx
 8054129:	89 da                	mov    %ebx,%edx
 805412b:	8b 45 14             	mov    0x14(%ebp),%eax
 805412e:	8b 09                	mov    (%ecx),%ecx
 8054130:	83 c0 04             	add    $0x4,%eax
 8054133:	89 45 14             	mov    %eax,0x14(%ebp)
 8054136:	85 c9                	test   %ecx,%ecx
 8054138:	89 8d 5c ff ff ff    	mov    %ecx,-0xa4(%ebp)
 805413e:	0f 89 f3 f1 ff ff    	jns    8053337 <_vfiprintf_r+0x177>
 8054144:	c7 85 5c ff ff ff ff 	movl   $0xffffffff,-0xa4(%ebp)
 805414b:	ff ff ff 
 805414e:	89 d3                	mov    %edx,%ebx
 8054150:	e9 a5 f1 ff ff       	jmp    80532fa <_vfiprintf_r+0x13a>
 8054155:	8d 74 26 00          	lea    0x0(%esi,%eiz,1),%esi
 8054159:	8d bc 27 00 00 00 00 	lea    0x0(%edi,%eiz,1),%edi

08054160 <vfiprintf>:
 8054160:	55                   	push   %ebp
 8054161:	89 e5                	mov    %esp,%ebp
 8054163:	83 ec 18             	sub    $0x18,%esp
 8054166:	e8 55 c4 ff ff       	call   80505c0 <__getreent>
 805416b:	8b 55 10             	mov    0x10(%ebp),%edx
 805416e:	89 54 24 0c          	mov    %edx,0xc(%esp)
 8054172:	8b 55 0c             	mov    0xc(%ebp),%edx
 8054175:	89 04 24             	mov    %eax,(%esp)
 8054178:	89 54 24 08          	mov    %edx,0x8(%esp)
 805417c:	8b 55 08             	mov    0x8(%ebp),%edx
 805417f:	89 54 24 04          	mov    %edx,0x4(%esp)
 8054183:	e8 38 f0 ff ff       	call   80531c0 <_vfiprintf_r>
 8054188:	c9                   	leave  
 8054189:	c3                   	ret    
 805418a:	8d b6 00 00 00 00    	lea    0x0(%esi),%esi

08054190 <__sbprintf>:
 8054190:	55                   	push   %ebp
 8054191:	89 e5                	mov    %esp,%ebp
 8054193:	57                   	push   %edi
 8054194:	89 c7                	mov    %eax,%edi
 8054196:	56                   	push   %esi
 8054197:	53                   	push   %ebx
 8054198:	89 d3                	mov    %edx,%ebx
 805419a:	81 ec 9c 04 00 00    	sub    $0x49c,%esp
 80541a0:	0f b7 42 0c          	movzwl 0xc(%edx),%eax
 80541a4:	c7 85 88 fb ff ff 00 	movl   $0x400,-0x478(%ebp)
 80541ab:	04 00 00 
 80541ae:	c7 85 94 fb ff ff 00 	movl   $0x400,-0x46c(%ebp)
 80541b5:	04 00 00 
 80541b8:	c7 85 98 fb ff ff 00 	movl   $0x0,-0x468(%ebp)
 80541bf:	00 00 00 
 80541c2:	83 e0 fd             	and    $0xfffffffd,%eax
 80541c5:	66 89 85 8c fb ff ff 	mov    %ax,-0x474(%ebp)
 80541cc:	8b 42 64             	mov    0x64(%edx),%eax
 80541cf:	89 85 e4 fb ff ff    	mov    %eax,-0x41c(%ebp)
 80541d5:	0f b7 42 0e          	movzwl 0xe(%edx),%eax
 80541d9:	66 89 85 8e fb ff ff 	mov    %ax,-0x472(%ebp)
 80541e0:	8b 42 1c             	mov    0x1c(%edx),%eax
 80541e3:	89 85 9c fb ff ff    	mov    %eax,-0x464(%ebp)
 80541e9:	8b 42 24             	mov    0x24(%edx),%eax
 80541ec:	8d 95 80 fb ff ff    	lea    -0x480(%ebp),%edx
 80541f2:	89 4c 24 08          	mov    %ecx,0x8(%esp)
 80541f6:	89 54 24 04          	mov    %edx,0x4(%esp)
 80541fa:	89 3c 24             	mov    %edi,(%esp)
 80541fd:	89 85 a4 fb ff ff    	mov    %eax,-0x45c(%ebp)
 8054203:	8d 85 e8 fb ff ff    	lea    -0x418(%ebp),%eax
 8054209:	89 85 80 fb ff ff    	mov    %eax,-0x480(%ebp)
 805420f:	89 85 90 fb ff ff    	mov    %eax,-0x470(%ebp)
 8054215:	8b 45 08             	mov    0x8(%ebp),%eax
 8054218:	89 95 74 fb ff ff    	mov    %edx,-0x48c(%ebp)
 805421e:	89 44 24 0c          	mov    %eax,0xc(%esp)
 8054222:	e8 99 ef ff ff       	call   80531c0 <_vfiprintf_r>
 8054227:	85 c0                	test   %eax,%eax
 8054229:	89 c6                	mov    %eax,%esi
 805422b:	78 1c                	js     8054249 <__sbprintf+0xb9>
 805422d:	8b 95 74 fb ff ff    	mov    -0x48c(%ebp),%edx
 8054233:	89 3c 24             	mov    %edi,(%esp)
 8054236:	89 54 24 04          	mov    %edx,0x4(%esp)
 805423a:	e8 71 ba ff ff       	call   804fcb0 <_fflush_r>
 805423f:	85 c0                	test   %eax,%eax
 8054241:	b8 ff ff ff ff       	mov    $0xffffffff,%eax
 8054246:	0f 45 f0             	cmovne %eax,%esi
 8054249:	f6 85 8c fb ff ff 40 	testb  $0x40,-0x474(%ebp)
 8054250:	74 05                	je     8054257 <__sbprintf+0xc7>
 8054252:	66 83 4b 0c 40       	orw    $0x40,0xc(%ebx)
 8054257:	81 c4 9c 04 00 00    	add    $0x49c,%esp
 805425d:	89 f0                	mov    %esi,%eax
 805425f:	5b                   	pop    %ebx
 8054260:	5e                   	pop    %esi
 8054261:	5f                   	pop    %edi
 8054262:	5d                   	pop    %ebp
 8054263:	c3                   	ret    
 8054264:	66 90                	xchg   %ax,%ax
 8054266:	66 90                	xchg   %ax,%ax
 8054268:	66 90                	xchg   %ax,%ax
 805426a:	66 90                	xchg   %ax,%ax
 805426c:	66 90                	xchg   %ax,%ax
 805426e:	66 90                	xchg   %ax,%ax

08054270 <_write_r>:
 8054270:	55                   	push   %ebp
 8054271:	89 e5                	mov    %esp,%ebp
 8054273:	83 ec 18             	sub    $0x18,%esp
 8054276:	8b 45 14             	mov    0x14(%ebp),%eax
 8054279:	c7 05 94 06 07 08 00 	movl   $0x0,0x8070694
 8054280:	00 00 00 
 8054283:	89 44 24 08          	mov    %eax,0x8(%esp)
 8054287:	8b 45 10             	mov    0x10(%ebp),%eax
 805428a:	89 44 24 04          	mov    %eax,0x4(%esp)
 805428e:	8b 45 0c             	mov    0xc(%ebp),%eax
 8054291:	89 04 24             	mov    %eax,(%esp)
 8054294:	e8 10 4f ff ff       	call   80491a9 <write>
 8054299:	83 f8 ff             	cmp    $0xffffffff,%eax
 805429c:	74 02                	je     80542a0 <_write_r+0x30>
 805429e:	c9                   	leave  
 805429f:	c3                   	ret    
 80542a0:	8b 15 94 06 07 08    	mov    0x8070694,%edx
 80542a6:	85 d2                	test   %edx,%edx
 80542a8:	74 f4                	je     805429e <_write_r+0x2e>
 80542aa:	8b 4d 08             	mov    0x8(%ebp),%ecx
 80542ad:	89 11                	mov    %edx,(%ecx)
 80542af:	c9                   	leave  
 80542b0:	c3                   	ret    
 80542b1:	66 90                	xchg   %ax,%ax
 80542b3:	66 90                	xchg   %ax,%ax
 80542b5:	66 90                	xchg   %ax,%ax
 80542b7:	66 90                	xchg   %ax,%ax
 80542b9:	66 90                	xchg   %ax,%ax
 80542bb:	66 90                	xchg   %ax,%ax
 80542bd:	66 90                	xchg   %ax,%ax
 80542bf:	90                   	nop

080542c0 <_calloc_r>:
 80542c0:	55                   	push   %ebp
 80542c1:	89 e5                	mov    %esp,%ebp
 80542c3:	53                   	push   %ebx
 80542c4:	83 ec 14             	sub    $0x14,%esp
 80542c7:	8b 45 10             	mov    0x10(%ebp),%eax
 80542ca:	0f af 45 0c          	imul   0xc(%ebp),%eax
 80542ce:	89 44 24 04          	mov    %eax,0x4(%esp)
 80542d2:	8b 45 08             	mov    0x8(%ebp),%eax
 80542d5:	89 04 24             	mov    %eax,(%esp)
 80542d8:	e8 43 c5 ff ff       	call   8050820 <_malloc_r>
 80542dd:	85 c0                	test   %eax,%eax
 80542df:	89 c3                	mov    %eax,%ebx
 80542e1:	0f 84 91 00 00 00    	je     8054378 <_calloc_r+0xb8>
 80542e7:	8b 40 fc             	mov    -0x4(%eax),%eax
 80542ea:	83 e0 fc             	and    $0xfffffffc,%eax
 80542ed:	83 e8 04             	sub    $0x4,%eax
 80542f0:	83 f8 24             	cmp    $0x24,%eax
 80542f3:	77 63                	ja     8054358 <_calloc_r+0x98>
 80542f5:	83 f8 13             	cmp    $0x13,%eax
 80542f8:	89 da                	mov    %ebx,%edx
 80542fa:	77 1c                	ja     8054318 <_calloc_r+0x58>
 80542fc:	c7 02 00 00 00 00    	movl   $0x0,(%edx)
 8054302:	89 d8                	mov    %ebx,%eax
 8054304:	c7 42 04 00 00 00 00 	movl   $0x0,0x4(%edx)
 805430b:	c7 42 08 00 00 00 00 	movl   $0x0,0x8(%edx)
 8054312:	83 c4 14             	add    $0x14,%esp
 8054315:	5b                   	pop    %ebx
 8054316:	5d                   	pop    %ebp
 8054317:	c3                   	ret    
 8054318:	83 f8 1b             	cmp    $0x1b,%eax
 805431b:	c7 03 00 00 00 00    	movl   $0x0,(%ebx)
 8054321:	8d 53 08             	lea    0x8(%ebx),%edx
 8054324:	c7 43 04 00 00 00 00 	movl   $0x0,0x4(%ebx)
 805432b:	76 cf                	jbe    80542fc <_calloc_r+0x3c>
 805432d:	83 f8 24             	cmp    $0x24,%eax
 8054330:	c7 43 08 00 00 00 00 	movl   $0x0,0x8(%ebx)
 8054337:	8d 53 10             	lea    0x10(%ebx),%edx
 805433a:	c7 43 0c 00 00 00 00 	movl   $0x0,0xc(%ebx)
 8054341:	75 b9                	jne    80542fc <_calloc_r+0x3c>
 8054343:	c7 43 10 00 00 00 00 	movl   $0x0,0x10(%ebx)
 805434a:	8d 53 18             	lea    0x18(%ebx),%edx
 805434d:	c7 43 14 00 00 00 00 	movl   $0x0,0x14(%ebx)
 8054354:	eb a6                	jmp    80542fc <_calloc_r+0x3c>
 8054356:	66 90                	xchg   %ax,%ax
 8054358:	89 1c 24             	mov    %ebx,(%esp)
 805435b:	89 44 24 08          	mov    %eax,0x8(%esp)
 805435f:	c7 44 24 04 00 00 00 	movl   $0x0,0x4(%esp)
 8054366:	00 
 8054367:	e8 aa 5f ff ff       	call   804a316 <memset>
 805436c:	83 c4 14             	add    $0x14,%esp
 805436f:	89 d8                	mov    %ebx,%eax
 8054371:	5b                   	pop    %ebx
 8054372:	5d                   	pop    %ebp
 8054373:	c3                   	ret    
 8054374:	8d 74 26 00          	lea    0x0(%esi,%eiz,1),%esi
 8054378:	31 c0                	xor    %eax,%eax
 805437a:	eb 96                	jmp    8054312 <_calloc_r+0x52>
 805437c:	66 90                	xchg   %ax,%ax
 805437e:	66 90                	xchg   %ax,%ax

08054380 <_close_r>:
 8054380:	55                   	push   %ebp
 8054381:	89 e5                	mov    %esp,%ebp
 8054383:	83 ec 18             	sub    $0x18,%esp
 8054386:	8b 45 0c             	mov    0xc(%ebp),%eax
 8054389:	c7 05 94 06 07 08 00 	movl   $0x0,0x8070694
 8054390:	00 00 00 
 8054393:	89 04 24             	mov    %eax,(%esp)
 8054396:	e8 bc 4e ff ff       	call   8049257 <close>
 805439b:	83 f8 ff             	cmp    $0xffffffff,%eax
 805439e:	74 08                	je     80543a8 <_close_r+0x28>
 80543a0:	c9                   	leave  
 80543a1:	c3                   	ret    
 80543a2:	8d b6 00 00 00 00    	lea    0x0(%esi),%esi
 80543a8:	8b 15 94 06 07 08    	mov    0x8070694,%edx
 80543ae:	85 d2                	test   %edx,%edx
 80543b0:	74 ee                	je     80543a0 <_close_r+0x20>
 80543b2:	8b 4d 08             	mov    0x8(%ebp),%ecx
 80543b5:	89 11                	mov    %edx,(%ecx)
 80543b7:	c9                   	leave  
 80543b8:	c3                   	ret    
 80543b9:	66 90                	xchg   %ax,%ax
 80543bb:	66 90                	xchg   %ax,%ax
 80543bd:	66 90                	xchg   %ax,%ax
 80543bf:	90                   	nop

080543c0 <_fclose_r>:
 80543c0:	55                   	push   %ebp
 80543c1:	89 e5                	mov    %esp,%ebp
 80543c3:	57                   	push   %edi
 80543c4:	56                   	push   %esi
 80543c5:	53                   	push   %ebx
 80543c6:	83 ec 1c             	sub    $0x1c,%esp
 80543c9:	8b 5d 0c             	mov    0xc(%ebp),%ebx
 80543cc:	8b 75 08             	mov    0x8(%ebp),%esi
 80543cf:	85 db                	test   %ebx,%ebx
 80543d1:	74 16                	je     80543e9 <_fclose_r+0x29>
 80543d3:	85 f6                	test   %esi,%esi
 80543d5:	74 0b                	je     80543e2 <_fclose_r+0x22>
 80543d7:	8b 56 38             	mov    0x38(%esi),%edx
 80543da:	85 d2                	test   %edx,%edx
 80543dc:	0f 84 9e 00 00 00    	je     8054480 <_fclose_r+0xc0>
 80543e2:	66 83 7b 0c 00       	cmpw   $0x0,0xc(%ebx)
 80543e7:	75 0f                	jne    80543f8 <_fclose_r+0x38>
 80543e9:	83 c4 1c             	add    $0x1c,%esp
 80543ec:	31 c0                	xor    %eax,%eax
 80543ee:	5b                   	pop    %ebx
 80543ef:	5e                   	pop    %esi
 80543f0:	5f                   	pop    %edi
 80543f1:	5d                   	pop    %ebp
 80543f2:	c3                   	ret    
 80543f3:	90                   	nop
 80543f4:	8d 74 26 00          	lea    0x0(%esi,%eiz,1),%esi
 80543f8:	89 5c 24 04          	mov    %ebx,0x4(%esp)
 80543fc:	89 34 24             	mov    %esi,(%esp)
 80543ff:	e8 ac b8 ff ff       	call   804fcb0 <_fflush_r>
 8054404:	89 c7                	mov    %eax,%edi
 8054406:	8b 43 2c             	mov    0x2c(%ebx),%eax
 8054409:	85 c0                	test   %eax,%eax
 805440b:	74 16                	je     8054423 <_fclose_r+0x63>
 805440d:	8b 53 1c             	mov    0x1c(%ebx),%edx
 8054410:	89 34 24             	mov    %esi,(%esp)
 8054413:	89 54 24 04          	mov    %edx,0x4(%esp)
 8054417:	ff d0                	call   *%eax
 8054419:	85 c0                	test   %eax,%eax
 805441b:	b8 ff ff ff ff       	mov    $0xffffffff,%eax
 8054420:	0f 48 f8             	cmovs  %eax,%edi
 8054423:	f6 43 0c 80          	testb  $0x80,0xc(%ebx)
 8054427:	75 67                	jne    8054490 <_fclose_r+0xd0>
 8054429:	8b 43 30             	mov    0x30(%ebx),%eax
 805442c:	85 c0                	test   %eax,%eax
 805442e:	74 1a                	je     805444a <_fclose_r+0x8a>
 8054430:	8d 53 40             	lea    0x40(%ebx),%edx
 8054433:	39 d0                	cmp    %edx,%eax
 8054435:	74 0c                	je     8054443 <_fclose_r+0x83>
 8054437:	89 44 24 04          	mov    %eax,0x4(%esp)
 805443b:	89 34 24             	mov    %esi,(%esp)
 805443e:	e8 2d be ff ff       	call   8050270 <_free_r>
 8054443:	c7 43 30 00 00 00 00 	movl   $0x0,0x30(%ebx)
 805444a:	8b 43 44             	mov    0x44(%ebx),%eax
 805444d:	85 c0                	test   %eax,%eax
 805444f:	74 13                	je     8054464 <_fclose_r+0xa4>
 8054451:	89 44 24 04          	mov    %eax,0x4(%esp)
 8054455:	89 34 24             	mov    %esi,(%esp)
 8054458:	e8 13 be ff ff       	call   8050270 <_free_r>
 805445d:	c7 43 44 00 00 00 00 	movl   $0x0,0x44(%ebx)
 8054464:	e8 97 bc ff ff       	call   8050100 <__sfp_lock_acquire>
 8054469:	31 c0                	xor    %eax,%eax
 805446b:	66 89 43 0c          	mov    %ax,0xc(%ebx)
 805446f:	e8 9c bc ff ff       	call   8050110 <__sfp_lock_release>
 8054474:	83 c4 1c             	add    $0x1c,%esp
 8054477:	89 f8                	mov    %edi,%eax
 8054479:	5b                   	pop    %ebx
 805447a:	5e                   	pop    %esi
 805447b:	5f                   	pop    %edi
 805447c:	5d                   	pop    %ebp
 805447d:	c3                   	ret    
 805447e:	66 90                	xchg   %ax,%ax
 8054480:	89 34 24             	mov    %esi,(%esp)
 8054483:	e8 98 b9 ff ff       	call   804fe20 <__sinit>
 8054488:	e9 55 ff ff ff       	jmp    80543e2 <_fclose_r+0x22>
 805448d:	8d 76 00             	lea    0x0(%esi),%esi
 8054490:	8b 43 10             	mov    0x10(%ebx),%eax
 8054493:	89 34 24             	mov    %esi,(%esp)
 8054496:	89 44 24 04          	mov    %eax,0x4(%esp)
 805449a:	e8 d1 bd ff ff       	call   8050270 <_free_r>
 805449f:	eb 88                	jmp    8054429 <_fclose_r+0x69>
 80544a1:	eb 0d                	jmp    80544b0 <fclose>
 80544a3:	90                   	nop
 80544a4:	90                   	nop
 80544a5:	90                   	nop
 80544a6:	90                   	nop
 80544a7:	90                   	nop
 80544a8:	90                   	nop
 80544a9:	90                   	nop
 80544aa:	90                   	nop
 80544ab:	90                   	nop
 80544ac:	90                   	nop
 80544ad:	90                   	nop
 80544ae:	90                   	nop
 80544af:	90                   	nop

080544b0 <fclose>:
 80544b0:	55                   	push   %ebp
 80544b1:	89 e5                	mov    %esp,%ebp
 80544b3:	83 ec 18             	sub    $0x18,%esp
 80544b6:	e8 05 c1 ff ff       	call   80505c0 <__getreent>
 80544bb:	8b 55 08             	mov    0x8(%ebp),%edx
 80544be:	89 54 24 04          	mov    %edx,0x4(%esp)
 80544c2:	89 04 24             	mov    %eax,(%esp)
 80544c5:	e8 f6 fe ff ff       	call   80543c0 <_fclose_r>
 80544ca:	c9                   	leave  
 80544cb:	c3                   	ret    
 80544cc:	66 90                	xchg   %ax,%ax
 80544ce:	66 90                	xchg   %ax,%ax

080544d0 <_fputwc_r>:
 80544d0:	55                   	push   %ebp
 80544d1:	89 e5                	mov    %esp,%ebp
 80544d3:	57                   	push   %edi
 80544d4:	56                   	push   %esi
 80544d5:	53                   	push   %ebx
 80544d6:	83 ec 2c             	sub    $0x2c,%esp
 80544d9:	8b 5d 10             	mov    0x10(%ebp),%ebx
 80544dc:	0f b7 43 0c          	movzwl 0xc(%ebx),%eax
 80544e0:	f6 c4 20             	test   $0x20,%ah
 80544e3:	75 0e                	jne    80544f3 <_fputwc_r+0x23>
 80544e5:	81 4b 64 00 20 00 00 	orl    $0x2000,0x64(%ebx)
 80544ec:	80 cc 20             	or     $0x20,%ah
 80544ef:	66 89 43 0c          	mov    %ax,0xc(%ebx)
 80544f3:	e8 58 c1 ff ff       	call   8050650 <__locale_mb_cur_max>
 80544f8:	83 f8 01             	cmp    $0x1,%eax
 80544fb:	0f 84 cf 00 00 00    	je     80545d0 <_fputwc_r+0x100>
 8054501:	8d 43 5c             	lea    0x5c(%ebx),%eax
 8054504:	89 44 24 0c          	mov    %eax,0xc(%esp)
 8054508:	8b 45 0c             	mov    0xc(%ebp),%eax
 805450b:	89 44 24 08          	mov    %eax,0x8(%esp)
 805450f:	8d 45 e7             	lea    -0x19(%ebp),%eax
 8054512:	89 44 24 04          	mov    %eax,0x4(%esp)
 8054516:	8b 45 08             	mov    0x8(%ebp),%eax
 8054519:	89 04 24             	mov    %eax,(%esp)
 805451c:	e8 df 0f 00 00       	call   8055500 <_wcrtomb_r>
 8054521:	83 f8 ff             	cmp    $0xffffffff,%eax
 8054524:	89 c7                	mov    %eax,%edi
 8054526:	74 60                	je     8054588 <_fputwc_r+0xb8>
 8054528:	85 ff                	test   %edi,%edi
 805452a:	0f b6 45 e7          	movzbl -0x19(%ebp),%eax
 805452e:	74 48                	je     8054578 <_fputwc_r+0xa8>
 8054530:	31 f6                	xor    %esi,%esi
 8054532:	eb 17                	jmp    805454b <_fputwc_r+0x7b>
 8054534:	8d 74 26 00          	lea    0x0(%esi,%eiz,1),%esi
 8054538:	8b 13                	mov    (%ebx),%edx
 805453a:	88 02                	mov    %al,(%edx)
 805453c:	83 03 01             	addl   $0x1,(%ebx)
 805453f:	83 c6 01             	add    $0x1,%esi
 8054542:	39 fe                	cmp    %edi,%esi
 8054544:	73 32                	jae    8054578 <_fputwc_r+0xa8>
 8054546:	0f b6 44 35 e7       	movzbl -0x19(%ebp,%esi,1),%eax
 805454b:	8b 4b 08             	mov    0x8(%ebx),%ecx
 805454e:	8d 51 ff             	lea    -0x1(%ecx),%edx
 8054551:	85 d2                	test   %edx,%edx
 8054553:	89 53 08             	mov    %edx,0x8(%ebx)
 8054556:	79 e0                	jns    8054538 <_fputwc_r+0x68>
 8054558:	3b 53 18             	cmp    0x18(%ebx),%edx
 805455b:	7c 43                	jl     80545a0 <_fputwc_r+0xd0>
 805455d:	8b 13                	mov    (%ebx),%edx
 805455f:	88 02                	mov    %al,(%edx)
 8054561:	8b 03                	mov    (%ebx),%eax
 8054563:	80 38 0a             	cmpb   $0xa,(%eax)
 8054566:	0f 84 8c 00 00 00    	je     80545f8 <_fputwc_r+0x128>
 805456c:	83 c6 01             	add    $0x1,%esi
 805456f:	83 c0 01             	add    $0x1,%eax
 8054572:	39 fe                	cmp    %edi,%esi
 8054574:	89 03                	mov    %eax,(%ebx)
 8054576:	72 ce                	jb     8054546 <_fputwc_r+0x76>
 8054578:	8b 45 0c             	mov    0xc(%ebp),%eax
 805457b:	83 c4 2c             	add    $0x2c,%esp
 805457e:	5b                   	pop    %ebx
 805457f:	5e                   	pop    %esi
 8054580:	5f                   	pop    %edi
 8054581:	5d                   	pop    %ebp
 8054582:	c3                   	ret    
 8054583:	90                   	nop
 8054584:	8d 74 26 00          	lea    0x0(%esi,%eiz,1),%esi
 8054588:	66 83 4b 0c 40       	orw    $0x40,0xc(%ebx)
 805458d:	83 c4 2c             	add    $0x2c,%esp
 8054590:	5b                   	pop    %ebx
 8054591:	b8 ff ff ff ff       	mov    $0xffffffff,%eax
 8054596:	5e                   	pop    %esi
 8054597:	5f                   	pop    %edi
 8054598:	5d                   	pop    %ebp
 8054599:	c3                   	ret    
 805459a:	8d b6 00 00 00 00    	lea    0x0(%esi),%esi
 80545a0:	89 5c 24 08          	mov    %ebx,0x8(%esp)
 80545a4:	89 44 24 04          	mov    %eax,0x4(%esp)
 80545a8:	8b 45 08             	mov    0x8(%ebp),%eax
 80545ab:	89 04 24             	mov    %eax,(%esp)
 80545ae:	e8 fd 0d 00 00       	call   80553b0 <__swbuf_r>
 80545b3:	83 f8 ff             	cmp    $0xffffffff,%eax
 80545b6:	0f 94 c0             	sete   %al
 80545b9:	84 c0                	test   %al,%al
 80545bb:	74 82                	je     805453f <_fputwc_r+0x6f>
 80545bd:	83 c4 2c             	add    $0x2c,%esp
 80545c0:	b8 ff ff ff ff       	mov    $0xffffffff,%eax
 80545c5:	5b                   	pop    %ebx
 80545c6:	5e                   	pop    %esi
 80545c7:	5f                   	pop    %edi
 80545c8:	5d                   	pop    %ebp
 80545c9:	c3                   	ret    
 80545ca:	8d b6 00 00 00 00    	lea    0x0(%esi),%esi
 80545d0:	8b 45 0c             	mov    0xc(%ebp),%eax
 80545d3:	83 e8 01             	sub    $0x1,%eax
 80545d6:	3d fe 00 00 00       	cmp    $0xfe,%eax
 80545db:	0f 87 20 ff ff ff    	ja     8054501 <_fputwc_r+0x31>
 80545e1:	0f b6 45 0c          	movzbl 0xc(%ebp),%eax
 80545e5:	bf 01 00 00 00       	mov    $0x1,%edi
 80545ea:	88 45 e7             	mov    %al,-0x19(%ebp)
 80545ed:	e9 3e ff ff ff       	jmp    8054530 <_fputwc_r+0x60>
 80545f2:	8d b6 00 00 00 00    	lea    0x0(%esi),%esi
 80545f8:	89 5c 24 08          	mov    %ebx,0x8(%esp)
 80545fc:	c7 44 24 04 0a 00 00 	movl   $0xa,0x4(%esp)
 8054603:	00 
 8054604:	eb a2                	jmp    80545a8 <_fputwc_r+0xd8>
 8054606:	8d 76 00             	lea    0x0(%esi),%esi
 8054609:	8d bc 27 00 00 00 00 	lea    0x0(%edi,%eiz,1),%edi

08054610 <fputwc>:
 8054610:	55                   	push   %ebp
 8054611:	89 e5                	mov    %esp,%ebp
 8054613:	83 ec 18             	sub    $0x18,%esp
 8054616:	e8 a5 bf ff ff       	call   80505c0 <__getreent>
 805461b:	85 c0                	test   %eax,%eax
 805461d:	74 15                	je     8054634 <fputwc+0x24>
 805461f:	8b 50 38             	mov    0x38(%eax),%edx
 8054622:	85 d2                	test   %edx,%edx
 8054624:	75 0e                	jne    8054634 <fputwc+0x24>
 8054626:	89 04 24             	mov    %eax,(%esp)
 8054629:	89 45 f4             	mov    %eax,-0xc(%ebp)
 805462c:	e8 ef b7 ff ff       	call   804fe20 <__sinit>
 8054631:	8b 45 f4             	mov    -0xc(%ebp),%eax
 8054634:	8b 55 0c             	mov    0xc(%ebp),%edx
 8054637:	89 04 24             	mov    %eax,(%esp)
 805463a:	89 54 24 08          	mov    %edx,0x8(%esp)
 805463e:	8b 55 08             	mov    0x8(%ebp),%edx
 8054641:	89 54 24 04          	mov    %edx,0x4(%esp)
 8054645:	e8 86 fe ff ff       	call   80544d0 <_fputwc_r>
 805464a:	c9                   	leave  
 805464b:	c3                   	ret    
 805464c:	66 90                	xchg   %ax,%ax
 805464e:	66 90                	xchg   %ax,%ax

08054650 <_fstat_r>:
 8054650:	55                   	push   %ebp
 8054651:	89 e5                	mov    %esp,%ebp
 8054653:	83 ec 18             	sub    $0x18,%esp
 8054656:	8b 45 10             	mov    0x10(%ebp),%eax
 8054659:	c7 05 94 06 07 08 00 	movl   $0x0,0x8070694
 8054660:	00 00 00 
 8054663:	89 44 24 04          	mov    %eax,0x4(%esp)
 8054667:	8b 45 0c             	mov    0xc(%ebp),%eax
 805466a:	89 04 24             	mov    %eax,(%esp)
 805466d:	e8 01 4c ff ff       	call   8049273 <fstat>
 8054672:	83 f8 ff             	cmp    $0xffffffff,%eax
 8054675:	74 09                	je     8054680 <_fstat_r+0x30>
 8054677:	c9                   	leave  
 8054678:	c3                   	ret    
 8054679:	8d b4 26 00 00 00 00 	lea    0x0(%esi,%eiz,1),%esi
 8054680:	8b 15 94 06 07 08    	mov    0x8070694,%edx
 8054686:	85 d2                	test   %edx,%edx
 8054688:	74 ed                	je     8054677 <_fstat_r+0x27>
 805468a:	8b 4d 08             	mov    0x8(%ebp),%ecx
 805468d:	89 11                	mov    %edx,(%ecx)
 805468f:	c9                   	leave  
 8054690:	c3                   	ret    
 8054691:	66 90                	xchg   %ax,%ax
 8054693:	66 90                	xchg   %ax,%ax
 8054695:	66 90                	xchg   %ax,%ax
 8054697:	66 90                	xchg   %ax,%ax
 8054699:	66 90                	xchg   %ax,%ax
 805469b:	66 90                	xchg   %ax,%ax
 805469d:	66 90                	xchg   %ax,%ax
 805469f:	90                   	nop

080546a0 <__sfvwrite_r>:
 80546a0:	55                   	push   %ebp
 80546a1:	89 e5                	mov    %esp,%ebp
 80546a3:	57                   	push   %edi
 80546a4:	56                   	push   %esi
 80546a5:	53                   	push   %ebx
 80546a6:	83 ec 3c             	sub    $0x3c,%esp
 80546a9:	8b 45 10             	mov    0x10(%ebp),%eax
 80546ac:	8b 5d 0c             	mov    0xc(%ebp),%ebx
 80546af:	8b 48 08             	mov    0x8(%eax),%ecx
 80546b2:	85 c9                	test   %ecx,%ecx
 80546b4:	74 7e                	je     8054734 <__sfvwrite_r+0x94>
 80546b6:	0f b7 43 0c          	movzwl 0xc(%ebx),%eax
 80546ba:	a8 08                	test   $0x8,%al
 80546bc:	0f 84 7e 00 00 00    	je     8054740 <__sfvwrite_r+0xa0>
 80546c2:	8b 53 10             	mov    0x10(%ebx),%edx
 80546c5:	85 d2                	test   %edx,%edx
 80546c7:	74 77                	je     8054740 <__sfvwrite_r+0xa0>
 80546c9:	8b 7d 10             	mov    0x10(%ebp),%edi
 80546cc:	a8 02                	test   $0x2,%al
 80546ce:	8b 3f                	mov    (%edi),%edi
 80546d0:	89 7d e4             	mov    %edi,-0x1c(%ebp)
 80546d3:	0f 84 92 00 00 00    	je     805476b <__sfvwrite_r+0xcb>
 80546d9:	31 ff                	xor    %edi,%edi
 80546db:	31 f6                	xor    %esi,%esi
 80546dd:	89 5d 0c             	mov    %ebx,0xc(%ebp)
 80546e0:	89 fb                	mov    %edi,%ebx
 80546e2:	8b 7d 0c             	mov    0xc(%ebp),%edi
 80546e5:	8d 76 00             	lea    0x0(%esi),%esi
 80546e8:	85 f6                	test   %esi,%esi
 80546ea:	0f 84 00 01 00 00    	je     80547f0 <__sfvwrite_r+0x150>
 80546f0:	81 fe 00 fc ff 7f    	cmp    $0x7ffffc00,%esi
 80546f6:	b8 00 fc ff 7f       	mov    $0x7ffffc00,%eax
 80546fb:	0f 46 c6             	cmovbe %esi,%eax
 80546fe:	89 44 24 0c          	mov    %eax,0xc(%esp)
 8054702:	89 5c 24 08          	mov    %ebx,0x8(%esp)
 8054706:	8b 47 1c             	mov    0x1c(%edi),%eax
 8054709:	89 44 24 04          	mov    %eax,0x4(%esp)
 805470d:	8b 45 08             	mov    0x8(%ebp),%eax
 8054710:	89 04 24             	mov    %eax,(%esp)
 8054713:	ff 57 24             	call   *0x24(%edi)
 8054716:	85 c0                	test   %eax,%eax
 8054718:	0f 8e 2a 04 00 00    	jle    8054b48 <__sfvwrite_r+0x4a8>
 805471e:	8b 4d 10             	mov    0x10(%ebp),%ecx
 8054721:	01 c3                	add    %eax,%ebx
 8054723:	29 c6                	sub    %eax,%esi
 8054725:	8b 49 08             	mov    0x8(%ecx),%ecx
 8054728:	29 c1                	sub    %eax,%ecx
 805472a:	8b 45 10             	mov    0x10(%ebp),%eax
 805472d:	85 c9                	test   %ecx,%ecx
 805472f:	89 48 08             	mov    %ecx,0x8(%eax)
 8054732:	75 b4                	jne    80546e8 <__sfvwrite_r+0x48>
 8054734:	31 c0                	xor    %eax,%eax
 8054736:	83 c4 3c             	add    $0x3c,%esp
 8054739:	5b                   	pop    %ebx
 805473a:	5e                   	pop    %esi
 805473b:	5f                   	pop    %edi
 805473c:	5d                   	pop    %ebp
 805473d:	c3                   	ret    
 805473e:	66 90                	xchg   %ax,%ax
 8054740:	8b 45 08             	mov    0x8(%ebp),%eax
 8054743:	89 5c 24 04          	mov    %ebx,0x4(%esp)
 8054747:	89 04 24             	mov    %eax,(%esp)
 805474a:	e8 61 9e ff ff       	call   804e5b0 <__swsetup_r>
 805474f:	85 c0                	test   %eax,%eax
 8054751:	0f 85 f8 03 00 00    	jne    8054b4f <__sfvwrite_r+0x4af>
 8054757:	8b 7d 10             	mov    0x10(%ebp),%edi
 805475a:	0f b7 43 0c          	movzwl 0xc(%ebx),%eax
 805475e:	8b 3f                	mov    (%edi),%edi
 8054760:	a8 02                	test   $0x2,%al
 8054762:	89 7d e4             	mov    %edi,-0x1c(%ebp)
 8054765:	0f 85 6e ff ff ff    	jne    80546d9 <__sfvwrite_r+0x39>
 805476b:	a8 01                	test   $0x1,%al
 805476d:	0f 85 95 00 00 00    	jne    8054808 <__sfvwrite_r+0x168>
 8054773:	c7 45 e0 00 00 00 00 	movl   $0x0,-0x20(%ebp)
 805477a:	31 ff                	xor    %edi,%edi
 805477c:	8d 74 26 00          	lea    0x0(%esi,%eiz,1),%esi
 8054780:	85 ff                	test   %edi,%edi
 8054782:	74 5b                	je     80547df <__sfvwrite_r+0x13f>
 8054784:	f6 c4 02             	test   $0x2,%ah
 8054787:	8b 73 08             	mov    0x8(%ebx),%esi
 805478a:	0f 84 30 01 00 00    	je     80548c0 <__sfvwrite_r+0x220>
 8054790:	39 f7                	cmp    %esi,%edi
 8054792:	0f 82 d8 01 00 00    	jb     8054970 <__sfvwrite_r+0x2d0>
 8054798:	66 a9 80 04          	test   $0x480,%ax
 805479c:	0f 85 16 02 00 00    	jne    80549b8 <__sfvwrite_r+0x318>
 80547a2:	8b 03                	mov    (%ebx),%eax
 80547a4:	89 f2                	mov    %esi,%edx
 80547a6:	89 54 24 08          	mov    %edx,0x8(%esp)
 80547aa:	89 55 dc             	mov    %edx,-0x24(%ebp)
 80547ad:	8b 55 e0             	mov    -0x20(%ebp),%edx
 80547b0:	89 04 24             	mov    %eax,(%esp)
 80547b3:	89 54 24 04          	mov    %edx,0x4(%esp)
 80547b7:	e8 44 04 00 00       	call   8054c00 <memmove>
 80547bc:	8b 55 dc             	mov    -0x24(%ebp),%edx
 80547bf:	01 13                	add    %edx,(%ebx)
 80547c1:	29 73 08             	sub    %esi,0x8(%ebx)
 80547c4:	89 fe                	mov    %edi,%esi
 80547c6:	8b 45 10             	mov    0x10(%ebp),%eax
 80547c9:	29 f7                	sub    %esi,%edi
 80547cb:	01 75 e0             	add    %esi,-0x20(%ebp)
 80547ce:	29 70 08             	sub    %esi,0x8(%eax)
 80547d1:	0f 84 5d ff ff ff    	je     8054734 <__sfvwrite_r+0x94>
 80547d7:	85 ff                	test   %edi,%edi
 80547d9:	0f b7 43 0c          	movzwl 0xc(%ebx),%eax
 80547dd:	75 a5                	jne    8054784 <__sfvwrite_r+0xe4>
 80547df:	8b 4d e4             	mov    -0x1c(%ebp),%ecx
 80547e2:	83 45 e4 08          	addl   $0x8,-0x1c(%ebp)
 80547e6:	8b 11                	mov    (%ecx),%edx
 80547e8:	8b 79 04             	mov    0x4(%ecx),%edi
 80547eb:	89 55 e0             	mov    %edx,-0x20(%ebp)
 80547ee:	eb 90                	jmp    8054780 <__sfvwrite_r+0xe0>
 80547f0:	8b 45 e4             	mov    -0x1c(%ebp),%eax
 80547f3:	83 45 e4 08          	addl   $0x8,-0x1c(%ebp)
 80547f7:	8b 18                	mov    (%eax),%ebx
 80547f9:	8b 70 04             	mov    0x4(%eax),%esi
 80547fc:	e9 e7 fe ff ff       	jmp    80546e8 <__sfvwrite_r+0x48>
 8054801:	8d b4 26 00 00 00 00 	lea    0x0(%esi,%eiz,1),%esi
 8054808:	c7 45 d8 00 00 00 00 	movl   $0x0,-0x28(%ebp)
 805480f:	31 ff                	xor    %edi,%edi
 8054811:	c7 45 dc 00 00 00 00 	movl   $0x0,-0x24(%ebp)
 8054818:	c7 45 e0 00 00 00 00 	movl   $0x0,-0x20(%ebp)
 805481f:	90                   	nop
 8054820:	85 ff                	test   %edi,%edi
 8054822:	74 7f                	je     80548a3 <__sfvwrite_r+0x203>
 8054824:	8b 45 dc             	mov    -0x24(%ebp),%eax
 8054827:	85 c0                	test   %eax,%eax
 8054829:	0f 84 51 01 00 00    	je     8054980 <__sfvwrite_r+0x2e0>
 805482f:	8b 75 d8             	mov    -0x28(%ebp),%esi
 8054832:	8b 0b                	mov    (%ebx),%ecx
 8054834:	8b 53 08             	mov    0x8(%ebx),%edx
 8054837:	8b 43 14             	mov    0x14(%ebx),%eax
 805483a:	39 fe                	cmp    %edi,%esi
 805483c:	0f 47 f7             	cmova  %edi,%esi
 805483f:	3b 4b 10             	cmp    0x10(%ebx),%ecx
 8054842:	76 0a                	jbe    805484e <__sfvwrite_r+0x1ae>
 8054844:	01 c2                	add    %eax,%edx
 8054846:	39 d6                	cmp    %edx,%esi
 8054848:	0f 8f 4a 02 00 00    	jg     8054a98 <__sfvwrite_r+0x3f8>
 805484e:	39 c6                	cmp    %eax,%esi
 8054850:	0f 8c da 00 00 00    	jl     8054930 <__sfvwrite_r+0x290>
 8054856:	89 44 24 0c          	mov    %eax,0xc(%esp)
 805485a:	8b 45 e0             	mov    -0x20(%ebp),%eax
 805485d:	89 44 24 08          	mov    %eax,0x8(%esp)
 8054861:	8b 43 1c             	mov    0x1c(%ebx),%eax
 8054864:	89 44 24 04          	mov    %eax,0x4(%esp)
 8054868:	8b 45 08             	mov    0x8(%ebp),%eax
 805486b:	89 04 24             	mov    %eax,(%esp)
 805486e:	ff 53 24             	call   *0x24(%ebx)
 8054871:	85 c0                	test   %eax,%eax
 8054873:	89 c6                	mov    %eax,%esi
 8054875:	0f 8e 9d 00 00 00    	jle    8054918 <__sfvwrite_r+0x278>
 805487b:	29 75 d8             	sub    %esi,-0x28(%ebp)
 805487e:	0f 84 cd 00 00 00    	je     8054951 <__sfvwrite_r+0x2b1>
 8054884:	8b 45 10             	mov    0x10(%ebp),%eax
 8054887:	29 f7                	sub    %esi,%edi
 8054889:	8b 55 10             	mov    0x10(%ebp),%edx
 805488c:	01 75 e0             	add    %esi,-0x20(%ebp)
 805488f:	8b 40 08             	mov    0x8(%eax),%eax
 8054892:	29 f0                	sub    %esi,%eax
 8054894:	85 c0                	test   %eax,%eax
 8054896:	89 42 08             	mov    %eax,0x8(%edx)
 8054899:	0f 84 95 fe ff ff    	je     8054734 <__sfvwrite_r+0x94>
 805489f:	85 ff                	test   %edi,%edi
 80548a1:	75 81                	jne    8054824 <__sfvwrite_r+0x184>
 80548a3:	8b 45 e4             	mov    -0x1c(%ebp),%eax
 80548a6:	c7 45 dc 00 00 00 00 	movl   $0x0,-0x24(%ebp)
 80548ad:	83 45 e4 08          	addl   $0x8,-0x1c(%ebp)
 80548b1:	8b 08                	mov    (%eax),%ecx
 80548b3:	8b 78 04             	mov    0x4(%eax),%edi
 80548b6:	89 4d e0             	mov    %ecx,-0x20(%ebp)
 80548b9:	e9 62 ff ff ff       	jmp    8054820 <__sfvwrite_r+0x180>
 80548be:	66 90                	xchg   %ax,%ax
 80548c0:	8b 03                	mov    (%ebx),%eax
 80548c2:	3b 43 10             	cmp    0x10(%ebx),%eax
 80548c5:	77 0b                	ja     80548d2 <__sfvwrite_r+0x232>
 80548c7:	8b 4b 14             	mov    0x14(%ebx),%ecx
 80548ca:	39 cf                	cmp    %ecx,%edi
 80548cc:	0f 83 86 01 00 00    	jae    8054a58 <__sfvwrite_r+0x3b8>
 80548d2:	8b 55 e0             	mov    -0x20(%ebp),%edx
 80548d5:	39 f7                	cmp    %esi,%edi
 80548d7:	0f 46 f7             	cmovbe %edi,%esi
 80548da:	89 74 24 08          	mov    %esi,0x8(%esp)
 80548de:	89 04 24             	mov    %eax,(%esp)
 80548e1:	89 54 24 04          	mov    %edx,0x4(%esp)
 80548e5:	e8 16 03 00 00       	call   8054c00 <memmove>
 80548ea:	8b 43 08             	mov    0x8(%ebx),%eax
 80548ed:	01 33                	add    %esi,(%ebx)
 80548ef:	29 f0                	sub    %esi,%eax
 80548f1:	85 c0                	test   %eax,%eax
 80548f3:	89 43 08             	mov    %eax,0x8(%ebx)
 80548f6:	0f 85 ca fe ff ff    	jne    80547c6 <__sfvwrite_r+0x126>
 80548fc:	8b 45 08             	mov    0x8(%ebp),%eax
 80548ff:	89 5c 24 04          	mov    %ebx,0x4(%esp)
 8054903:	89 04 24             	mov    %eax,(%esp)
 8054906:	e8 a5 b3 ff ff       	call   804fcb0 <_fflush_r>
 805490b:	85 c0                	test   %eax,%eax
 805490d:	0f 84 b3 fe ff ff    	je     80547c6 <__sfvwrite_r+0x126>
 8054913:	90                   	nop
 8054914:	8d 74 26 00          	lea    0x0(%esi,%eiz,1),%esi
 8054918:	0f b7 43 0c          	movzwl 0xc(%ebx),%eax
 805491c:	83 c8 40             	or     $0x40,%eax
 805491f:	66 89 43 0c          	mov    %ax,0xc(%ebx)
 8054923:	83 c4 3c             	add    $0x3c,%esp
 8054926:	b8 ff ff ff ff       	mov    $0xffffffff,%eax
 805492b:	5b                   	pop    %ebx
 805492c:	5e                   	pop    %esi
 805492d:	5f                   	pop    %edi
 805492e:	5d                   	pop    %ebp
 805492f:	c3                   	ret    
 8054930:	8b 45 e0             	mov    -0x20(%ebp),%eax
 8054933:	89 74 24 08          	mov    %esi,0x8(%esp)
 8054937:	89 0c 24             	mov    %ecx,(%esp)
 805493a:	89 44 24 04          	mov    %eax,0x4(%esp)
 805493e:	e8 bd 02 00 00       	call   8054c00 <memmove>
 8054943:	29 73 08             	sub    %esi,0x8(%ebx)
 8054946:	01 33                	add    %esi,(%ebx)
 8054948:	29 75 d8             	sub    %esi,-0x28(%ebp)
 805494b:	0f 85 33 ff ff ff    	jne    8054884 <__sfvwrite_r+0x1e4>
 8054951:	8b 45 08             	mov    0x8(%ebp),%eax
 8054954:	89 5c 24 04          	mov    %ebx,0x4(%esp)
 8054958:	89 04 24             	mov    %eax,(%esp)
 805495b:	e8 50 b3 ff ff       	call   804fcb0 <_fflush_r>
 8054960:	85 c0                	test   %eax,%eax
 8054962:	75 b4                	jne    8054918 <__sfvwrite_r+0x278>
 8054964:	c7 45 dc 00 00 00 00 	movl   $0x0,-0x24(%ebp)
 805496b:	e9 14 ff ff ff       	jmp    8054884 <__sfvwrite_r+0x1e4>
 8054970:	89 fe                	mov    %edi,%esi
 8054972:	8b 03                	mov    (%ebx),%eax
 8054974:	89 fa                	mov    %edi,%edx
 8054976:	e9 2b fe ff ff       	jmp    80547a6 <__sfvwrite_r+0x106>
 805497b:	90                   	nop
 805497c:	8d 74 26 00          	lea    0x0(%esi,%eiz,1),%esi
 8054980:	8b 75 e0             	mov    -0x20(%ebp),%esi
 8054983:	89 7c 24 08          	mov    %edi,0x8(%esp)
 8054987:	c7 44 24 04 0a 00 00 	movl   $0xa,0x4(%esp)
 805498e:	00 
 805498f:	89 34 24             	mov    %esi,(%esp)
 8054992:	e8 c9 c5 ff ff       	call   8050f60 <memchr>
 8054997:	85 c0                	test   %eax,%eax
 8054999:	0f 84 91 01 00 00    	je     8054b30 <__sfvwrite_r+0x490>
 805499f:	83 c0 01             	add    $0x1,%eax
 80549a2:	89 45 d8             	mov    %eax,-0x28(%ebp)
 80549a5:	c7 45 dc 01 00 00 00 	movl   $0x1,-0x24(%ebp)
 80549ac:	29 75 d8             	sub    %esi,-0x28(%ebp)
 80549af:	e9 7b fe ff ff       	jmp    805482f <__sfvwrite_r+0x18f>
 80549b4:	8d 74 26 00          	lea    0x0(%esi,%eiz,1),%esi
 80549b8:	8b 53 14             	mov    0x14(%ebx),%edx
 80549bb:	8b 0b                	mov    (%ebx),%ecx
 80549bd:	8b 73 10             	mov    0x10(%ebx),%esi
 80549c0:	8d 14 52             	lea    (%edx,%edx,2),%edx
 80549c3:	89 4d dc             	mov    %ecx,-0x24(%ebp)
 80549c6:	89 d1                	mov    %edx,%ecx
 80549c8:	c1 e9 1f             	shr    $0x1f,%ecx
 80549cb:	29 75 dc             	sub    %esi,-0x24(%ebp)
 80549ce:	01 ca                	add    %ecx,%edx
 80549d0:	8b 4d dc             	mov    -0x24(%ebp),%ecx
 80549d3:	d1 fa                	sar    %edx
 80549d5:	8d 4c 0f 01          	lea    0x1(%edi,%ecx,1),%ecx
 80549d9:	39 ca                	cmp    %ecx,%edx
 80549db:	0f 83 f7 00 00 00    	jae    8054ad8 <__sfvwrite_r+0x438>
 80549e1:	89 ca                	mov    %ecx,%edx
 80549e3:	f6 c4 04             	test   $0x4,%ah
 80549e6:	89 55 d8             	mov    %edx,-0x28(%ebp)
 80549e9:	0f 84 f7 00 00 00    	je     8054ae6 <__sfvwrite_r+0x446>
 80549ef:	8b 45 08             	mov    0x8(%ebp),%eax
 80549f2:	89 4c 24 04          	mov    %ecx,0x4(%esp)
 80549f6:	89 04 24             	mov    %eax,(%esp)
 80549f9:	e8 22 be ff ff       	call   8050820 <_malloc_r>
 80549fe:	8b 55 d8             	mov    -0x28(%ebp),%edx
 8054a01:	85 c0                	test   %eax,%eax
 8054a03:	89 c6                	mov    %eax,%esi
 8054a05:	0f 84 4e 01 00 00    	je     8054b59 <__sfvwrite_r+0x4b9>
 8054a0b:	8b 45 dc             	mov    -0x24(%ebp),%eax
 8054a0e:	89 55 d8             	mov    %edx,-0x28(%ebp)
 8054a11:	89 44 24 08          	mov    %eax,0x8(%esp)
 8054a15:	8b 43 10             	mov    0x10(%ebx),%eax
 8054a18:	89 34 24             	mov    %esi,(%esp)
 8054a1b:	89 44 24 04          	mov    %eax,0x4(%esp)
 8054a1f:	e8 d4 c5 ff ff       	call   8050ff8 <memcpy>
 8054a24:	0f b7 43 0c          	movzwl 0xc(%ebx),%eax
 8054a28:	8b 55 d8             	mov    -0x28(%ebp),%edx
 8054a2b:	66 25 7f fb          	and    $0xfb7f,%ax
 8054a2f:	0c 80                	or     $0x80,%al
 8054a31:	66 89 43 0c          	mov    %ax,0xc(%ebx)
 8054a35:	8b 4d dc             	mov    -0x24(%ebp),%ecx
 8054a38:	89 53 14             	mov    %edx,0x14(%ebx)
 8054a3b:	89 73 10             	mov    %esi,0x10(%ebx)
 8054a3e:	89 c8                	mov    %ecx,%eax
 8054a40:	29 ca                	sub    %ecx,%edx
 8054a42:	01 f0                	add    %esi,%eax
 8054a44:	89 fe                	mov    %edi,%esi
 8054a46:	89 53 08             	mov    %edx,0x8(%ebx)
 8054a49:	89 fa                	mov    %edi,%edx
 8054a4b:	89 03                	mov    %eax,(%ebx)
 8054a4d:	e9 54 fd ff ff       	jmp    80547a6 <__sfvwrite_r+0x106>
 8054a52:	8d b6 00 00 00 00    	lea    0x0(%esi),%esi
 8054a58:	81 ff ff ff ff 7f    	cmp    $0x7fffffff,%edi
 8054a5e:	b8 ff ff ff 7f       	mov    $0x7fffffff,%eax
 8054a63:	0f 46 c7             	cmovbe %edi,%eax
 8054a66:	99                   	cltd   
 8054a67:	f7 f9                	idiv   %ecx
 8054a69:	0f af c1             	imul   %ecx,%eax
 8054a6c:	89 44 24 0c          	mov    %eax,0xc(%esp)
 8054a70:	8b 45 e0             	mov    -0x20(%ebp),%eax
 8054a73:	89 44 24 08          	mov    %eax,0x8(%esp)
 8054a77:	8b 43 1c             	mov    0x1c(%ebx),%eax
 8054a7a:	89 44 24 04          	mov    %eax,0x4(%esp)
 8054a7e:	8b 45 08             	mov    0x8(%ebp),%eax
 8054a81:	89 04 24             	mov    %eax,(%esp)
 8054a84:	ff 53 24             	call   *0x24(%ebx)
 8054a87:	85 c0                	test   %eax,%eax
 8054a89:	0f 8e 89 fe ff ff    	jle    8054918 <__sfvwrite_r+0x278>
 8054a8f:	89 c6                	mov    %eax,%esi
 8054a91:	e9 30 fd ff ff       	jmp    80547c6 <__sfvwrite_r+0x126>
 8054a96:	66 90                	xchg   %ax,%ax
 8054a98:	8b 45 e0             	mov    -0x20(%ebp),%eax
 8054a9b:	89 54 24 08          	mov    %edx,0x8(%esp)
 8054a9f:	89 0c 24             	mov    %ecx,(%esp)
 8054aa2:	89 55 d4             	mov    %edx,-0x2c(%ebp)
 8054aa5:	89 44 24 04          	mov    %eax,0x4(%esp)
 8054aa9:	e8 52 01 00 00       	call   8054c00 <memmove>
 8054aae:	8b 55 d4             	mov    -0x2c(%ebp),%edx
 8054ab1:	8b 45 08             	mov    0x8(%ebp),%eax
 8054ab4:	01 13                	add    %edx,(%ebx)
 8054ab6:	89 5c 24 04          	mov    %ebx,0x4(%esp)
 8054aba:	89 04 24             	mov    %eax,(%esp)
 8054abd:	e8 ee b1 ff ff       	call   804fcb0 <_fflush_r>
 8054ac2:	8b 55 d4             	mov    -0x2c(%ebp),%edx
 8054ac5:	85 c0                	test   %eax,%eax
 8054ac7:	0f 85 4b fe ff ff    	jne    8054918 <__sfvwrite_r+0x278>
 8054acd:	89 d6                	mov    %edx,%esi
 8054acf:	e9 a7 fd ff ff       	jmp    805487b <__sfvwrite_r+0x1db>
 8054ad4:	8d 74 26 00          	lea    0x0(%esi,%eiz,1),%esi
 8054ad8:	f6 c4 04             	test   $0x4,%ah
 8054adb:	89 d1                	mov    %edx,%ecx
 8054add:	89 55 d8             	mov    %edx,-0x28(%ebp)
 8054ae0:	0f 85 09 ff ff ff    	jne    80549ef <__sfvwrite_r+0x34f>
 8054ae6:	8b 45 08             	mov    0x8(%ebp),%eax
 8054ae9:	89 74 24 04          	mov    %esi,0x4(%esp)
 8054aed:	89 4c 24 08          	mov    %ecx,0x8(%esp)
 8054af1:	89 04 24             	mov    %eax,(%esp)
 8054af4:	e8 e7 01 00 00       	call   8054ce0 <_realloc_r>
 8054af9:	8b 55 d8             	mov    -0x28(%ebp),%edx
 8054afc:	85 c0                	test   %eax,%eax
 8054afe:	89 c6                	mov    %eax,%esi
 8054b00:	0f 85 2f ff ff ff    	jne    8054a35 <__sfvwrite_r+0x395>
 8054b06:	8b 43 10             	mov    0x10(%ebx),%eax
 8054b09:	89 44 24 04          	mov    %eax,0x4(%esp)
 8054b0d:	8b 45 08             	mov    0x8(%ebp),%eax
 8054b10:	89 04 24             	mov    %eax,(%esp)
 8054b13:	e8 58 b7 ff ff       	call   8050270 <_free_r>
 8054b18:	0f b7 43 0c          	movzwl 0xc(%ebx),%eax
 8054b1c:	8b 7d 08             	mov    0x8(%ebp),%edi
 8054b1f:	24 7f                	and    $0x7f,%al
 8054b21:	c7 07 0c 00 00 00    	movl   $0xc,(%edi)
 8054b27:	e9 f0 fd ff ff       	jmp    805491c <__sfvwrite_r+0x27c>
 8054b2c:	8d 74 26 00          	lea    0x0(%esi,%eiz,1),%esi
 8054b30:	8d 47 01             	lea    0x1(%edi),%eax
 8054b33:	89 45 d8             	mov    %eax,-0x28(%ebp)
 8054b36:	c7 45 dc 01 00 00 00 	movl   $0x1,-0x24(%ebp)
 8054b3d:	e9 ed fc ff ff       	jmp    805482f <__sfvwrite_r+0x18f>
 8054b42:	8d b6 00 00 00 00    	lea    0x0(%esi),%esi
 8054b48:	89 fb                	mov    %edi,%ebx
 8054b4a:	e9 c9 fd ff ff       	jmp    8054918 <__sfvwrite_r+0x278>
 8054b4f:	b8 ff ff ff ff       	mov    $0xffffffff,%eax
 8054b54:	e9 dd fb ff ff       	jmp    8054736 <__sfvwrite_r+0x96>
 8054b59:	8b 45 08             	mov    0x8(%ebp),%eax
 8054b5c:	c7 00 0c 00 00 00    	movl   $0xc,(%eax)
 8054b62:	0f b7 43 0c          	movzwl 0xc(%ebx),%eax
 8054b66:	e9 b1 fd ff ff       	jmp    805491c <__sfvwrite_r+0x27c>
 8054b6b:	66 90                	xchg   %ax,%ax
 8054b6d:	66 90                	xchg   %ax,%ax
 8054b6f:	90                   	nop

08054b70 <_isatty_r>:
 8054b70:	55                   	push   %ebp
 8054b71:	89 e5                	mov    %esp,%ebp
 8054b73:	83 ec 18             	sub    $0x18,%esp
 8054b76:	8b 45 0c             	mov    0xc(%ebp),%eax
 8054b79:	c7 05 94 06 07 08 00 	movl   $0x0,0x8070694
 8054b80:	00 00 00 
 8054b83:	89 04 24             	mov    %eax,(%esp)
 8054b86:	e8 06 47 ff ff       	call   8049291 <isatty>
 8054b8b:	83 f8 ff             	cmp    $0xffffffff,%eax
 8054b8e:	74 08                	je     8054b98 <_isatty_r+0x28>
 8054b90:	c9                   	leave  
 8054b91:	c3                   	ret    
 8054b92:	8d b6 00 00 00 00    	lea    0x0(%esi),%esi
 8054b98:	8b 15 94 06 07 08    	mov    0x8070694,%edx
 8054b9e:	85 d2                	test   %edx,%edx
 8054ba0:	74 ee                	je     8054b90 <_isatty_r+0x20>
 8054ba2:	8b 4d 08             	mov    0x8(%ebp),%ecx
 8054ba5:	89 11                	mov    %edx,(%ecx)
 8054ba7:	c9                   	leave  
 8054ba8:	c3                   	ret    
 8054ba9:	66 90                	xchg   %ax,%ax
 8054bab:	66 90                	xchg   %ax,%ax
 8054bad:	66 90                	xchg   %ax,%ax
 8054baf:	90                   	nop

08054bb0 <_lseek_r>:
 8054bb0:	55                   	push   %ebp
 8054bb1:	89 e5                	mov    %esp,%ebp
 8054bb3:	83 ec 18             	sub    $0x18,%esp
 8054bb6:	8b 45 14             	mov    0x14(%ebp),%eax
 8054bb9:	c7 05 94 06 07 08 00 	movl   $0x0,0x8070694
 8054bc0:	00 00 00 
 8054bc3:	89 44 24 08          	mov    %eax,0x8(%esp)
 8054bc7:	8b 45 10             	mov    0x10(%ebp),%eax
 8054bca:	89 44 24 04          	mov    %eax,0x4(%esp)
 8054bce:	8b 45 0c             	mov    0xc(%ebp),%eax
 8054bd1:	89 04 24             	mov    %eax,(%esp)
 8054bd4:	e8 f2 45 ff ff       	call   80491cb <lseek>
 8054bd9:	83 f8 ff             	cmp    $0xffffffff,%eax
 8054bdc:	74 02                	je     8054be0 <_lseek_r+0x30>
 8054bde:	c9                   	leave  
 8054bdf:	c3                   	ret    
 8054be0:	8b 15 94 06 07 08    	mov    0x8070694,%edx
 8054be6:	85 d2                	test   %edx,%edx
 8054be8:	74 f4                	je     8054bde <_lseek_r+0x2e>
 8054bea:	8b 4d 08             	mov    0x8(%ebp),%ecx
 8054bed:	89 11                	mov    %edx,(%ecx)
 8054bef:	c9                   	leave  
 8054bf0:	c3                   	ret    
 8054bf1:	66 90                	xchg   %ax,%ax
 8054bf3:	66 90                	xchg   %ax,%ax
 8054bf5:	66 90                	xchg   %ax,%ax
 8054bf7:	66 90                	xchg   %ax,%ax
 8054bf9:	66 90                	xchg   %ax,%ax
 8054bfb:	66 90                	xchg   %ax,%ax
 8054bfd:	66 90                	xchg   %ax,%ax
 8054bff:	90                   	nop

08054c00 <memmove>:
 8054c00:	55                   	push   %ebp
 8054c01:	89 e5                	mov    %esp,%ebp
 8054c03:	56                   	push   %esi
 8054c04:	57                   	push   %edi
 8054c05:	53                   	push   %ebx
 8054c06:	8b 7d 08             	mov    0x8(%ebp),%edi
 8054c09:	8b 4d 10             	mov    0x10(%ebp),%ecx
 8054c0c:	8b 75 0c             	mov    0xc(%ebp),%esi
 8054c0f:	fc                   	cld    
 8054c10:	39 fe                	cmp    %edi,%esi
 8054c12:	73 43                	jae    8054c57 <memmove+0x57>
 8054c14:	8d 5c 31 ff          	lea    -0x1(%ecx,%esi,1),%ebx
 8054c18:	39 df                	cmp    %ebx,%edi
 8054c1a:	77 3b                	ja     8054c57 <memmove+0x57>
 8054c1c:	01 ce                	add    %ecx,%esi
 8054c1e:	01 cf                	add    %ecx,%edi
 8054c20:	fd                   	std    
 8054c21:	83 f9 08             	cmp    $0x8,%ecx
 8054c24:	76 2b                	jbe    8054c51 <memmove+0x51>
 8054c26:	89 fa                	mov    %edi,%edx
 8054c28:	89 cb                	mov    %ecx,%ebx
 8054c2a:	83 e2 03             	and    $0x3,%edx
 8054c2d:	74 0c                	je     8054c3b <memmove+0x3b>
 8054c2f:	89 d1                	mov    %edx,%ecx
 8054c31:	4e                   	dec    %esi
 8054c32:	4f                   	dec    %edi
 8054c33:	29 cb                	sub    %ecx,%ebx
 8054c35:	f3 a4                	rep movsb %ds:(%esi),%es:(%edi)
 8054c37:	89 d9                	mov    %ebx,%ecx
 8054c39:	46                   	inc    %esi
 8054c3a:	47                   	inc    %edi
 8054c3b:	c1 e9 02             	shr    $0x2,%ecx
 8054c3e:	83 ee 04             	sub    $0x4,%esi
 8054c41:	83 ef 04             	sub    $0x4,%edi
 8054c44:	f3 a5                	rep movsl %ds:(%esi),%es:(%edi)
 8054c46:	83 c6 04             	add    $0x4,%esi
 8054c49:	83 c7 04             	add    $0x4,%edi
 8054c4c:	89 d9                	mov    %ebx,%ecx
 8054c4e:	83 e1 03             	and    $0x3,%ecx
 8054c51:	4e                   	dec    %esi
 8054c52:	4f                   	dec    %edi
 8054c53:	f3 a4                	rep movsb %ds:(%esi),%es:(%edi)
 8054c55:	eb 2a                	jmp    8054c81 <memmove+0x81>
 8054c57:	83 f9 08             	cmp    $0x8,%ecx
 8054c5a:	76 23                	jbe    8054c7f <memmove+0x7f>
 8054c5c:	89 fa                	mov    %edi,%edx
 8054c5e:	89 cb                	mov    %ecx,%ebx
 8054c60:	83 e2 03             	and    $0x3,%edx
 8054c63:	74 10                	je     8054c75 <memmove+0x75>
 8054c65:	b9 04 00 00 00       	mov    $0x4,%ecx
 8054c6a:	29 d1                	sub    %edx,%ecx
 8054c6c:	83 e1 03             	and    $0x3,%ecx
 8054c6f:	29 cb                	sub    %ecx,%ebx
 8054c71:	f3 a4                	rep movsb %ds:(%esi),%es:(%edi)
 8054c73:	89 d9                	mov    %ebx,%ecx
 8054c75:	c1 e9 02             	shr    $0x2,%ecx
 8054c78:	f3 a5                	rep movsl %ds:(%esi),%es:(%edi)
 8054c7a:	89 d9                	mov    %ebx,%ecx
 8054c7c:	83 e1 03             	and    $0x3,%ecx
 8054c7f:	f3 a4                	rep movsb %ds:(%esi),%es:(%edi)
 8054c81:	8b 45 08             	mov    0x8(%ebp),%eax
 8054c84:	fc                   	cld    
 8054c85:	8d 65 f4             	lea    -0xc(%ebp),%esp
 8054c88:	5b                   	pop    %ebx
 8054c89:	5f                   	pop    %edi
 8054c8a:	5e                   	pop    %esi
 8054c8b:	c9                   	leave  
 8054c8c:	c3                   	ret    
 8054c8d:	66 90                	xchg   %ax,%ax
 8054c8f:	90                   	nop

08054c90 <_read_r>:
 8054c90:	55                   	push   %ebp
 8054c91:	89 e5                	mov    %esp,%ebp
 8054c93:	83 ec 18             	sub    $0x18,%esp
 8054c96:	8b 45 14             	mov    0x14(%ebp),%eax
 8054c99:	c7 05 94 06 07 08 00 	movl   $0x0,0x8070694
 8054ca0:	00 00 00 
 8054ca3:	89 44 24 08          	mov    %eax,0x8(%esp)
 8054ca7:	8b 45 10             	mov    0x10(%ebp),%eax
 8054caa:	89 44 24 04          	mov    %eax,0x4(%esp)
 8054cae:	8b 45 0c             	mov    0xc(%ebp),%eax
 8054cb1:	89 04 24             	mov    %eax,(%esp)
 8054cb4:	e8 ce 44 ff ff       	call   8049187 <read>
 8054cb9:	83 f8 ff             	cmp    $0xffffffff,%eax
 8054cbc:	74 02                	je     8054cc0 <_read_r+0x30>
 8054cbe:	c9                   	leave  
 8054cbf:	c3                   	ret    
 8054cc0:	8b 15 94 06 07 08    	mov    0x8070694,%edx
 8054cc6:	85 d2                	test   %edx,%edx
 8054cc8:	74 f4                	je     8054cbe <_read_r+0x2e>
 8054cca:	8b 4d 08             	mov    0x8(%ebp),%ecx
 8054ccd:	89 11                	mov    %edx,(%ecx)
 8054ccf:	c9                   	leave  
 8054cd0:	c3                   	ret    
 8054cd1:	66 90                	xchg   %ax,%ax
 8054cd3:	66 90                	xchg   %ax,%ax
 8054cd5:	66 90                	xchg   %ax,%ax
 8054cd7:	66 90                	xchg   %ax,%ax
 8054cd9:	66 90                	xchg   %ax,%ax
 8054cdb:	66 90                	xchg   %ax,%ax
 8054cdd:	66 90                	xchg   %ax,%ax
 8054cdf:	90                   	nop

08054ce0 <_realloc_r>:
 8054ce0:	55                   	push   %ebp
 8054ce1:	89 e5                	mov    %esp,%ebp
 8054ce3:	57                   	push   %edi
 8054ce4:	56                   	push   %esi
 8054ce5:	53                   	push   %ebx
 8054ce6:	83 ec 3c             	sub    $0x3c,%esp
 8054ce9:	8b 45 08             	mov    0x8(%ebp),%eax
 8054cec:	8b 7d 0c             	mov    0xc(%ebp),%edi
 8054cef:	89 45 e4             	mov    %eax,-0x1c(%ebp)
 8054cf2:	8b 45 10             	mov    0x10(%ebp),%eax
 8054cf5:	85 ff                	test   %edi,%edi
 8054cf7:	89 45 e0             	mov    %eax,-0x20(%ebp)
 8054cfa:	0f 84 50 02 00 00    	je     8054f50 <_realloc_r+0x270>
 8054d00:	8b 45 e4             	mov    -0x1c(%ebp),%eax
 8054d03:	8d 77 f8             	lea    -0x8(%edi),%esi
 8054d06:	89 04 24             	mov    %eax,(%esp)
 8054d09:	e8 32 c3 ff ff       	call   8051040 <__malloc_lock>
 8054d0e:	8b 47 fc             	mov    -0x4(%edi),%eax
 8054d11:	8b 4d e0             	mov    -0x20(%ebp),%ecx
 8054d14:	89 c3                	mov    %eax,%ebx
 8054d16:	8d 51 0b             	lea    0xb(%ecx),%edx
 8054d19:	83 e3 fc             	and    $0xfffffffc,%ebx
 8054d1c:	83 fa 16             	cmp    $0x16,%edx
 8054d1f:	89 45 d4             	mov    %eax,-0x2c(%ebp)
 8054d22:	0f 87 00 01 00 00    	ja     8054e28 <_realloc_r+0x148>
 8054d28:	31 d2                	xor    %edx,%edx
 8054d2a:	c7 45 d8 10 00 00 00 	movl   $0x10,-0x28(%ebp)
 8054d31:	c7 45 dc 10 00 00 00 	movl   $0x10,-0x24(%ebp)
 8054d38:	8b 4d e0             	mov    -0x20(%ebp),%ecx
 8054d3b:	39 4d dc             	cmp    %ecx,-0x24(%ebp)
 8054d3e:	0f 82 1c 02 00 00    	jb     8054f60 <_realloc_r+0x280>
 8054d44:	84 d2                	test   %dl,%dl
 8054d46:	0f 85 14 02 00 00    	jne    8054f60 <_realloc_r+0x280>
 8054d4c:	3b 5d d8             	cmp    -0x28(%ebp),%ebx
 8054d4f:	0f 8d eb 00 00 00    	jge    8054e40 <_realloc_r+0x160>
 8054d55:	8b 0d c8 a9 05 08    	mov    0x805a9c8,%ecx
 8054d5b:	8d 14 1e             	lea    (%esi,%ebx,1),%edx
 8054d5e:	39 d1                	cmp    %edx,%ecx
 8054d60:	89 4d cc             	mov    %ecx,-0x34(%ebp)
 8054d63:	0f 84 6f 02 00 00    	je     8054fd8 <_realloc_r+0x2f8>
 8054d69:	8b 4a 04             	mov    0x4(%edx),%ecx
 8054d6c:	89 c8                	mov    %ecx,%eax
 8054d6e:	83 e0 fe             	and    $0xfffffffe,%eax
 8054d71:	f6 44 02 04 01       	testb  $0x1,0x4(%edx,%eax,1)
 8054d76:	0f 84 f4 00 00 00    	je     8054e70 <_realloc_r+0x190>
 8054d7c:	c7 45 d0 00 00 00 00 	movl   $0x0,-0x30(%ebp)
 8054d83:	31 d2                	xor    %edx,%edx
 8054d85:	f6 45 d4 01          	testb  $0x1,-0x2c(%ebp)
 8054d89:	0f 85 39 01 00 00    	jne    8054ec8 <_realloc_r+0x1e8>
 8054d8f:	89 f1                	mov    %esi,%ecx
 8054d91:	2b 4f f8             	sub    -0x8(%edi),%ecx
 8054d94:	8b 41 04             	mov    0x4(%ecx),%eax
 8054d97:	83 e0 fc             	and    $0xfffffffc,%eax
 8054d9a:	85 d2                	test   %edx,%edx
 8054d9c:	0f 84 f6 02 00 00    	je     8055098 <_realloc_r+0x3b8>
 8054da2:	3b 55 cc             	cmp    -0x34(%ebp),%edx
 8054da5:	0f 84 f5 02 00 00    	je     80550a0 <_realloc_r+0x3c0>
 8054dab:	89 55 d4             	mov    %edx,-0x2c(%ebp)
 8054dae:	8b 55 d0             	mov    -0x30(%ebp),%edx
 8054db1:	01 d8                	add    %ebx,%eax
 8054db3:	01 c2                	add    %eax,%edx
 8054db5:	3b 55 d8             	cmp    -0x28(%ebp),%edx
 8054db8:	89 55 d0             	mov    %edx,-0x30(%ebp)
 8054dbb:	8b 55 d4             	mov    -0x2c(%ebp),%edx
 8054dbe:	0f 8c ac 01 00 00    	jl     8054f70 <_realloc_r+0x290>
 8054dc4:	8b 42 0c             	mov    0xc(%edx),%eax
 8054dc7:	83 eb 04             	sub    $0x4,%ebx
 8054dca:	8b 52 08             	mov    0x8(%edx),%edx
 8054dcd:	83 fb 24             	cmp    $0x24,%ebx
 8054dd0:	8d 71 08             	lea    0x8(%ecx),%esi
 8054dd3:	89 42 0c             	mov    %eax,0xc(%edx)
 8054dd6:	89 50 08             	mov    %edx,0x8(%eax)
 8054dd9:	8b 41 0c             	mov    0xc(%ecx),%eax
 8054ddc:	8b 51 08             	mov    0x8(%ecx),%edx
 8054ddf:	89 42 0c             	mov    %eax,0xc(%edx)
 8054de2:	89 50 08             	mov    %edx,0x8(%eax)
 8054de5:	0f 87 85 03 00 00    	ja     8055170 <_realloc_r+0x490>
 8054deb:	83 fb 13             	cmp    $0x13,%ebx
 8054dee:	89 f0                	mov    %esi,%eax
 8054df0:	76 1a                	jbe    8054e0c <_realloc_r+0x12c>
 8054df2:	8b 07                	mov    (%edi),%eax
 8054df4:	83 fb 1b             	cmp    $0x1b,%ebx
 8054df7:	89 41 08             	mov    %eax,0x8(%ecx)
 8054dfa:	8b 47 04             	mov    0x4(%edi),%eax
 8054dfd:	89 41 0c             	mov    %eax,0xc(%ecx)
 8054e00:	0f 87 8f 03 00 00    	ja     8055195 <_realloc_r+0x4b5>
 8054e06:	8d 41 10             	lea    0x10(%ecx),%eax
 8054e09:	83 c7 08             	add    $0x8,%edi
 8054e0c:	8b 17                	mov    (%edi),%edx
 8054e0e:	8b 5d d0             	mov    -0x30(%ebp),%ebx
 8054e11:	89 10                	mov    %edx,(%eax)
 8054e13:	8b 57 04             	mov    0x4(%edi),%edx
 8054e16:	89 50 04             	mov    %edx,0x4(%eax)
 8054e19:	8b 57 08             	mov    0x8(%edi),%edx
 8054e1c:	89 f7                	mov    %esi,%edi
 8054e1e:	89 ce                	mov    %ecx,%esi
 8054e20:	89 50 08             	mov    %edx,0x8(%eax)
 8054e23:	8b 41 04             	mov    0x4(%ecx),%eax
 8054e26:	eb 1b                	jmp    8054e43 <_realloc_r+0x163>
 8054e28:	83 e2 f8             	and    $0xfffffff8,%edx
 8054e2b:	89 55 dc             	mov    %edx,-0x24(%ebp)
 8054e2e:	89 55 d8             	mov    %edx,-0x28(%ebp)
 8054e31:	c1 ea 1f             	shr    $0x1f,%edx
 8054e34:	e9 ff fe ff ff       	jmp    8054d38 <_realloc_r+0x58>
 8054e39:	8d b4 26 00 00 00 00 	lea    0x0(%esi,%eiz,1),%esi
 8054e40:	8b 45 d4             	mov    -0x2c(%ebp),%eax
 8054e43:	89 da                	mov    %ebx,%edx
 8054e45:	2b 55 dc             	sub    -0x24(%ebp),%edx
 8054e48:	83 fa 0f             	cmp    $0xf,%edx
 8054e4b:	77 4b                	ja     8054e98 <_realloc_r+0x1b8>
 8054e4d:	83 e0 01             	and    $0x1,%eax
 8054e50:	09 d8                	or     %ebx,%eax
 8054e52:	89 46 04             	mov    %eax,0x4(%esi)
 8054e55:	83 4c 1e 04 01       	orl    $0x1,0x4(%esi,%ebx,1)
 8054e5a:	8b 45 e4             	mov    -0x1c(%ebp),%eax
 8054e5d:	89 04 24             	mov    %eax,(%esp)
 8054e60:	e8 eb c1 ff ff       	call   8051050 <__malloc_unlock>
 8054e65:	89 f8                	mov    %edi,%eax
 8054e67:	83 c4 3c             	add    $0x3c,%esp
 8054e6a:	5b                   	pop    %ebx
 8054e6b:	5e                   	pop    %esi
 8054e6c:	5f                   	pop    %edi
 8054e6d:	5d                   	pop    %ebp
 8054e6e:	c3                   	ret    
 8054e6f:	90                   	nop
 8054e70:	83 e1 fc             	and    $0xfffffffc,%ecx
 8054e73:	89 4d d0             	mov    %ecx,-0x30(%ebp)
 8054e76:	01 d9                	add    %ebx,%ecx
 8054e78:	3b 4d d8             	cmp    -0x28(%ebp),%ecx
 8054e7b:	0f 8c 04 ff ff ff    	jl     8054d85 <_realloc_r+0xa5>
 8054e81:	8b 5a 0c             	mov    0xc(%edx),%ebx
 8054e84:	8b 52 08             	mov    0x8(%edx),%edx
 8054e87:	8b 45 d4             	mov    -0x2c(%ebp),%eax
 8054e8a:	89 5a 0c             	mov    %ebx,0xc(%edx)
 8054e8d:	89 53 08             	mov    %edx,0x8(%ebx)
 8054e90:	89 cb                	mov    %ecx,%ebx
 8054e92:	eb af                	jmp    8054e43 <_realloc_r+0x163>
 8054e94:	8d 74 26 00          	lea    0x0(%esi,%eiz,1),%esi
 8054e98:	8b 5d dc             	mov    -0x24(%ebp),%ebx
 8054e9b:	83 e0 01             	and    $0x1,%eax
 8054e9e:	09 d8                	or     %ebx,%eax
 8054ea0:	89 46 04             	mov    %eax,0x4(%esi)
 8054ea3:	89 d0                	mov    %edx,%eax
 8054ea5:	8d 0c 1e             	lea    (%esi,%ebx,1),%ecx
 8054ea8:	83 c8 01             	or     $0x1,%eax
 8054eab:	89 41 04             	mov    %eax,0x4(%ecx)
 8054eae:	8b 45 e4             	mov    -0x1c(%ebp),%eax
 8054eb1:	83 4c 11 04 01       	orl    $0x1,0x4(%ecx,%edx,1)
 8054eb6:	83 c1 08             	add    $0x8,%ecx
 8054eb9:	89 4c 24 04          	mov    %ecx,0x4(%esp)
 8054ebd:	89 04 24             	mov    %eax,(%esp)
 8054ec0:	e8 ab b3 ff ff       	call   8050270 <_free_r>
 8054ec5:	eb 93                	jmp    8054e5a <_realloc_r+0x17a>
 8054ec7:	90                   	nop
 8054ec8:	8b 45 e0             	mov    -0x20(%ebp),%eax
 8054ecb:	89 44 24 04          	mov    %eax,0x4(%esp)
 8054ecf:	8b 45 e4             	mov    -0x1c(%ebp),%eax
 8054ed2:	89 04 24             	mov    %eax,(%esp)
 8054ed5:	e8 46 b9 ff ff       	call   8050820 <_malloc_r>
 8054eda:	85 c0                	test   %eax,%eax
 8054edc:	89 c1                	mov    %eax,%ecx
 8054ede:	0f 84 65 03 00 00    	je     8055249 <_realloc_r+0x569>
 8054ee4:	8b 47 fc             	mov    -0x4(%edi),%eax
 8054ee7:	8d 51 f8             	lea    -0x8(%ecx),%edx
 8054eea:	89 55 e0             	mov    %edx,-0x20(%ebp)
 8054eed:	89 c2                	mov    %eax,%edx
 8054eef:	83 e2 fe             	and    $0xfffffffe,%edx
 8054ef2:	01 f2                	add    %esi,%edx
 8054ef4:	39 55 e0             	cmp    %edx,-0x20(%ebp)
 8054ef7:	0f 84 63 02 00 00    	je     8055160 <_realloc_r+0x480>
 8054efd:	83 eb 04             	sub    $0x4,%ebx
 8054f00:	83 fb 24             	cmp    $0x24,%ebx
 8054f03:	0f 87 6f 01 00 00    	ja     8055078 <_realloc_r+0x398>
 8054f09:	83 fb 13             	cmp    $0x13,%ebx
 8054f0c:	0f 87 ee 00 00 00    	ja     8055000 <_realloc_r+0x320>
 8054f12:	89 c8                	mov    %ecx,%eax
 8054f14:	89 fa                	mov    %edi,%edx
 8054f16:	8b 1a                	mov    (%edx),%ebx
 8054f18:	89 18                	mov    %ebx,(%eax)
 8054f1a:	8b 5a 04             	mov    0x4(%edx),%ebx
 8054f1d:	89 58 04             	mov    %ebx,0x4(%eax)
 8054f20:	8b 52 08             	mov    0x8(%edx),%edx
 8054f23:	89 50 08             	mov    %edx,0x8(%eax)
 8054f26:	8b 75 e4             	mov    -0x1c(%ebp),%esi
 8054f29:	89 7c 24 04          	mov    %edi,0x4(%esp)
 8054f2d:	89 4d e0             	mov    %ecx,-0x20(%ebp)
 8054f30:	89 34 24             	mov    %esi,(%esp)
 8054f33:	e8 38 b3 ff ff       	call   8050270 <_free_r>
 8054f38:	89 34 24             	mov    %esi,(%esp)
 8054f3b:	e8 10 c1 ff ff       	call   8051050 <__malloc_unlock>
 8054f40:	8b 4d e0             	mov    -0x20(%ebp),%ecx
 8054f43:	83 c4 3c             	add    $0x3c,%esp
 8054f46:	5b                   	pop    %ebx
 8054f47:	5e                   	pop    %esi
 8054f48:	5f                   	pop    %edi
 8054f49:	89 c8                	mov    %ecx,%eax
 8054f4b:	5d                   	pop    %ebp
 8054f4c:	c3                   	ret    
 8054f4d:	8d 76 00             	lea    0x0(%esi),%esi
 8054f50:	89 45 0c             	mov    %eax,0xc(%ebp)
 8054f53:	83 c4 3c             	add    $0x3c,%esp
 8054f56:	5b                   	pop    %ebx
 8054f57:	5e                   	pop    %esi
 8054f58:	5f                   	pop    %edi
 8054f59:	5d                   	pop    %ebp
 8054f5a:	e9 c1 b8 ff ff       	jmp    8050820 <_malloc_r>
 8054f5f:	90                   	nop
 8054f60:	8b 45 e4             	mov    -0x1c(%ebp),%eax
 8054f63:	c7 00 0c 00 00 00    	movl   $0xc,(%eax)
 8054f69:	31 c0                	xor    %eax,%eax
 8054f6b:	e9 f7 fe ff ff       	jmp    8054e67 <_realloc_r+0x187>
 8054f70:	89 c2                	mov    %eax,%edx
 8054f72:	3b 55 d8             	cmp    -0x28(%ebp),%edx
 8054f75:	0f 8c 4d ff ff ff    	jl     8054ec8 <_realloc_r+0x1e8>
 8054f7b:	8b 71 08             	mov    0x8(%ecx),%esi
 8054f7e:	83 eb 04             	sub    $0x4,%ebx
 8054f81:	8b 41 0c             	mov    0xc(%ecx),%eax
 8054f84:	83 fb 24             	cmp    $0x24,%ebx
 8054f87:	89 46 0c             	mov    %eax,0xc(%esi)
 8054f8a:	89 70 08             	mov    %esi,0x8(%eax)
 8054f8d:	8d 71 08             	lea    0x8(%ecx),%esi
 8054f90:	0f 87 88 00 00 00    	ja     805501e <_realloc_r+0x33e>
 8054f96:	83 fb 13             	cmp    $0x13,%ebx
 8054f99:	89 f0                	mov    %esi,%eax
 8054f9b:	76 1a                	jbe    8054fb7 <_realloc_r+0x2d7>
 8054f9d:	8b 07                	mov    (%edi),%eax
 8054f9f:	83 fb 1b             	cmp    $0x1b,%ebx
 8054fa2:	89 41 08             	mov    %eax,0x8(%ecx)
 8054fa5:	8b 47 04             	mov    0x4(%edi),%eax
 8054fa8:	89 41 0c             	mov    %eax,0xc(%ecx)
 8054fab:	0f 87 17 02 00 00    	ja     80551c8 <_realloc_r+0x4e8>
 8054fb1:	8d 41 10             	lea    0x10(%ecx),%eax
 8054fb4:	83 c7 08             	add    $0x8,%edi
 8054fb7:	8b 1f                	mov    (%edi),%ebx
 8054fb9:	89 18                	mov    %ebx,(%eax)
 8054fbb:	8b 5f 04             	mov    0x4(%edi),%ebx
 8054fbe:	89 58 04             	mov    %ebx,0x4(%eax)
 8054fc1:	8b 5f 08             	mov    0x8(%edi),%ebx
 8054fc4:	89 f7                	mov    %esi,%edi
 8054fc6:	89 ce                	mov    %ecx,%esi
 8054fc8:	89 58 08             	mov    %ebx,0x8(%eax)
 8054fcb:	89 d3                	mov    %edx,%ebx
 8054fcd:	8b 41 04             	mov    0x4(%ecx),%eax
 8054fd0:	e9 6e fe ff ff       	jmp    8054e43 <_realloc_r+0x163>
 8054fd5:	8d 76 00             	lea    0x0(%esi),%esi
 8054fd8:	8b 45 cc             	mov    -0x34(%ebp),%eax
 8054fdb:	8b 55 dc             	mov    -0x24(%ebp),%edx
 8054fde:	8b 48 04             	mov    0x4(%eax),%ecx
 8054fe1:	83 c2 10             	add    $0x10,%edx
 8054fe4:	89 4d d0             	mov    %ecx,-0x30(%ebp)
 8054fe7:	83 65 d0 fc          	andl   $0xfffffffc,-0x30(%ebp)
 8054feb:	8b 4d d0             	mov    -0x30(%ebp),%ecx
 8054fee:	01 d9                	add    %ebx,%ecx
 8054ff0:	39 d1                	cmp    %edx,%ecx
 8054ff2:	7d 54                	jge    8055048 <_realloc_r+0x368>
 8054ff4:	89 c2                	mov    %eax,%edx
 8054ff6:	e9 8a fd ff ff       	jmp    8054d85 <_realloc_r+0xa5>
 8054ffb:	90                   	nop
 8054ffc:	8d 74 26 00          	lea    0x0(%esi,%eiz,1),%esi
 8055000:	8b 07                	mov    (%edi),%eax
 8055002:	83 fb 1b             	cmp    $0x1b,%ebx
 8055005:	89 01                	mov    %eax,(%ecx)
 8055007:	8b 47 04             	mov    0x4(%edi),%eax
 805500a:	89 41 04             	mov    %eax,0x4(%ecx)
 805500d:	0f 87 2d 01 00 00    	ja     8055140 <_realloc_r+0x460>
 8055013:	8d 41 08             	lea    0x8(%ecx),%eax
 8055016:	8d 57 08             	lea    0x8(%edi),%edx
 8055019:	e9 f8 fe ff ff       	jmp    8054f16 <_realloc_r+0x236>
 805501e:	89 5c 24 08          	mov    %ebx,0x8(%esp)
 8055022:	89 7c 24 04          	mov    %edi,0x4(%esp)
 8055026:	89 f7                	mov    %esi,%edi
 8055028:	89 34 24             	mov    %esi,(%esp)
 805502b:	89 55 d8             	mov    %edx,-0x28(%ebp)
 805502e:	89 4d e0             	mov    %ecx,-0x20(%ebp)
 8055031:	e8 ca fb ff ff       	call   8054c00 <memmove>
 8055036:	8b 4d e0             	mov    -0x20(%ebp),%ecx
 8055039:	8b 55 d8             	mov    -0x28(%ebp),%edx
 805503c:	8b 41 04             	mov    0x4(%ecx),%eax
 805503f:	89 ce                	mov    %ecx,%esi
 8055041:	89 d3                	mov    %edx,%ebx
 8055043:	e9 fb fd ff ff       	jmp    8054e43 <_realloc_r+0x163>
 8055048:	8b 5d dc             	mov    -0x24(%ebp),%ebx
 805504b:	29 d9                	sub    %ebx,%ecx
 805504d:	01 de                	add    %ebx,%esi
 805504f:	83 c9 01             	or     $0x1,%ecx
 8055052:	89 35 c8 a9 05 08    	mov    %esi,0x805a9c8
 8055058:	89 4e 04             	mov    %ecx,0x4(%esi)
 805505b:	8b 47 fc             	mov    -0x4(%edi),%eax
 805505e:	83 e0 01             	and    $0x1,%eax
 8055061:	09 d8                	or     %ebx,%eax
 8055063:	89 47 fc             	mov    %eax,-0x4(%edi)
 8055066:	8b 45 e4             	mov    -0x1c(%ebp),%eax
 8055069:	89 04 24             	mov    %eax,(%esp)
 805506c:	e8 df bf ff ff       	call   8051050 <__malloc_unlock>
 8055071:	89 f8                	mov    %edi,%eax
 8055073:	e9 ef fd ff ff       	jmp    8054e67 <_realloc_r+0x187>
 8055078:	89 0c 24             	mov    %ecx,(%esp)
 805507b:	89 5c 24 08          	mov    %ebx,0x8(%esp)
 805507f:	89 7c 24 04          	mov    %edi,0x4(%esp)
 8055083:	89 4d e0             	mov    %ecx,-0x20(%ebp)
 8055086:	e8 75 fb ff ff       	call   8054c00 <memmove>
 805508b:	8b 4d e0             	mov    -0x20(%ebp),%ecx
 805508e:	e9 93 fe ff ff       	jmp    8054f26 <_realloc_r+0x246>
 8055093:	90                   	nop
 8055094:	8d 74 26 00          	lea    0x0(%esi,%eiz,1),%esi
 8055098:	8d 14 18             	lea    (%eax,%ebx,1),%edx
 805509b:	e9 d2 fe ff ff       	jmp    8054f72 <_realloc_r+0x292>
 80550a0:	8d 14 18             	lea    (%eax,%ebx,1),%edx
 80550a3:	8b 45 d0             	mov    -0x30(%ebp),%eax
 80550a6:	01 d0                	add    %edx,%eax
 80550a8:	89 45 d4             	mov    %eax,-0x2c(%ebp)
 80550ab:	8b 45 dc             	mov    -0x24(%ebp),%eax
 80550ae:	83 c0 10             	add    $0x10,%eax
 80550b1:	39 45 d4             	cmp    %eax,-0x2c(%ebp)
 80550b4:	0f 8c b8 fe ff ff    	jl     8054f72 <_realloc_r+0x292>
 80550ba:	8b 41 0c             	mov    0xc(%ecx),%eax
 80550bd:	83 eb 04             	sub    $0x4,%ebx
 80550c0:	8b 51 08             	mov    0x8(%ecx),%edx
 80550c3:	83 fb 24             	cmp    $0x24,%ebx
 80550c6:	8d 71 08             	lea    0x8(%ecx),%esi
 80550c9:	89 42 0c             	mov    %eax,0xc(%edx)
 80550cc:	89 50 08             	mov    %edx,0x8(%eax)
 80550cf:	0f 87 3d 01 00 00    	ja     8055212 <_realloc_r+0x532>
 80550d5:	83 fb 13             	cmp    $0x13,%ebx
 80550d8:	89 f0                	mov    %esi,%eax
 80550da:	76 1a                	jbe    80550f6 <_realloc_r+0x416>
 80550dc:	8b 07                	mov    (%edi),%eax
 80550de:	83 fb 1b             	cmp    $0x1b,%ebx
 80550e1:	89 41 08             	mov    %eax,0x8(%ecx)
 80550e4:	8b 47 04             	mov    0x4(%edi),%eax
 80550e7:	89 41 0c             	mov    %eax,0xc(%ecx)
 80550ea:	0f 87 3d 01 00 00    	ja     805522d <_realloc_r+0x54d>
 80550f0:	8d 41 10             	lea    0x10(%ecx),%eax
 80550f3:	83 c7 08             	add    $0x8,%edi
 80550f6:	8b 17                	mov    (%edi),%edx
 80550f8:	89 10                	mov    %edx,(%eax)
 80550fa:	8b 57 04             	mov    0x4(%edi),%edx
 80550fd:	89 50 04             	mov    %edx,0x4(%eax)
 8055100:	8b 57 08             	mov    0x8(%edi),%edx
 8055103:	89 50 08             	mov    %edx,0x8(%eax)
 8055106:	8b 5d dc             	mov    -0x24(%ebp),%ebx
 8055109:	8b 7d d4             	mov    -0x2c(%ebp),%edi
 805510c:	89 d8                	mov    %ebx,%eax
 805510e:	29 df                	sub    %ebx,%edi
 8055110:	01 c8                	add    %ecx,%eax
 8055112:	83 cf 01             	or     $0x1,%edi
 8055115:	a3 c8 a9 05 08       	mov    %eax,0x805a9c8
 805511a:	89 78 04             	mov    %edi,0x4(%eax)
 805511d:	8b 41 04             	mov    0x4(%ecx),%eax
 8055120:	83 e0 01             	and    $0x1,%eax
 8055123:	09 d8                	or     %ebx,%eax
 8055125:	89 41 04             	mov    %eax,0x4(%ecx)
 8055128:	8b 45 e4             	mov    -0x1c(%ebp),%eax
 805512b:	89 04 24             	mov    %eax,(%esp)
 805512e:	e8 1d bf ff ff       	call   8051050 <__malloc_unlock>
 8055133:	89 f0                	mov    %esi,%eax
 8055135:	e9 2d fd ff ff       	jmp    8054e67 <_realloc_r+0x187>
 805513a:	8d b6 00 00 00 00    	lea    0x0(%esi),%esi
 8055140:	8b 47 08             	mov    0x8(%edi),%eax
 8055143:	83 fb 24             	cmp    $0x24,%ebx
 8055146:	89 41 08             	mov    %eax,0x8(%ecx)
 8055149:	8b 47 0c             	mov    0xc(%edi),%eax
 805514c:	89 41 0c             	mov    %eax,0xc(%ecx)
 805514f:	74 60                	je     80551b1 <_realloc_r+0x4d1>
 8055151:	8d 41 10             	lea    0x10(%ecx),%eax
 8055154:	8d 57 10             	lea    0x10(%edi),%edx
 8055157:	e9 ba fd ff ff       	jmp    8054f16 <_realloc_r+0x236>
 805515c:	8d 74 26 00          	lea    0x0(%esi,%eiz,1),%esi
 8055160:	8b 51 fc             	mov    -0x4(%ecx),%edx
 8055163:	83 e2 fc             	and    $0xfffffffc,%edx
 8055166:	01 d3                	add    %edx,%ebx
 8055168:	e9 d6 fc ff ff       	jmp    8054e43 <_realloc_r+0x163>
 805516d:	8d 76 00             	lea    0x0(%esi),%esi
 8055170:	89 5c 24 08          	mov    %ebx,0x8(%esp)
 8055174:	89 7c 24 04          	mov    %edi,0x4(%esp)
 8055178:	89 f7                	mov    %esi,%edi
 805517a:	89 34 24             	mov    %esi,(%esp)
 805517d:	89 4d e0             	mov    %ecx,-0x20(%ebp)
 8055180:	e8 7b fa ff ff       	call   8054c00 <memmove>
 8055185:	8b 4d e0             	mov    -0x20(%ebp),%ecx
 8055188:	8b 5d d0             	mov    -0x30(%ebp),%ebx
 805518b:	8b 41 04             	mov    0x4(%ecx),%eax
 805518e:	89 ce                	mov    %ecx,%esi
 8055190:	e9 ae fc ff ff       	jmp    8054e43 <_realloc_r+0x163>
 8055195:	8b 47 08             	mov    0x8(%edi),%eax
 8055198:	83 fb 24             	cmp    $0x24,%ebx
 805519b:	89 41 10             	mov    %eax,0x10(%ecx)
 805519e:	8b 47 0c             	mov    0xc(%edi),%eax
 80551a1:	89 41 14             	mov    %eax,0x14(%ecx)
 80551a4:	74 3e                	je     80551e4 <_realloc_r+0x504>
 80551a6:	8d 41 18             	lea    0x18(%ecx),%eax
 80551a9:	83 c7 10             	add    $0x10,%edi
 80551ac:	e9 5b fc ff ff       	jmp    8054e0c <_realloc_r+0x12c>
 80551b1:	8b 47 10             	mov    0x10(%edi),%eax
 80551b4:	8d 57 18             	lea    0x18(%edi),%edx
 80551b7:	89 41 10             	mov    %eax,0x10(%ecx)
 80551ba:	8b 5f 14             	mov    0x14(%edi),%ebx
 80551bd:	8d 41 18             	lea    0x18(%ecx),%eax
 80551c0:	89 59 14             	mov    %ebx,0x14(%ecx)
 80551c3:	e9 4e fd ff ff       	jmp    8054f16 <_realloc_r+0x236>
 80551c8:	8b 47 08             	mov    0x8(%edi),%eax
 80551cb:	83 fb 24             	cmp    $0x24,%ebx
 80551ce:	89 41 10             	mov    %eax,0x10(%ecx)
 80551d1:	8b 47 0c             	mov    0xc(%edi),%eax
 80551d4:	89 41 14             	mov    %eax,0x14(%ecx)
 80551d7:	74 22                	je     80551fb <_realloc_r+0x51b>
 80551d9:	8d 41 18             	lea    0x18(%ecx),%eax
 80551dc:	83 c7 10             	add    $0x10,%edi
 80551df:	e9 d3 fd ff ff       	jmp    8054fb7 <_realloc_r+0x2d7>
 80551e4:	8b 47 10             	mov    0x10(%edi),%eax
 80551e7:	83 c7 18             	add    $0x18,%edi
 80551ea:	89 41 18             	mov    %eax,0x18(%ecx)
 80551ed:	8b 57 fc             	mov    -0x4(%edi),%edx
 80551f0:	8d 41 20             	lea    0x20(%ecx),%eax
 80551f3:	89 51 1c             	mov    %edx,0x1c(%ecx)
 80551f6:	e9 11 fc ff ff       	jmp    8054e0c <_realloc_r+0x12c>
 80551fb:	8b 47 10             	mov    0x10(%edi),%eax
 80551fe:	83 c7 18             	add    $0x18,%edi
 8055201:	89 41 18             	mov    %eax,0x18(%ecx)
 8055204:	8b 5f fc             	mov    -0x4(%edi),%ebx
 8055207:	8d 41 20             	lea    0x20(%ecx),%eax
 805520a:	89 59 1c             	mov    %ebx,0x1c(%ecx)
 805520d:	e9 a5 fd ff ff       	jmp    8054fb7 <_realloc_r+0x2d7>
 8055212:	89 5c 24 08          	mov    %ebx,0x8(%esp)
 8055216:	89 7c 24 04          	mov    %edi,0x4(%esp)
 805521a:	89 34 24             	mov    %esi,(%esp)
 805521d:	89 4d e0             	mov    %ecx,-0x20(%ebp)
 8055220:	e8 db f9 ff ff       	call   8054c00 <memmove>
 8055225:	8b 4d e0             	mov    -0x20(%ebp),%ecx
 8055228:	e9 d9 fe ff ff       	jmp    8055106 <_realloc_r+0x426>
 805522d:	8b 47 08             	mov    0x8(%edi),%eax
 8055230:	83 fb 24             	cmp    $0x24,%ebx
 8055233:	89 41 10             	mov    %eax,0x10(%ecx)
 8055236:	8b 47 0c             	mov    0xc(%edi),%eax
 8055239:	89 41 14             	mov    %eax,0x14(%ecx)
 805523c:	74 1d                	je     805525b <_realloc_r+0x57b>
 805523e:	8d 41 18             	lea    0x18(%ecx),%eax
 8055241:	83 c7 10             	add    $0x10,%edi
 8055244:	e9 ad fe ff ff       	jmp    80550f6 <_realloc_r+0x416>
 8055249:	8b 45 e4             	mov    -0x1c(%ebp),%eax
 805524c:	89 04 24             	mov    %eax,(%esp)
 805524f:	e8 fc bd ff ff       	call   8051050 <__malloc_unlock>
 8055254:	31 c0                	xor    %eax,%eax
 8055256:	e9 0c fc ff ff       	jmp    8054e67 <_realloc_r+0x187>
 805525b:	8b 47 10             	mov    0x10(%edi),%eax
 805525e:	83 c7 18             	add    $0x18,%edi
 8055261:	89 41 18             	mov    %eax,0x18(%ecx)
 8055264:	8b 57 fc             	mov    -0x4(%edi),%edx
 8055267:	8d 41 20             	lea    0x20(%ecx),%eax
 805526a:	89 51 1c             	mov    %edx,0x1c(%ecx)
 805526d:	e9 84 fe ff ff       	jmp    80550f6 <_realloc_r+0x416>
 8055272:	66 90                	xchg   %ax,%ax
 8055274:	66 90                	xchg   %ax,%ax
 8055276:	66 90                	xchg   %ax,%ax
 8055278:	66 90                	xchg   %ax,%ax
 805527a:	66 90                	xchg   %ax,%ax
 805527c:	66 90                	xchg   %ax,%ax
 805527e:	66 90                	xchg   %ax,%ax

08055280 <cleanup_glue>:
 8055280:	55                   	push   %ebp
 8055281:	89 e5                	mov    %esp,%ebp
 8055283:	56                   	push   %esi
 8055284:	53                   	push   %ebx
 8055285:	83 ec 10             	sub    $0x10,%esp
 8055288:	8b 5d 0c             	mov    0xc(%ebp),%ebx
 805528b:	8b 75 08             	mov    0x8(%ebp),%esi
 805528e:	8b 03                	mov    (%ebx),%eax
 8055290:	85 c0                	test   %eax,%eax
 8055292:	74 0c                	je     80552a0 <cleanup_glue+0x20>
 8055294:	89 44 24 04          	mov    %eax,0x4(%esp)
 8055298:	89 34 24             	mov    %esi,(%esp)
 805529b:	e8 e0 ff ff ff       	call   8055280 <cleanup_glue>
 80552a0:	89 5d 0c             	mov    %ebx,0xc(%ebp)
 80552a3:	89 75 08             	mov    %esi,0x8(%ebp)
 80552a6:	83 c4 10             	add    $0x10,%esp
 80552a9:	5b                   	pop    %ebx
 80552aa:	5e                   	pop    %esi
 80552ab:	5d                   	pop    %ebp
 80552ac:	e9 bf af ff ff       	jmp    8050270 <_free_r>
 80552b1:	eb 0d                	jmp    80552c0 <_reclaim_reent>
 80552b3:	90                   	nop
 80552b4:	90                   	nop
 80552b5:	90                   	nop
 80552b6:	90                   	nop
 80552b7:	90                   	nop
 80552b8:	90                   	nop
 80552b9:	90                   	nop
 80552ba:	90                   	nop
 80552bb:	90                   	nop
 80552bc:	90                   	nop
 80552bd:	90                   	nop
 80552be:	90                   	nop
 80552bf:	90                   	nop

080552c0 <_reclaim_reent>:
 80552c0:	55                   	push   %ebp
 80552c1:	89 e5                	mov    %esp,%ebp
 80552c3:	57                   	push   %edi
 80552c4:	56                   	push   %esi
 80552c5:	53                   	push   %ebx
 80552c6:	83 ec 1c             	sub    $0x1c,%esp
 80552c9:	8b 5d 08             	mov    0x8(%ebp),%ebx
 80552cc:	3b 1d c0 a4 05 08    	cmp    0x805a4c0,%ebx
 80552d2:	0f 84 a6 00 00 00    	je     805537e <_reclaim_reent+0xbe>
 80552d8:	8b 53 4c             	mov    0x4c(%ebx),%edx
 80552db:	85 d2                	test   %edx,%edx
 80552dd:	74 46                	je     8055325 <_reclaim_reent+0x65>
 80552df:	31 c0                	xor    %eax,%eax
 80552e1:	31 f6                	xor    %esi,%esi
 80552e3:	90                   	nop
 80552e4:	8d 74 26 00          	lea    0x0(%esi,%eiz,1),%esi
 80552e8:	8b 04 82             	mov    (%edx,%eax,4),%eax
 80552eb:	85 c0                	test   %eax,%eax
 80552ed:	75 0b                	jne    80552fa <_reclaim_reent+0x3a>
 80552ef:	eb 1e                	jmp    805530f <_reclaim_reent+0x4f>
 80552f1:	8d b4 26 00 00 00 00 	lea    0x0(%esi,%eiz,1),%esi
 80552f8:	89 f8                	mov    %edi,%eax
 80552fa:	8b 38                	mov    (%eax),%edi
 80552fc:	89 44 24 04          	mov    %eax,0x4(%esp)
 8055300:	89 1c 24             	mov    %ebx,(%esp)
 8055303:	e8 68 af ff ff       	call   8050270 <_free_r>
 8055308:	85 ff                	test   %edi,%edi
 805530a:	75 ec                	jne    80552f8 <_reclaim_reent+0x38>
 805530c:	8b 53 4c             	mov    0x4c(%ebx),%edx
 805530f:	83 c6 01             	add    $0x1,%esi
 8055312:	83 fe 20             	cmp    $0x20,%esi
 8055315:	89 f0                	mov    %esi,%eax
 8055317:	75 cf                	jne    80552e8 <_reclaim_reent+0x28>
 8055319:	89 54 24 04          	mov    %edx,0x4(%esp)
 805531d:	89 1c 24             	mov    %ebx,(%esp)
 8055320:	e8 4b af ff ff       	call   8050270 <_free_r>
 8055325:	8b 43 40             	mov    0x40(%ebx),%eax
 8055328:	85 c0                	test   %eax,%eax
 805532a:	74 0c                	je     8055338 <_reclaim_reent+0x78>
 805532c:	89 44 24 04          	mov    %eax,0x4(%esp)
 8055330:	89 1c 24             	mov    %ebx,(%esp)
 8055333:	e8 38 af ff ff       	call   8050270 <_free_r>
 8055338:	8b 83 48 01 00 00    	mov    0x148(%ebx),%eax
 805533e:	85 c0                	test   %eax,%eax
 8055340:	74 22                	je     8055364 <_reclaim_reent+0xa4>
 8055342:	8d b3 4c 01 00 00    	lea    0x14c(%ebx),%esi
 8055348:	39 f0                	cmp    %esi,%eax
 805534a:	75 06                	jne    8055352 <_reclaim_reent+0x92>
 805534c:	eb 16                	jmp    8055364 <_reclaim_reent+0xa4>
 805534e:	66 90                	xchg   %ax,%ax
 8055350:	89 f8                	mov    %edi,%eax
 8055352:	8b 38                	mov    (%eax),%edi
 8055354:	89 44 24 04          	mov    %eax,0x4(%esp)
 8055358:	89 1c 24             	mov    %ebx,(%esp)
 805535b:	e8 10 af ff ff       	call   8050270 <_free_r>
 8055360:	39 fe                	cmp    %edi,%esi
 8055362:	75 ec                	jne    8055350 <_reclaim_reent+0x90>
 8055364:	8b 43 54             	mov    0x54(%ebx),%eax
 8055367:	85 c0                	test   %eax,%eax
 8055369:	74 0c                	je     8055377 <_reclaim_reent+0xb7>
 805536b:	89 44 24 04          	mov    %eax,0x4(%esp)
 805536f:	89 1c 24             	mov    %ebx,(%esp)
 8055372:	e8 f9 ae ff ff       	call   8050270 <_free_r>
 8055377:	8b 43 38             	mov    0x38(%ebx),%eax
 805537a:	85 c0                	test   %eax,%eax
 805537c:	75 08                	jne    8055386 <_reclaim_reent+0xc6>
 805537e:	83 c4 1c             	add    $0x1c,%esp
 8055381:	5b                   	pop    %ebx
 8055382:	5e                   	pop    %esi
 8055383:	5f                   	pop    %edi
 8055384:	5d                   	pop    %ebp
 8055385:	c3                   	ret    
 8055386:	89 1c 24             	mov    %ebx,(%esp)
 8055389:	ff 53 3c             	call   *0x3c(%ebx)
 805538c:	8b 83 e0 02 00 00    	mov    0x2e0(%ebx),%eax
 8055392:	85 c0                	test   %eax,%eax
 8055394:	74 e8                	je     805537e <_reclaim_reent+0xbe>
 8055396:	89 1c 24             	mov    %ebx,(%esp)
 8055399:	89 44 24 04          	mov    %eax,0x4(%esp)
 805539d:	e8 de fe ff ff       	call   8055280 <cleanup_glue>
 80553a2:	83 c4 1c             	add    $0x1c,%esp
 80553a5:	5b                   	pop    %ebx
 80553a6:	5e                   	pop    %esi
 80553a7:	5f                   	pop    %edi
 80553a8:	5d                   	pop    %ebp
 80553a9:	c3                   	ret    
 80553aa:	66 90                	xchg   %ax,%ax
 80553ac:	66 90                	xchg   %ax,%ax
 80553ae:	66 90                	xchg   %ax,%ax

080553b0 <__swbuf_r>:
 80553b0:	55                   	push   %ebp
 80553b1:	89 e5                	mov    %esp,%ebp
 80553b3:	57                   	push   %edi
 80553b4:	56                   	push   %esi
 80553b5:	53                   	push   %ebx
 80553b6:	83 ec 1c             	sub    $0x1c,%esp
 80553b9:	8b 75 08             	mov    0x8(%ebp),%esi
 80553bc:	8b 5d 10             	mov    0x10(%ebp),%ebx
 80553bf:	85 f6                	test   %esi,%esi
 80553c1:	74 0b                	je     80553ce <__swbuf_r+0x1e>
 80553c3:	8b 46 38             	mov    0x38(%esi),%eax
 80553c6:	85 c0                	test   %eax,%eax
 80553c8:	0f 84 da 00 00 00    	je     80554a8 <__swbuf_r+0xf8>
 80553ce:	8b 43 18             	mov    0x18(%ebx),%eax
 80553d1:	89 43 08             	mov    %eax,0x8(%ebx)
 80553d4:	0f b7 43 0c          	movzwl 0xc(%ebx),%eax
 80553d8:	a8 08                	test   $0x8,%al
 80553da:	0f 84 a8 00 00 00    	je     8055488 <__swbuf_r+0xd8>
 80553e0:	8b 53 10             	mov    0x10(%ebx),%edx
 80553e3:	85 d2                	test   %edx,%edx
 80553e5:	0f 84 9d 00 00 00    	je     8055488 <__swbuf_r+0xd8>
 80553eb:	f6 c4 20             	test   $0x20,%ah
 80553ee:	0f b6 7d 0c          	movzbl 0xc(%ebp),%edi
 80553f2:	74 3c                	je     8055430 <__swbuf_r+0x80>
 80553f4:	8b 03                	mov    (%ebx),%eax
 80553f6:	89 c1                	mov    %eax,%ecx
 80553f8:	29 d1                	sub    %edx,%ecx
 80553fa:	3b 4b 14             	cmp    0x14(%ebx),%ecx
 80553fd:	89 ca                	mov    %ecx,%edx
 80553ff:	7d 4a                	jge    805544b <__swbuf_r+0x9b>
 8055401:	83 c2 01             	add    $0x1,%edx
 8055404:	8d 48 01             	lea    0x1(%eax),%ecx
 8055407:	89 0b                	mov    %ecx,(%ebx)
 8055409:	89 f9                	mov    %edi,%ecx
 805540b:	83 6b 08 01          	subl   $0x1,0x8(%ebx)
 805540f:	88 08                	mov    %cl,(%eax)
 8055411:	39 53 14             	cmp    %edx,0x14(%ebx)
 8055414:	74 52                	je     8055468 <__swbuf_r+0xb8>
 8055416:	f6 43 0c 01          	testb  $0x1,0xc(%ebx)
 805541a:	89 f8                	mov    %edi,%eax
 805541c:	74 05                	je     8055423 <__swbuf_r+0x73>
 805541e:	83 ff 0a             	cmp    $0xa,%edi
 8055421:	74 45                	je     8055468 <__swbuf_r+0xb8>
 8055423:	83 c4 1c             	add    $0x1c,%esp
 8055426:	5b                   	pop    %ebx
 8055427:	5e                   	pop    %esi
 8055428:	5f                   	pop    %edi
 8055429:	5d                   	pop    %ebp
 805542a:	c3                   	ret    
 805542b:	90                   	nop
 805542c:	8d 74 26 00          	lea    0x0(%esi,%eiz,1),%esi
 8055430:	80 cc 20             	or     $0x20,%ah
 8055433:	66 89 43 0c          	mov    %ax,0xc(%ebx)
 8055437:	8b 03                	mov    (%ebx),%eax
 8055439:	81 63 64 ff df ff ff 	andl   $0xffffdfff,0x64(%ebx)
 8055440:	89 c1                	mov    %eax,%ecx
 8055442:	29 d1                	sub    %edx,%ecx
 8055444:	3b 4b 14             	cmp    0x14(%ebx),%ecx
 8055447:	89 ca                	mov    %ecx,%edx
 8055449:	7c b6                	jl     8055401 <__swbuf_r+0x51>
 805544b:	89 5c 24 04          	mov    %ebx,0x4(%esp)
 805544f:	89 34 24             	mov    %esi,(%esp)
 8055452:	e8 59 a8 ff ff       	call   804fcb0 <_fflush_r>
 8055457:	85 c0                	test   %eax,%eax
 8055459:	75 5d                	jne    80554b8 <__swbuf_r+0x108>
 805545b:	8b 03                	mov    (%ebx),%eax
 805545d:	ba 01 00 00 00       	mov    $0x1,%edx
 8055462:	eb a0                	jmp    8055404 <__swbuf_r+0x54>
 8055464:	8d 74 26 00          	lea    0x0(%esi,%eiz,1),%esi
 8055468:	89 5c 24 04          	mov    %ebx,0x4(%esp)
 805546c:	89 34 24             	mov    %esi,(%esp)
 805546f:	e8 3c a8 ff ff       	call   804fcb0 <_fflush_r>
 8055474:	85 c0                	test   %eax,%eax
 8055476:	75 40                	jne    80554b8 <__swbuf_r+0x108>
 8055478:	83 c4 1c             	add    $0x1c,%esp
 805547b:	89 f8                	mov    %edi,%eax
 805547d:	5b                   	pop    %ebx
 805547e:	5e                   	pop    %esi
 805547f:	5f                   	pop    %edi
 8055480:	5d                   	pop    %ebp
 8055481:	c3                   	ret    
 8055482:	8d b6 00 00 00 00    	lea    0x0(%esi),%esi
 8055488:	89 5c 24 04          	mov    %ebx,0x4(%esp)
 805548c:	89 34 24             	mov    %esi,(%esp)
 805548f:	e8 1c 91 ff ff       	call   804e5b0 <__swsetup_r>
 8055494:	85 c0                	test   %eax,%eax
 8055496:	75 20                	jne    80554b8 <__swbuf_r+0x108>
 8055498:	0f b7 43 0c          	movzwl 0xc(%ebx),%eax
 805549c:	8b 53 10             	mov    0x10(%ebx),%edx
 805549f:	e9 47 ff ff ff       	jmp    80553eb <__swbuf_r+0x3b>
 80554a4:	8d 74 26 00          	lea    0x0(%esi,%eiz,1),%esi
 80554a8:	89 34 24             	mov    %esi,(%esp)
 80554ab:	e8 70 a9 ff ff       	call   804fe20 <__sinit>
 80554b0:	e9 19 ff ff ff       	jmp    80553ce <__swbuf_r+0x1e>
 80554b5:	8d 76 00             	lea    0x0(%esi),%esi
 80554b8:	b8 ff ff ff ff       	mov    $0xffffffff,%eax
 80554bd:	e9 61 ff ff ff       	jmp    8055423 <__swbuf_r+0x73>
 80554c2:	8d b4 26 00 00 00 00 	lea    0x0(%esi,%eiz,1),%esi
 80554c9:	8d bc 27 00 00 00 00 	lea    0x0(%edi,%eiz,1),%edi

080554d0 <__swbuf>:
 80554d0:	55                   	push   %ebp
 80554d1:	89 e5                	mov    %esp,%ebp
 80554d3:	83 ec 18             	sub    $0x18,%esp
 80554d6:	e8 e5 b0 ff ff       	call   80505c0 <__getreent>
 80554db:	8b 55 0c             	mov    0xc(%ebp),%edx
 80554de:	89 54 24 08          	mov    %edx,0x8(%esp)
 80554e2:	8b 55 08             	mov    0x8(%ebp),%edx
 80554e5:	89 04 24             	mov    %eax,(%esp)
 80554e8:	89 54 24 04          	mov    %edx,0x4(%esp)
 80554ec:	e8 bf fe ff ff       	call   80553b0 <__swbuf_r>
 80554f1:	c9                   	leave  
 80554f2:	c3                   	ret    
 80554f3:	66 90                	xchg   %ax,%ax
 80554f5:	66 90                	xchg   %ax,%ax
 80554f7:	66 90                	xchg   %ax,%ax
 80554f9:	66 90                	xchg   %ax,%ax
 80554fb:	66 90                	xchg   %ax,%ax
 80554fd:	66 90                	xchg   %ax,%ax
 80554ff:	90                   	nop

08055500 <_wcrtomb_r>:
 8055500:	55                   	push   %ebp
 8055501:	89 e5                	mov    %esp,%ebp
 8055503:	57                   	push   %edi
 8055504:	56                   	push   %esi
 8055505:	53                   	push   %ebx
 8055506:	83 ec 3c             	sub    $0x3c,%esp
 8055509:	8b 7d 0c             	mov    0xc(%ebp),%edi
 805550c:	8b 75 14             	mov    0x14(%ebp),%esi
 805550f:	85 ff                	test   %edi,%edi
 8055511:	74 45                	je     8055558 <_wcrtomb_r+0x58>
 8055513:	8b 1d c8 ad 05 08    	mov    0x805adc8,%ebx
 8055519:	e8 22 b1 ff ff       	call   8050640 <__locale_charset>
 805551e:	89 74 24 10          	mov    %esi,0x10(%esp)
 8055522:	89 7c 24 04          	mov    %edi,0x4(%esp)
 8055526:	89 44 24 0c          	mov    %eax,0xc(%esp)
 805552a:	8b 45 10             	mov    0x10(%ebp),%eax
 805552d:	89 44 24 08          	mov    %eax,0x8(%esp)
 8055531:	8b 45 08             	mov    0x8(%ebp),%eax
 8055534:	89 04 24             	mov    %eax,(%esp)
 8055537:	ff d3                	call   *%ebx
 8055539:	83 f8 ff             	cmp    $0xffffffff,%eax
 805553c:	75 0f                	jne    805554d <_wcrtomb_r+0x4d>
 805553e:	8b 55 08             	mov    0x8(%ebp),%edx
 8055541:	c7 06 00 00 00 00    	movl   $0x0,(%esi)
 8055547:	c7 02 8a 00 00 00    	movl   $0x8a,(%edx)
 805554d:	83 c4 3c             	add    $0x3c,%esp
 8055550:	5b                   	pop    %ebx
 8055551:	5e                   	pop    %esi
 8055552:	5f                   	pop    %edi
 8055553:	5d                   	pop    %ebp
 8055554:	c3                   	ret    
 8055555:	8d 76 00             	lea    0x0(%esi),%esi
 8055558:	8b 3d c8 ad 05 08    	mov    0x805adc8,%edi
 805555e:	e8 dd b0 ff ff       	call   8050640 <__locale_charset>
 8055563:	89 74 24 10          	mov    %esi,0x10(%esp)
 8055567:	c7 44 24 08 00 00 00 	movl   $0x0,0x8(%esp)
 805556e:	00 
 805556f:	89 44 24 0c          	mov    %eax,0xc(%esp)
 8055573:	8d 45 de             	lea    -0x22(%ebp),%eax
 8055576:	89 44 24 04          	mov    %eax,0x4(%esp)
 805557a:	8b 45 08             	mov    0x8(%ebp),%eax
 805557d:	89 04 24             	mov    %eax,(%esp)
 8055580:	ff d7                	call   *%edi
 8055582:	eb b5                	jmp    8055539 <_wcrtomb_r+0x39>
 8055584:	8d b6 00 00 00 00    	lea    0x0(%esi),%esi
 805558a:	8d bf 00 00 00 00    	lea    0x0(%edi),%edi

08055590 <wcrtomb>:
 8055590:	55                   	push   %ebp
 8055591:	89 e5                	mov    %esp,%ebp
 8055593:	57                   	push   %edi
 8055594:	56                   	push   %esi
 8055595:	53                   	push   %ebx
 8055596:	83 ec 3c             	sub    $0x3c,%esp
 8055599:	8b 7d 08             	mov    0x8(%ebp),%edi
 805559c:	e8 1f b0 ff ff       	call   80505c0 <__getreent>
 80555a1:	85 ff                	test   %edi,%edi
 80555a3:	89 c3                	mov    %eax,%ebx
 80555a5:	74 49                	je     80555f0 <wcrtomb+0x60>
 80555a7:	8b 35 c8 ad 05 08    	mov    0x805adc8,%esi
 80555ad:	e8 8e b0 ff ff       	call   8050640 <__locale_charset>
 80555b2:	8b 55 10             	mov    0x10(%ebp),%edx
 80555b5:	89 7c 24 04          	mov    %edi,0x4(%esp)
 80555b9:	89 1c 24             	mov    %ebx,(%esp)
 80555bc:	89 54 24 10          	mov    %edx,0x10(%esp)
 80555c0:	89 44 24 0c          	mov    %eax,0xc(%esp)
 80555c4:	8b 45 0c             	mov    0xc(%ebp),%eax
 80555c7:	89 44 24 08          	mov    %eax,0x8(%esp)
 80555cb:	ff d6                	call   *%esi
 80555cd:	83 f8 ff             	cmp    $0xffffffff,%eax
 80555d0:	75 0f                	jne    80555e1 <wcrtomb+0x51>
 80555d2:	8b 4d 10             	mov    0x10(%ebp),%ecx
 80555d5:	c7 01 00 00 00 00    	movl   $0x0,(%ecx)
 80555db:	c7 03 8a 00 00 00    	movl   $0x8a,(%ebx)
 80555e1:	83 c4 3c             	add    $0x3c,%esp
 80555e4:	5b                   	pop    %ebx
 80555e5:	5e                   	pop    %esi
 80555e6:	5f                   	pop    %edi
 80555e7:	5d                   	pop    %ebp
 80555e8:	c3                   	ret    
 80555e9:	8d b4 26 00 00 00 00 	lea    0x0(%esi,%eiz,1),%esi
 80555f0:	8b 3d c8 ad 05 08    	mov    0x805adc8,%edi
 80555f6:	e8 45 b0 ff ff       	call   8050640 <__locale_charset>
 80555fb:	8b 4d 10             	mov    0x10(%ebp),%ecx
 80555fe:	c7 44 24 08 00 00 00 	movl   $0x0,0x8(%esp)
 8055605:	00 
 8055606:	89 1c 24             	mov    %ebx,(%esp)
 8055609:	89 4c 24 10          	mov    %ecx,0x10(%esp)
 805560d:	89 44 24 0c          	mov    %eax,0xc(%esp)
 8055611:	8d 45 de             	lea    -0x22(%ebp),%eax
 8055614:	89 44 24 04          	mov    %eax,0x4(%esp)
 8055618:	ff d7                	call   *%edi
 805561a:	eb b1                	jmp    80555cd <wcrtomb+0x3d>
 805561c:	66 90                	xchg   %ax,%ax
 805561e:	66 90                	xchg   %ax,%ax

08055620 <__ascii_wctomb>:
 8055620:	55                   	push   %ebp
 8055621:	89 e5                	mov    %esp,%ebp
 8055623:	8b 45 0c             	mov    0xc(%ebp),%eax
 8055626:	8b 55 10             	mov    0x10(%ebp),%edx
 8055629:	85 c0                	test   %eax,%eax
 805562b:	74 13                	je     8055640 <__ascii_wctomb+0x20>
 805562d:	81 fa ff 00 00 00    	cmp    $0xff,%edx
 8055633:	77 13                	ja     8055648 <__ascii_wctomb+0x28>
 8055635:	88 10                	mov    %dl,(%eax)
 8055637:	b8 01 00 00 00       	mov    $0x1,%eax
 805563c:	5d                   	pop    %ebp
 805563d:	c3                   	ret    
 805563e:	66 90                	xchg   %ax,%ax
 8055640:	31 c0                	xor    %eax,%eax
 8055642:	5d                   	pop    %ebp
 8055643:	c3                   	ret    
 8055644:	8d 74 26 00          	lea    0x0(%esi,%eiz,1),%esi
 8055648:	8b 45 08             	mov    0x8(%ebp),%eax
 805564b:	c7 00 8a 00 00 00    	movl   $0x8a,(%eax)
 8055651:	b8 ff ff ff ff       	mov    $0xffffffff,%eax
 8055656:	5d                   	pop    %ebp
 8055657:	c3                   	ret    
 8055658:	90                   	nop
 8055659:	8d b4 26 00 00 00 00 	lea    0x0(%esi,%eiz,1),%esi

08055660 <_wctomb_r>:
 8055660:	55                   	push   %ebp
 8055661:	89 e5                	mov    %esp,%ebp
 8055663:	53                   	push   %ebx
 8055664:	83 ec 24             	sub    $0x24,%esp
 8055667:	8b 1d c8 ad 05 08    	mov    0x805adc8,%ebx
 805566d:	e8 ce af ff ff       	call   8050640 <__locale_charset>
 8055672:	8b 55 14             	mov    0x14(%ebp),%edx
 8055675:	89 54 24 10          	mov    %edx,0x10(%esp)
 8055679:	89 44 24 0c          	mov    %eax,0xc(%esp)
 805567d:	8b 45 10             	mov    0x10(%ebp),%eax
 8055680:	89 44 24 08          	mov    %eax,0x8(%esp)
 8055684:	8b 45 0c             	mov    0xc(%ebp),%eax
 8055687:	89 44 24 04          	mov    %eax,0x4(%esp)
 805568b:	8b 45 08             	mov    0x8(%ebp),%eax
 805568e:	89 04 24             	mov    %eax,(%esp)
 8055691:	ff d3                	call   *%ebx
 8055693:	83 c4 24             	add    $0x24,%esp
 8055696:	5b                   	pop    %ebx
 8055697:	5d                   	pop    %ebp
 8055698:	c3                   	ret    
